
WheelWrapper.elf:     file format elf32-avr

Sections:
Idx Name          Size      VMA       LMA       File off  Algn
  0 .text         00002c8e  00000000  00000000  000000b4  2**1
                  CONTENTS, ALLOC, LOAD, READONLY, CODE
  1 .data         000002ae  00800060  00002c8e  00002d42  2**0
                  CONTENTS, ALLOC, LOAD, DATA
  2 .bss          00000066  0080030e  0080030e  00002ff0  2**0
                  ALLOC
  3 .eeprom       000001df  00810000  00810000  00002ff0  2**0
                  CONTENTS, ALLOC, LOAD, READONLY, DATA
  4 .comment      00000030  00000000  00000000  000031cf  2**0
                  CONTENTS, READONLY
  5 .note.gnu.avr.deviceinfo 0000003c  00000000  00000000  00003200  2**2
                  CONTENTS, READONLY
  6 .debug_aranges 00000950  00000000  00000000  0000323c  2**0
                  CONTENTS, READONLY, DEBUGGING
  7 .debug_info   0000be39  00000000  00000000  00003b8c  2**0
                  CONTENTS, READONLY, DEBUGGING
  8 .debug_abbrev 00000c10  00000000  00000000  0000f9c5  2**0
                  CONTENTS, READONLY, DEBUGGING
  9 .debug_line   00003212  00000000  00000000  000105d5  2**0
                  CONTENTS, READONLY, DEBUGGING
 10 .debug_frame  00001468  00000000  00000000  000137e8  2**2
                  CONTENTS, READONLY, DEBUGGING
 11 .debug_str    0000c447  00000000  00000000  00014c50  2**0
                  CONTENTS, READONLY, DEBUGGING
 12 .debug_loc    0000319d  00000000  00000000  00021097  2**0
                  CONTENTS, READONLY, DEBUGGING
 13 .debug_ranges 00000af0  00000000  00000000  00024234  2**0
                  CONTENTS, READONLY, DEBUGGING
 14 .debug_macro  000004ca  00000000  00000000  00024d24  2**0
                  CONTENTS, READONLY, DEBUGGING

Disassembly of section .text:

00000000 <__vectors>:
       0:	0c 94 2c 00 	jmp	0x58	; 0x58 <__dtors_end>
       4:	0c 94 54 00 	jmp	0xa8	; 0xa8 <__bad_interrupt>
       8:	0c 94 54 00 	jmp	0xa8	; 0xa8 <__bad_interrupt>
       c:	0c 94 54 00 	jmp	0xa8	; 0xa8 <__bad_interrupt>
      10:	0c 94 54 00 	jmp	0xa8	; 0xa8 <__bad_interrupt>
      14:	0c 94 54 00 	jmp	0xa8	; 0xa8 <__bad_interrupt>
      18:	0c 94 54 00 	jmp	0xa8	; 0xa8 <__bad_interrupt>
      1c:	0c 94 54 00 	jmp	0xa8	; 0xa8 <__bad_interrupt>
      20:	0c 94 54 00 	jmp	0xa8	; 0xa8 <__bad_interrupt>
      24:	0c 94 54 00 	jmp	0xa8	; 0xa8 <__bad_interrupt>
      28:	0c 94 54 00 	jmp	0xa8	; 0xa8 <__bad_interrupt>
      2c:	0c 94 54 00 	jmp	0xa8	; 0xa8 <__bad_interrupt>
      30:	0c 94 54 00 	jmp	0xa8	; 0xa8 <__bad_interrupt>
      34:	0c 94 54 00 	jmp	0xa8	; 0xa8 <__bad_interrupt>
      38:	0c 94 54 00 	jmp	0xa8	; 0xa8 <__bad_interrupt>
      3c:	0c 94 54 00 	jmp	0xa8	; 0xa8 <__bad_interrupt>
      40:	0c 94 54 00 	jmp	0xa8	; 0xa8 <__bad_interrupt>
      44:	0c 94 54 00 	jmp	0xa8	; 0xa8 <__bad_interrupt>
      48:	0c 94 54 00 	jmp	0xa8	; 0xa8 <__bad_interrupt>
      4c:	0c 94 5c 00 	jmp	0xb8	; 0xb8 <__vector_19>
      50:	0c 94 54 00 	jmp	0xa8	; 0xa8 <__bad_interrupt>

00000054 <__ctors_start>:
      54:	ab 0e       	add	r10, r27

00000056 <__ctors_end>:
      56:	3f 0f       	add	r19, r31

00000058 <__dtors_end>:
      58:	11 24       	eor	r1, r1
      5a:	1f be       	out	0x3f, r1	; 63
      5c:	cf e5       	ldi	r28, 0x5F	; 95
      5e:	d4 e0       	ldi	r29, 0x04	; 4
      60:	de bf       	out	0x3e, r29	; 62
      62:	cd bf       	out	0x3d, r28	; 61

00000064 <__do_copy_data>:
      64:	13 e0       	ldi	r17, 0x03	; 3
      66:	a0 e6       	ldi	r26, 0x60	; 96
      68:	b0 e0       	ldi	r27, 0x00	; 0
      6a:	ee e8       	ldi	r30, 0x8E	; 142
      6c:	fc e2       	ldi	r31, 0x2C	; 44
      6e:	02 c0       	rjmp	.+4      	; 0x74 <__do_copy_data+0x10>
      70:	05 90       	lpm	r0, Z+
      72:	0d 92       	st	X+, r0
      74:	ae 30       	cpi	r26, 0x0E	; 14
      76:	b1 07       	cpc	r27, r17
      78:	d9 f7       	brne	.-10     	; 0x70 <__do_copy_data+0xc>

0000007a <__do_clear_bss>:
      7a:	23 e0       	ldi	r18, 0x03	; 3
      7c:	ae e0       	ldi	r26, 0x0E	; 14
      7e:	b3 e0       	ldi	r27, 0x03	; 3
      80:	01 c0       	rjmp	.+2      	; 0x84 <.do_clear_bss_start>

00000082 <.do_clear_bss_loop>:
      82:	1d 92       	st	X+, r1

00000084 <.do_clear_bss_start>:
      84:	a4 37       	cpi	r26, 0x74	; 116
      86:	b2 07       	cpc	r27, r18
      88:	e1 f7       	brne	.-8      	; 0x82 <.do_clear_bss_loop>

0000008a <__do_global_ctors>:
      8a:	10 e0       	ldi	r17, 0x00	; 0
      8c:	cb e2       	ldi	r28, 0x2B	; 43
      8e:	d0 e0       	ldi	r29, 0x00	; 0
      90:	04 c0       	rjmp	.+8      	; 0x9a <__do_global_ctors+0x10>
      92:	21 97       	sbiw	r28, 0x01	; 1
      94:	fe 01       	movw	r30, r28
      96:	0e 94 ef 14 	call	0x29de	; 0x29de <__tablejump2__>
      9a:	ca 32       	cpi	r28, 0x2A	; 42
      9c:	d1 07       	cpc	r29, r17
      9e:	c9 f7       	brne	.-14     	; 0x92 <__do_global_ctors+0x8>
      a0:	0e 94 2f 0e 	call	0x1c5e	; 0x1c5e <main>
      a4:	0c 94 3a 16 	jmp	0x2c74	; 0x2c74 <__do_global_dtors>

000000a8 <__bad_interrupt>:
      a8:	0c 94 00 00 	jmp	0	; 0x0 <__vectors>

000000ac <_Znwj>:
	return malloc(size);
}

void operator delete(void * ptr)
{
	free(ptr);
      ac:	0e 94 f5 14 	call	0x29ea	; 0x29ea <malloc>
      b0:	08 95       	ret

000000b2 <_ZdlPv>:
      b2:	0e 94 8a 15 	call	0x2b14	; 0x2b14 <free>
      b6:	08 95       	ret

000000b8 <__vector_19>:
      b8:	1f 92       	push	r1
      ba:	0f 92       	push	r0
      bc:	0f b6       	in	r0, 0x3f	; 63
      be:	0f 92       	push	r0
      c0:	11 24       	eor	r1, r1
      c2:	2f 93       	push	r18
      c4:	3f 93       	push	r19
      c6:	4f 93       	push	r20
      c8:	5f 93       	push	r21
      ca:	6f 93       	push	r22
      cc:	7f 93       	push	r23
      ce:	8f 93       	push	r24
      d0:	9f 93       	push	r25
      d2:	af 93       	push	r26
      d4:	bf 93       	push	r27
      d6:	ef 93       	push	r30
      d8:	ff 93       	push	r31
      da:	e0 91 6f 03 	lds	r30, 0x036F	; 0x80036f <_ZL11Taskmanager+0x10>
      de:	f0 e0       	ldi	r31, 0x00	; 0
      e0:	ee 0f       	add	r30, r30
      e2:	ff 1f       	adc	r31, r31
      e4:	e1 5a       	subi	r30, 0xA1	; 161
      e6:	fc 4f       	sbci	r31, 0xFC	; 252
      e8:	80 81       	ld	r24, Z
      ea:	91 81       	ldd	r25, Z+1	; 0x01
      ec:	00 97       	sbiw	r24, 0x00	; 0
      ee:	31 f0       	breq	.+12     	; 0xfc <__vector_19+0x44>
      f0:	dc 01       	movw	r26, r24
      f2:	12 96       	adiw	r26, 0x02	; 2
      f4:	ed 91       	ld	r30, X+
      f6:	fc 91       	ld	r31, X
      f8:	13 97       	sbiw	r26, 0x03	; 3
      fa:	09 95       	icall
      fc:	80 91 6f 03 	lds	r24, 0x036F	; 0x80036f <_ZL11Taskmanager+0x10>
     100:	8f 5f       	subi	r24, 0xFF	; 255
     102:	88 30       	cpi	r24, 0x08	; 8
     104:	18 f4       	brcc	.+6      	; 0x10c <__vector_19+0x54>
     106:	80 93 6f 03 	sts	0x036F, r24	; 0x80036f <_ZL11Taskmanager+0x10>
     10a:	02 c0       	rjmp	.+4      	; 0x110 <__vector_19+0x58>
     10c:	10 92 6f 03 	sts	0x036F, r1	; 0x80036f <_ZL11Taskmanager+0x10>
     110:	ff 91       	pop	r31
     112:	ef 91       	pop	r30
     114:	bf 91       	pop	r27
     116:	af 91       	pop	r26
     118:	9f 91       	pop	r25
     11a:	8f 91       	pop	r24
     11c:	7f 91       	pop	r23
     11e:	6f 91       	pop	r22
     120:	5f 91       	pop	r21
     122:	4f 91       	pop	r20
     124:	3f 91       	pop	r19
     126:	2f 91       	pop	r18
     128:	0f 90       	pop	r0
     12a:	0f be       	out	0x3f, r0	; 63
     12c:	0f 90       	pop	r0
     12e:	1f 90       	pop	r1
     130:	18 95       	reti

00000132 <_Z18NextCalibrateStagev>:
     132:	80 91 0e 03 	lds	r24, 0x030E	; 0x80030e <__data_end>
     136:	90 91 0f 03 	lds	r25, 0x030F	; 0x80030f <__data_end+0x1>
     13a:	81 30       	cpi	r24, 0x01	; 1
     13c:	91 05       	cpc	r25, r1
     13e:	b9 f0       	breq	.+46     	; 0x16e <_Z18NextCalibrateStagev+0x3c>
     140:	1c f4       	brge	.+6      	; 0x148 <_Z18NextCalibrateStagev+0x16>
     142:	89 2b       	or	r24, r25
     144:	39 f0       	breq	.+14     	; 0x154 <_Z18NextCalibrateStagev+0x22>
     146:	08 95       	ret
     148:	82 30       	cpi	r24, 0x02	; 2
     14a:	91 05       	cpc	r25, r1
     14c:	f1 f0       	breq	.+60     	; 0x18a <_Z18NextCalibrateStagev+0x58>
     14e:	03 97       	sbiw	r24, 0x03	; 3
     150:	69 f1       	breq	.+90     	; 0x1ac <_Z18NextCalibrateStagev+0x7a>
     152:	08 95       	ret
     154:	81 e0       	ldi	r24, 0x01	; 1
     156:	90 e0       	ldi	r25, 0x00	; 0
     158:	90 93 0f 03 	sts	0x030F, r25	; 0x80030f <__data_end+0x1>
     15c:	80 93 0e 03 	sts	0x030E, r24	; 0x80030e <__data_end>
     160:	ae 98       	cbi	0x15, 6	; 21
     162:	af 9a       	sbi	0x15, 7	; 21
     164:	8f ef       	ldi	r24, 0xFF	; 255
     166:	93 e0       	ldi	r25, 0x03	; 3
     168:	97 bd       	out	0x27, r25	; 39
     16a:	86 bd       	out	0x26, r24	; 38
     16c:	08 95       	ret
     16e:	af 98       	cbi	0x15, 7	; 21
     170:	ae 9a       	sbi	0x15, 6	; 21
     172:	ec e1       	ldi	r30, 0x1C	; 28
     174:	f3 e0       	ldi	r31, 0x03	; 3
     176:	14 82       	std	Z+4, r1	; 0x04
     178:	82 81       	ldd	r24, Z+2	; 0x02
     17a:	85 83       	std	Z+5, r24	; 0x05
     17c:	82 e0       	ldi	r24, 0x02	; 2
     17e:	90 e0       	ldi	r25, 0x00	; 0
     180:	90 93 0f 03 	sts	0x030F, r25	; 0x80030f <__data_end+0x1>
     184:	80 93 0e 03 	sts	0x030E, r24	; 0x80030e <__data_end>
     188:	08 95       	ret
     18a:	af 98       	cbi	0x15, 7	; 21
     18c:	ae 98       	cbi	0x15, 6	; 21
     18e:	83 e0       	ldi	r24, 0x03	; 3
     190:	90 e0       	ldi	r25, 0x00	; 0
     192:	90 93 0f 03 	sts	0x030F, r25	; 0x80030f <__data_end+0x1>
     196:	80 93 0e 03 	sts	0x030E, r24	; 0x80030e <__data_end>
     19a:	80 91 1c 03 	lds	r24, 0x031C	; 0x80031c <AS5048AChip>
     19e:	90 91 1d 03 	lds	r25, 0x031D	; 0x80031d <AS5048AChip+0x1>
     1a2:	90 93 5e 03 	sts	0x035E, r25	; 0x80035e <_ZL11RotateLimit+0x1>
     1a6:	80 93 5d 03 	sts	0x035D, r24	; 0x80035d <_ZL11RotateLimit>
     1aa:	08 95       	ret
     1ac:	10 92 0f 03 	sts	0x030F, r1	; 0x80030f <__data_end+0x1>
     1b0:	10 92 0e 03 	sts	0x030E, r1	; 0x80030e <__data_end>
     1b4:	08 95       	ret

000001b6 <_Z36ShiftRegisterToMjoyButtonsTranslatorv>:
     1b6:	85 b3       	in	r24, 0x15	; 21
     1b8:	8f 63       	ori	r24, 0x3F	; 63
     1ba:	85 bb       	out	0x15, r24	; 21
     1bc:	80 91 1a 03 	lds	r24, 0x031A	; 0x80031a <wheelButtons+0x6>
     1c0:	90 91 1b 03 	lds	r25, 0x031B	; 0x80031b <wheelButtons+0x7>
     1c4:	90 ff       	sbrs	r25, 0
     1c6:	08 c0       	rjmp	.+16     	; 0x1d8 <_Z36ShiftRegisterToMjoyButtonsTranslatorv+0x22>
     1c8:	81 e0       	ldi	r24, 0x01	; 1
     1ca:	90 e0       	ldi	r25, 0x00	; 0
     1cc:	90 93 0f 03 	sts	0x030F, r25	; 0x80030f <__data_end+0x1>
     1d0:	80 93 0e 03 	sts	0x030E, r24	; 0x80030e <__data_end>
     1d4:	0e 94 99 00 	call	0x132	; 0x132 <_Z18NextCalibrateStagev>
     1d8:	80 91 1a 03 	lds	r24, 0x031A	; 0x80031a <wheelButtons+0x6>
     1dc:	90 91 1b 03 	lds	r25, 0x031B	; 0x80031b <wheelButtons+0x7>
     1e0:	87 ff       	sbrs	r24, 7
     1e2:	08 c0       	rjmp	.+16     	; 0x1f4 <_Z36ShiftRegisterToMjoyButtonsTranslatorv+0x3e>
     1e4:	82 e0       	ldi	r24, 0x02	; 2
     1e6:	90 e0       	ldi	r25, 0x00	; 0
     1e8:	90 93 0f 03 	sts	0x030F, r25	; 0x80030f <__data_end+0x1>
     1ec:	80 93 0e 03 	sts	0x030E, r24	; 0x80030e <__data_end>
     1f0:	0e 94 99 00 	call	0x132	; 0x132 <_Z18NextCalibrateStagev>
     1f4:	80 91 1a 03 	lds	r24, 0x031A	; 0x80031a <wheelButtons+0x6>
     1f8:	90 91 1b 03 	lds	r25, 0x031B	; 0x80031b <wheelButtons+0x7>
     1fc:	93 fd       	sbrc	r25, 3
     1fe:	a8 98       	cbi	0x15, 0	; 21
     200:	80 91 1a 03 	lds	r24, 0x031A	; 0x80031a <wheelButtons+0x6>
     204:	90 91 1b 03 	lds	r25, 0x031B	; 0x80031b <wheelButtons+0x7>
     208:	99 23       	and	r25, r25
     20a:	0c f4       	brge	.+2      	; 0x20e <_Z36ShiftRegisterToMjoyButtonsTranslatorv+0x58>
     20c:	a9 98       	cbi	0x15, 1	; 21
     20e:	80 91 1a 03 	lds	r24, 0x031A	; 0x80031a <wheelButtons+0x6>
     212:	90 91 1b 03 	lds	r25, 0x031B	; 0x80031b <wheelButtons+0x7>
     216:	96 fd       	sbrc	r25, 6
     218:	aa 98       	cbi	0x15, 2	; 21
     21a:	80 91 1a 03 	lds	r24, 0x031A	; 0x80031a <wheelButtons+0x6>
     21e:	90 91 1b 03 	lds	r25, 0x031B	; 0x80031b <wheelButtons+0x7>
     222:	95 fd       	sbrc	r25, 5
     224:	ab 98       	cbi	0x15, 3	; 21
     226:	80 91 1a 03 	lds	r24, 0x031A	; 0x80031a <wheelButtons+0x6>
     22a:	90 91 1b 03 	lds	r25, 0x031B	; 0x80031b <wheelButtons+0x7>
     22e:	91 fd       	sbrc	r25, 1
     230:	ac 98       	cbi	0x15, 4	; 21
     232:	80 91 1a 03 	lds	r24, 0x031A	; 0x80031a <wheelButtons+0x6>
     236:	90 91 1b 03 	lds	r25, 0x031B	; 0x80031b <wheelButtons+0x7>
     23a:	85 fd       	sbrc	r24, 5
     23c:	ad 98       	cbi	0x15, 5	; 21
     23e:	08 95       	ret

00000240 <_Z12KeyboardTaskP4Task>:
     240:	0f 93       	push	r16
     242:	1f 93       	push	r17
     244:	cf 93       	push	r28
     246:	df 93       	push	r29
     248:	c4 e1       	ldi	r28, 0x14	; 20
     24a:	d3 e0       	ldi	r29, 0x03	; 3
     24c:	8a 81       	ldd	r24, Y+2	; 0x02
     24e:	9b 81       	ldd	r25, Y+3	; 0x03
     250:	dc 01       	movw	r26, r24
     252:	ed 91       	ld	r30, X+
     254:	fc 91       	ld	r31, X
     256:	06 84       	ldd	r0, Z+14	; 0x0e
     258:	f7 85       	ldd	r31, Z+15	; 0x0f
     25a:	e0 2d       	mov	r30, r0
     25c:	09 95       	icall
     25e:	8a 81       	ldd	r24, Y+2	; 0x02
     260:	9b 81       	ldd	r25, Y+3	; 0x03
     262:	dc 01       	movw	r26, r24
     264:	ed 91       	ld	r30, X+
     266:	fc 91       	ld	r31, X
     268:	00 88       	ldd	r0, Z+16	; 0x10
     26a:	f1 89       	ldd	r31, Z+17	; 0x11
     26c:	e0 2d       	mov	r30, r0
     26e:	09 95       	icall
     270:	81 e0       	ldi	r24, 0x01	; 1
     272:	90 e0       	ldi	r25, 0x00	; 0
     274:	9f 83       	std	Y+7, r25	; 0x07
     276:	8e 83       	std	Y+6, r24	; 0x06
     278:	07 e1       	ldi	r16, 0x17	; 23
     27a:	10 e0       	ldi	r17, 0x00	; 0
     27c:	88 81       	ld	r24, Y
     27e:	99 81       	ldd	r25, Y+1	; 0x01
     280:	dc 01       	movw	r26, r24
     282:	ed 91       	ld	r30, X+
     284:	fc 91       	ld	r31, X
     286:	00 88       	ldd	r0, Z+16	; 0x10
     288:	f1 89       	ldd	r31, Z+17	; 0x11
     28a:	e0 2d       	mov	r30, r0
     28c:	09 95       	icall
     28e:	8e 81       	ldd	r24, Y+6	; 0x06
     290:	9f 81       	ldd	r25, Y+7	; 0x07
     292:	88 0f       	add	r24, r24
     294:	99 1f       	adc	r25, r25
     296:	9f 83       	std	Y+7, r25	; 0x07
     298:	8e 83       	std	Y+6, r24	; 0x06
     29a:	8c 81       	ldd	r24, Y+4	; 0x04
     29c:	9d 81       	ldd	r25, Y+5	; 0x05
     29e:	dc 01       	movw	r26, r24
     2a0:	ed 91       	ld	r30, X+
     2a2:	fc 91       	ld	r31, X
     2a4:	04 84       	ldd	r0, Z+12	; 0x0c
     2a6:	f5 85       	ldd	r31, Z+13	; 0x0d
     2a8:	e0 2d       	mov	r30, r0
     2aa:	09 95       	icall
     2ac:	81 11       	cpse	r24, r1
     2ae:	05 c0       	rjmp	.+10     	; 0x2ba <_Z12KeyboardTaskP4Task+0x7a>
     2b0:	8e 81       	ldd	r24, Y+6	; 0x06
     2b2:	9f 81       	ldd	r25, Y+7	; 0x07
     2b4:	01 96       	adiw	r24, 0x01	; 1
     2b6:	9f 83       	std	Y+7, r25	; 0x07
     2b8:	8e 83       	std	Y+6, r24	; 0x06
     2ba:	88 81       	ld	r24, Y
     2bc:	99 81       	ldd	r25, Y+1	; 0x01
     2be:	dc 01       	movw	r26, r24
     2c0:	ed 91       	ld	r30, X+
     2c2:	fc 91       	ld	r31, X
     2c4:	06 84       	ldd	r0, Z+14	; 0x0e
     2c6:	f7 85       	ldd	r31, Z+15	; 0x0f
     2c8:	e0 2d       	mov	r30, r0
     2ca:	09 95       	icall
     2cc:	01 50       	subi	r16, 0x01	; 1
     2ce:	11 09       	sbc	r17, r1
     2d0:	a9 f6       	brne	.-86     	; 0x27c <_Z12KeyboardTaskP4Task+0x3c>
     2d2:	80 91 1a 03 	lds	r24, 0x031A	; 0x80031a <wheelButtons+0x6>
     2d6:	90 91 1b 03 	lds	r25, 0x031B	; 0x80031b <wheelButtons+0x7>
     2da:	0e 94 db 00 	call	0x1b6	; 0x1b6 <_Z36ShiftRegisterToMjoyButtonsTranslatorv>
     2de:	df 91       	pop	r29
     2e0:	cf 91       	pop	r28
     2e2:	1f 91       	pop	r17
     2e4:	0f 91       	pop	r16
     2e6:	08 95       	ret

000002e8 <_Z13RegisterTasksv>:
     2e8:	08 95       	ret

000002ea <_Z13PWMInitializev>:
     2ea:	8d 9a       	sbi	0x11, 5	; 17
     2ec:	8e b5       	in	r24, 0x2e	; 46
     2ee:	87 7e       	andi	r24, 0xE7	; 231
     2f0:	8e bd       	out	0x2e, r24	; 46
     2f2:	8f b5       	in	r24, 0x2f	; 47
     2f4:	8c 7f       	andi	r24, 0xFC	; 252
     2f6:	8f bd       	out	0x2f, r24	; 47
     2f8:	8f b5       	in	r24, 0x2f	; 47
     2fa:	82 60       	ori	r24, 0x02	; 2
     2fc:	8f bd       	out	0x2f, r24	; 47
     2fe:	8e b5       	in	r24, 0x2e	; 46
     300:	80 61       	ori	r24, 0x10	; 16
     302:	8e bd       	out	0x2e, r24	; 46
     304:	8f b5       	in	r24, 0x2f	; 47
     306:	80 68       	ori	r24, 0x80	; 128
     308:	8f bd       	out	0x2f, r24	; 47
     30a:	8e b5       	in	r24, 0x2e	; 46
     30c:	88 7f       	andi	r24, 0xF8	; 248
     30e:	8e bd       	out	0x2e, r24	; 46
     310:	8e b5       	in	r24, 0x2e	; 46
     312:	81 60       	ori	r24, 0x01	; 1
     314:	8e bd       	out	0x2e, r24	; 46
     316:	8f ef       	ldi	r24, 0xFF	; 255
     318:	9f ef       	ldi	r25, 0xFF	; 255
     31a:	97 bd       	out	0x27, r25	; 39
     31c:	86 bd       	out	0x26, r24	; 38
     31e:	1b bc       	out	0x2b, r1	; 43
     320:	1a bc       	out	0x2a, r1	; 42
     322:	08 95       	ret

00000324 <_Z10ComputePWMv>:
     324:	8f 92       	push	r8
     326:	9f 92       	push	r9
     328:	af 92       	push	r10
     32a:	bf 92       	push	r11
     32c:	cf 92       	push	r12
     32e:	df 92       	push	r13
     330:	ef 92       	push	r14
     332:	ff 92       	push	r15
     334:	0f 93       	push	r16
     336:	1f 93       	push	r17
     338:	cf 93       	push	r28
     33a:	df 93       	push	r29
     33c:	cc e1       	ldi	r28, 0x1C	; 28
     33e:	d3 e0       	ldi	r29, 0x03	; 3
     340:	88 85       	ldd	r24, Y+8	; 0x08
     342:	99 85       	ldd	r25, Y+9	; 0x09
     344:	dc 01       	movw	r26, r24
     346:	ed 91       	ld	r30, X+
     348:	fc 91       	ld	r31, X
     34a:	00 88       	ldd	r0, Z+16	; 0x10
     34c:	f1 89       	ldd	r31, Z+17	; 0x11
     34e:	e0 2d       	mov	r30, r0
     350:	09 95       	icall
     352:	8a 81       	ldd	r24, Y+2	; 0x02
     354:	8b 83       	std	Y+3, r24	; 0x03
     356:	8f ef       	ldi	r24, 0xFF	; 255
     358:	8f b9       	out	0x0f, r24	; 15
     35a:	77 9b       	sbis	0x0e, 7	; 14
     35c:	fe cf       	rjmp	.-4      	; 0x35a <_Z10ComputePWMv+0x36>
     35e:	8f b1       	in	r24, 0x0f	; 15
     360:	90 e0       	ldi	r25, 0x00	; 0
     362:	88 0f       	add	r24, r24
     364:	99 1f       	adc	r25, r25
     366:	88 0f       	add	r24, r24
     368:	99 1f       	adc	r25, r25
     36a:	88 0f       	add	r24, r24
     36c:	99 1f       	adc	r25, r25
     36e:	80 93 1e 03 	sts	0x031E, r24	; 0x80031e <AS5048AChip+0x2>
     372:	8f ef       	ldi	r24, 0xFF	; 255
     374:	8f b9       	out	0x0f, r24	; 15
     376:	77 9b       	sbis	0x0e, 7	; 14
     378:	fe cf       	rjmp	.-4      	; 0x376 <_Z10ComputePWMv+0x52>
     37a:	8f b1       	in	r24, 0x0f	; 15
     37c:	cc e1       	ldi	r28, 0x1C	; 28
     37e:	d3 e0       	ldi	r29, 0x03	; 3
     380:	90 e0       	ldi	r25, 0x00	; 0
     382:	95 95       	asr	r25
     384:	87 95       	ror	r24
     386:	95 95       	asr	r25
     388:	87 95       	ror	r24
     38a:	95 95       	asr	r25
     38c:	87 95       	ror	r24
     38e:	95 95       	asr	r25
     390:	87 95       	ror	r24
     392:	95 95       	asr	r25
     394:	87 95       	ror	r24
     396:	2a 81       	ldd	r18, Y+2	; 0x02
     398:	82 2b       	or	r24, r18
     39a:	8a 83       	std	Y+2, r24	; 0x02
     39c:	88 85       	ldd	r24, Y+8	; 0x08
     39e:	99 85       	ldd	r25, Y+9	; 0x09
     3a0:	dc 01       	movw	r26, r24
     3a2:	ed 91       	ld	r30, X+
     3a4:	fc 91       	ld	r31, X
     3a6:	06 84       	ldd	r0, Z+14	; 0x0e
     3a8:	f7 85       	ldd	r31, Z+15	; 0x0f
     3aa:	e0 2d       	mov	r30, r0
     3ac:	09 95       	icall
     3ae:	8b 81       	ldd	r24, Y+3	; 0x03
     3b0:	81 3c       	cpi	r24, 0xC1	; 193
     3b2:	38 f0       	brcs	.+14     	; 0x3c2 <_Z10ComputePWMv+0x9e>
     3b4:	90 91 1e 03 	lds	r25, 0x031E	; 0x80031e <AS5048AChip+0x2>
     3b8:	9f 33       	cpi	r25, 0x3F	; 63
     3ba:	18 f4       	brcc	.+6      	; 0x3c2 <_Z10ComputePWMv+0x9e>
     3bc:	9c 81       	ldd	r25, Y+4	; 0x04
     3be:	9f 5f       	subi	r25, 0xFF	; 255
     3c0:	9c 83       	std	Y+4, r25	; 0x04
     3c2:	60 91 1e 03 	lds	r22, 0x031E	; 0x80031e <AS5048AChip+0x2>
     3c6:	61 3c       	cpi	r22, 0xC1	; 193
     3c8:	38 f0       	brcs	.+14     	; 0x3d8 <_Z10ComputePWMv+0xb4>
     3ca:	8f 33       	cpi	r24, 0x3F	; 63
     3cc:	28 f4       	brcc	.+10     	; 0x3d8 <_Z10ComputePWMv+0xb4>
     3ce:	ec e1       	ldi	r30, 0x1C	; 28
     3d0:	f3 e0       	ldi	r31, 0x03	; 3
     3d2:	84 81       	ldd	r24, Z+4	; 0x04
     3d4:	81 50       	subi	r24, 0x01	; 1
     3d6:	84 83       	std	Z+4, r24	; 0x04
     3d8:	ec e1       	ldi	r30, 0x1C	; 28
     3da:	f3 e0       	ldi	r31, 0x03	; 3
     3dc:	84 81       	ldd	r24, Z+4	; 0x04
     3de:	70 e0       	ldi	r23, 0x00	; 0
     3e0:	78 2b       	or	r23, r24
     3e2:	85 81       	ldd	r24, Z+5	; 0x05
     3e4:	eb 01       	movw	r28, r22
     3e6:	c8 1b       	sub	r28, r24
     3e8:	d1 09       	sbc	r29, r1
     3ea:	d1 83       	std	Z+1, r29	; 0x01
     3ec:	c0 83       	st	Z, r28
     3ee:	80 91 5d 03 	lds	r24, 0x035D	; 0x80035d <_ZL11RotateLimit>
     3f2:	90 91 5e 03 	lds	r25, 0x035E	; 0x80035e <_ZL11RotateLimit+0x1>
     3f6:	8c 17       	cp	r24, r28
     3f8:	9d 07       	cpc	r25, r29
     3fa:	40 f1       	brcs	.+80     	; 0x44c <__LOCK_REGION_LENGTH__+0x4c>
     3fc:	66 b5       	in	r22, 0x26	; 38
     3fe:	77 b5       	in	r23, 0x27	; 39
     400:	00 91 5d 03 	lds	r16, 0x035D	; 0x80035d <_ZL11RotateLimit>
     404:	10 91 5e 03 	lds	r17, 0x035E	; 0x80035e <_ZL11RotateLimit+0x1>
     408:	80 e0       	ldi	r24, 0x00	; 0
     40a:	90 e0       	ldi	r25, 0x00	; 0
     40c:	0e 94 f4 13 	call	0x27e8	; 0x27e8 <__floatunsisf>
     410:	6b 01       	movw	r12, r22
     412:	7c 01       	movw	r14, r24
     414:	be 01       	movw	r22, r28
     416:	80 e0       	ldi	r24, 0x00	; 0
     418:	90 e0       	ldi	r25, 0x00	; 0
     41a:	0e 94 f4 13 	call	0x27e8	; 0x27e8 <__floatunsisf>
     41e:	4b 01       	movw	r8, r22
     420:	5c 01       	movw	r10, r24
     422:	b8 01       	movw	r22, r16
     424:	80 e0       	ldi	r24, 0x00	; 0
     426:	90 e0       	ldi	r25, 0x00	; 0
     428:	0e 94 f4 13 	call	0x27e8	; 0x27e8 <__floatunsisf>
     42c:	9b 01       	movw	r18, r22
     42e:	ac 01       	movw	r20, r24
     430:	c5 01       	movw	r24, r10
     432:	b4 01       	movw	r22, r8
     434:	0e 94 53 13 	call	0x26a6	; 0x26a6 <__divsf3>
     438:	9b 01       	movw	r18, r22
     43a:	ac 01       	movw	r20, r24
     43c:	c7 01       	movw	r24, r14
     43e:	b6 01       	movw	r22, r12
     440:	0e 94 82 14 	call	0x2904	; 0x2904 <__mulsf3>
     444:	0e 94 c5 13 	call	0x278a	; 0x278a <__fixunssfsi>
     448:	7b bd       	out	0x2b, r23	; 43
     44a:	6a bd       	out	0x2a, r22	; 42
     44c:	df 91       	pop	r29
     44e:	cf 91       	pop	r28
     450:	1f 91       	pop	r17
     452:	0f 91       	pop	r16
     454:	ff 90       	pop	r15
     456:	ef 90       	pop	r14
     458:	df 90       	pop	r13
     45a:	cf 90       	pop	r12
     45c:	bf 90       	pop	r11
     45e:	af 90       	pop	r10
     460:	9f 90       	pop	r9
     462:	8f 90       	pop	r8
     464:	08 95       	ret

00000466 <_Z15InitializePortsv>:
     466:	8f ef       	ldi	r24, 0xFF	; 255
     468:	8a bb       	out	0x1a, r24	; 26
     46a:	84 bb       	out	0x14, r24	; 20
     46c:	81 bb       	out	0x11, r24	; 17
     46e:	87 bb       	out	0x17, r24	; 23
     470:	88 bb       	out	0x18, r24	; 24
     472:	85 bb       	out	0x15, r24	; 21
     474:	82 bb       	out	0x12, r24	; 18
     476:	a7 9a       	sbi	0x14, 7	; 20
     478:	a6 9a       	sbi	0x14, 6	; 20
     47a:	08 95       	ret

0000047c <_Z17InitializeProgramv>:
     47c:	0f 93       	push	r16
     47e:	1f 93       	push	r17
     480:	cf 93       	push	r28
     482:	df 93       	push	r29
     484:	0e 94 33 02 	call	0x466	; 0x466 <_Z15InitializePortsv>
     488:	cc e2       	ldi	r28, 0x2C	; 44
     48a:	d3 e0       	ldi	r29, 0x03	; 3
     48c:	8e 81       	ldd	r24, Y+6	; 0x06
     48e:	9f 81       	ldd	r25, Y+7	; 0x07
     490:	dc 01       	movw	r26, r24
     492:	ed 91       	ld	r30, X+
     494:	fc 91       	ld	r31, X
     496:	00 88       	ldd	r0, Z+16	; 0x10
     498:	f1 89       	ldd	r31, Z+17	; 0x11
     49a:	e0 2d       	mov	r30, r0
     49c:	09 95       	icall
     49e:	8a 81       	ldd	r24, Y+2	; 0x02
     4a0:	9b 81       	ldd	r25, Y+3	; 0x03
     4a2:	dc 01       	movw	r26, r24
     4a4:	ed 91       	ld	r30, X+
     4a6:	fc 91       	ld	r31, X
     4a8:	04 88       	ldd	r0, Z+20	; 0x14
     4aa:	f5 89       	ldd	r31, Z+21	; 0x15
     4ac:	e0 2d       	mov	r30, r0
     4ae:	09 95       	icall
     4b0:	88 81       	ld	r24, Y
     4b2:	99 81       	ldd	r25, Y+1	; 0x01
     4b4:	dc 01       	movw	r26, r24
     4b6:	ed 91       	ld	r30, X+
     4b8:	fc 91       	ld	r31, X
     4ba:	04 88       	ldd	r0, Z+20	; 0x14
     4bc:	f5 89       	ldd	r31, Z+21	; 0x15
     4be:	e0 2d       	mov	r30, r0
     4c0:	09 95       	icall
     4c2:	8e 81       	ldd	r24, Y+6	; 0x06
     4c4:	9f 81       	ldd	r25, Y+7	; 0x07
     4c6:	dc 01       	movw	r26, r24
     4c8:	ed 91       	ld	r30, X+
     4ca:	fc 91       	ld	r31, X
     4cc:	04 88       	ldd	r0, Z+20	; 0x14
     4ce:	f5 89       	ldd	r31, Z+21	; 0x15
     4d0:	e0 2d       	mov	r30, r0
     4d2:	09 95       	icall
     4d4:	8a 85       	ldd	r24, Y+10	; 0x0a
     4d6:	9b 85       	ldd	r25, Y+11	; 0x0b
     4d8:	dc 01       	movw	r26, r24
     4da:	ed 91       	ld	r30, X+
     4dc:	fc 91       	ld	r31, X
     4de:	06 88       	ldd	r0, Z+22	; 0x16
     4e0:	f7 89       	ldd	r31, Z+23	; 0x17
     4e2:	e0 2d       	mov	r30, r0
     4e4:	09 95       	icall
     4e6:	8c 81       	ldd	r24, Y+4	; 0x04
     4e8:	9d 81       	ldd	r25, Y+5	; 0x05
     4ea:	dc 01       	movw	r26, r24
     4ec:	ed 91       	ld	r30, X+
     4ee:	fc 91       	ld	r31, X
     4f0:	04 88       	ldd	r0, Z+20	; 0x14
     4f2:	f5 89       	ldd	r31, Z+21	; 0x15
     4f4:	e0 2d       	mov	r30, r0
     4f6:	09 95       	icall
     4f8:	88 85       	ldd	r24, Y+8	; 0x08
     4fa:	99 85       	ldd	r25, Y+9	; 0x09
     4fc:	dc 01       	movw	r26, r24
     4fe:	ed 91       	ld	r30, X+
     500:	fc 91       	ld	r31, X
     502:	04 88       	ldd	r0, Z+20	; 0x14
     504:	f5 89       	ldd	r31, Z+21	; 0x15
     506:	e0 2d       	mov	r30, r0
     508:	09 95       	icall
     50a:	8c 85       	ldd	r24, Y+12	; 0x0c
     50c:	9d 85       	ldd	r25, Y+13	; 0x0d
     50e:	dc 01       	movw	r26, r24
     510:	ed 91       	ld	r30, X+
     512:	fc 91       	ld	r31, X
     514:	04 88       	ldd	r0, Z+20	; 0x14
     516:	f5 89       	ldd	r31, Z+21	; 0x15
     518:	e0 2d       	mov	r30, r0
     51a:	09 95       	icall
     51c:	8e 81       	ldd	r24, Y+6	; 0x06
     51e:	9f 81       	ldd	r25, Y+7	; 0x07
     520:	dc 01       	movw	r26, r24
     522:	ed 91       	ld	r30, X+
     524:	fc 91       	ld	r31, X
     526:	00 88       	ldd	r0, Z+16	; 0x10
     528:	f1 89       	ldd	r31, Z+17	; 0x11
     52a:	e0 2d       	mov	r30, r0
     52c:	09 95       	icall
     52e:	8a 81       	ldd	r24, Y+2	; 0x02
     530:	9b 81       	ldd	r25, Y+3	; 0x03
     532:	dc 01       	movw	r26, r24
     534:	ed 91       	ld	r30, X+
     536:	fc 91       	ld	r31, X
     538:	06 84       	ldd	r0, Z+14	; 0x0e
     53a:	f7 85       	ldd	r31, Z+15	; 0x0f
     53c:	e0 2d       	mov	r30, r0
     53e:	09 95       	icall
     540:	bf ef       	ldi	r27, 0xFF	; 255
     542:	20 e7       	ldi	r18, 0x70	; 112
     544:	82 e0       	ldi	r24, 0x02	; 2
     546:	b1 50       	subi	r27, 0x01	; 1
     548:	20 40       	sbci	r18, 0x00	; 0
     54a:	80 40       	sbci	r24, 0x00	; 0
     54c:	e1 f7       	brne	.-8      	; 0x546 <_Z17InitializeProgramv+0xca>
     54e:	00 c0       	rjmp	.+0      	; 0x550 <_Z17InitializeProgramv+0xd4>
     550:	00 00       	nop
     552:	8a 81       	ldd	r24, Y+2	; 0x02
     554:	9b 81       	ldd	r25, Y+3	; 0x03
     556:	dc 01       	movw	r26, r24
     558:	ed 91       	ld	r30, X+
     55a:	fc 91       	ld	r31, X
     55c:	00 88       	ldd	r0, Z+16	; 0x10
     55e:	f1 89       	ldd	r31, Z+17	; 0x11
     560:	e0 2d       	mov	r30, r0
     562:	09 95       	icall
     564:	bf ef       	ldi	r27, 0xFF	; 255
     566:	20 e7       	ldi	r18, 0x70	; 112
     568:	82 e0       	ldi	r24, 0x02	; 2
     56a:	b1 50       	subi	r27, 0x01	; 1
     56c:	20 40       	sbci	r18, 0x00	; 0
     56e:	80 40       	sbci	r24, 0x00	; 0
     570:	e1 f7       	brne	.-8      	; 0x56a <_Z17InitializeProgramv+0xee>
     572:	00 c0       	rjmp	.+0      	; 0x574 <_Z17InitializeProgramv+0xf8>
     574:	00 00       	nop
     576:	8a 81       	ldd	r24, Y+2	; 0x02
     578:	9b 81       	ldd	r25, Y+3	; 0x03
     57a:	dc 01       	movw	r26, r24
     57c:	ed 91       	ld	r30, X+
     57e:	fc 91       	ld	r31, X
     580:	06 84       	ldd	r0, Z+14	; 0x0e
     582:	f7 85       	ldd	r31, Z+15	; 0x0f
     584:	e0 2d       	mov	r30, r0
     586:	09 95       	icall
     588:	1d b8       	out	0x0d, r1	; 13
     58a:	6c 9a       	sbi	0x0d, 4	; 13
     58c:	6e 9a       	sbi	0x0d, 6	; 13
     58e:	8e b1       	in	r24, 0x0e	; 14
     590:	8e b9       	out	0x0e, r24	; 14
     592:	88 81       	ld	r24, Y
     594:	99 81       	ldd	r25, Y+1	; 0x01
     596:	dc 01       	movw	r26, r24
     598:	ed 91       	ld	r30, X+
     59a:	fc 91       	ld	r31, X
     59c:	00 88       	ldd	r0, Z+16	; 0x10
     59e:	f1 89       	ldd	r31, Z+17	; 0x11
     5a0:	e0 2d       	mov	r30, r0
     5a2:	09 95       	icall
     5a4:	8e 89       	ldd	r24, Y+22	; 0x16
     5a6:	8f b9       	out	0x0f, r24	; 15
     5a8:	77 9b       	sbis	0x0e, 7	; 14
     5aa:	fe cf       	rjmp	.-4      	; 0x5a8 <_Z17InitializeProgramv+0x12c>
     5ac:	80 91 49 03 	lds	r24, 0x0349	; 0x800349 <debugDisplay+0x1d>
     5b0:	8f b9       	out	0x0f, r24	; 15
     5b2:	77 9b       	sbis	0x0e, 7	; 14
     5b4:	fe cf       	rjmp	.-4      	; 0x5b2 <_Z17InitializeProgramv+0x136>
     5b6:	8f e3       	ldi	r24, 0x3F	; 63
     5b8:	8f b9       	out	0x0f, r24	; 15
     5ba:	77 9b       	sbis	0x0e, 7	; 14
     5bc:	fe cf       	rjmp	.-4      	; 0x5ba <_Z17InitializeProgramv+0x13e>
     5be:	80 91 4c 03 	lds	r24, 0x034C	; 0x80034c <debugDisplay+0x20>
     5c2:	8f b9       	out	0x0f, r24	; 15
     5c4:	77 9b       	sbis	0x0e, 7	; 14
     5c6:	fe cf       	rjmp	.-4      	; 0x5c4 <_Z17InitializeProgramv+0x148>
     5c8:	80 91 4f 03 	lds	r24, 0x034F	; 0x80034f <debugDisplay+0x23>
     5cc:	8f b9       	out	0x0f, r24	; 15
     5ce:	77 9b       	sbis	0x0e, 7	; 14
     5d0:	fe cf       	rjmp	.-4      	; 0x5ce <_Z17InitializeProgramv+0x152>
     5d2:	80 91 4a 03 	lds	r24, 0x034A	; 0x80034a <debugDisplay+0x1e>
     5d6:	82 60       	ori	r24, 0x02	; 2
     5d8:	8f b9       	out	0x0f, r24	; 15
     5da:	77 9b       	sbis	0x0e, 7	; 14
     5dc:	fe cf       	rjmp	.-4      	; 0x5da <_Z17InitializeProgramv+0x15e>
     5de:	80 91 4b 03 	lds	r24, 0x034B	; 0x80034b <debugDisplay+0x1f>
     5e2:	8f b9       	out	0x0f, r24	; 15
     5e4:	77 9b       	sbis	0x0e, 7	; 14
     5e6:	fe cf       	rjmp	.-4      	; 0x5e4 <_Z17InitializeProgramv+0x168>
     5e8:	80 91 52 03 	lds	r24, 0x0352	; 0x800352 <debugDisplay+0x26>
     5ec:	81 60       	ori	r24, 0x01	; 1
     5ee:	8f b9       	out	0x0f, r24	; 15
     5f0:	77 9b       	sbis	0x0e, 7	; 14
     5f2:	fe cf       	rjmp	.-4      	; 0x5f0 <_Z17InitializeProgramv+0x174>
     5f4:	80 91 40 03 	lds	r24, 0x0340	; 0x800340 <debugDisplay+0x14>
     5f8:	8f b9       	out	0x0f, r24	; 15
     5fa:	77 9b       	sbis	0x0e, 7	; 14
     5fc:	fe cf       	rjmp	.-4      	; 0x5fa <_Z17InitializeProgramv+0x17e>
     5fe:	80 91 53 03 	lds	r24, 0x0353	; 0x800353 <debugDisplay+0x27>
     602:	8f b9       	out	0x0f, r24	; 15
     604:	77 9b       	sbis	0x0e, 7	; 14
     606:	fe cf       	rjmp	.-4      	; 0x604 <_Z17InitializeProgramv+0x188>
     608:	80 91 4d 03 	lds	r24, 0x034D	; 0x80034d <debugDisplay+0x21>
     60c:	8f b9       	out	0x0f, r24	; 15
     60e:	77 9b       	sbis	0x0e, 7	; 14
     610:	fe cf       	rjmp	.-4      	; 0x60e <_Z17InitializeProgramv+0x192>
     612:	1f b8       	out	0x0f, r1	; 15
     614:	77 9b       	sbis	0x0e, 7	; 14
     616:	fe cf       	rjmp	.-4      	; 0x614 <_Z17InitializeProgramv+0x198>
     618:	80 91 54 03 	lds	r24, 0x0354	; 0x800354 <debugDisplay+0x28>
     61c:	8f b9       	out	0x0f, r24	; 15
     61e:	77 9b       	sbis	0x0e, 7	; 14
     620:	fe cf       	rjmp	.-4      	; 0x61e <_Z17InitializeProgramv+0x1a2>
     622:	81 e3       	ldi	r24, 0x31	; 49
     624:	8f b9       	out	0x0f, r24	; 15
     626:	77 9b       	sbis	0x0e, 7	; 14
     628:	fe cf       	rjmp	.-4      	; 0x626 <_Z17InitializeProgramv+0x1aa>
     62a:	8f e3       	ldi	r24, 0x3F	; 63
     62c:	9c e9       	ldi	r25, 0x9C	; 156
     62e:	01 97       	sbiw	r24, 0x01	; 1
     630:	f1 f7       	brne	.-4      	; 0x62e <_Z17InitializeProgramv+0x1b2>
     632:	00 c0       	rjmp	.+0      	; 0x634 <_Z17InitializeProgramv+0x1b8>
     634:	00 00       	nop
     636:	80 91 51 03 	lds	r24, 0x0351	; 0x800351 <debugDisplay+0x25>
     63a:	8f b9       	out	0x0f, r24	; 15
     63c:	77 9b       	sbis	0x0e, 7	; 14
     63e:	fe cf       	rjmp	.-4      	; 0x63c <_Z17InitializeProgramv+0x1c0>
     640:	80 91 44 03 	lds	r24, 0x0344	; 0x800344 <debugDisplay+0x18>
     644:	8f b9       	out	0x0f, r24	; 15
     646:	77 9b       	sbis	0x0e, 7	; 14
     648:	fe cf       	rjmp	.-4      	; 0x646 <_Z17InitializeProgramv+0x1ca>
     64a:	1f b8       	out	0x0f, r1	; 15
     64c:	77 9b       	sbis	0x0e, 7	; 14
     64e:	fe cf       	rjmp	.-4      	; 0x64c <_Z17InitializeProgramv+0x1d0>
     650:	80 91 47 03 	lds	r24, 0x0347	; 0x800347 <debugDisplay+0x1b>
     654:	8f b9       	out	0x0f, r24	; 15
     656:	77 9b       	sbis	0x0e, 7	; 14
     658:	fe cf       	rjmp	.-4      	; 0x656 <_Z17InitializeProgramv+0x1da>
     65a:	80 91 3c 03 	lds	r24, 0x033C	; 0x80033c <debugDisplay+0x10>
     65e:	8f b9       	out	0x0f, r24	; 15
     660:	77 9b       	sbis	0x0e, 7	; 14
     662:	fe cf       	rjmp	.-4      	; 0x660 <_Z17InitializeProgramv+0x1e4>
     664:	80 91 48 03 	lds	r24, 0x0348	; 0x800348 <debugDisplay+0x1c>
     668:	8f b9       	out	0x0f, r24	; 15
     66a:	77 9b       	sbis	0x0e, 7	; 14
     66c:	fe cf       	rjmp	.-4      	; 0x66a <_Z17InitializeProgramv+0x1ee>
     66e:	8f e1       	ldi	r24, 0x1F	; 31
     670:	8f b9       	out	0x0f, r24	; 15
     672:	77 9b       	sbis	0x0e, 7	; 14
     674:	fe cf       	rjmp	.-4      	; 0x672 <_Z17InitializeProgramv+0x1f6>
     676:	80 91 45 03 	lds	r24, 0x0345	; 0x800345 <debugDisplay+0x19>
     67a:	8f b9       	out	0x0f, r24	; 15
     67c:	77 9b       	sbis	0x0e, 7	; 14
     67e:	fe cf       	rjmp	.-4      	; 0x67c <_Z17InitializeProgramv+0x200>
     680:	82 e1       	ldi	r24, 0x12	; 18
     682:	8f b9       	out	0x0f, r24	; 15
     684:	77 9b       	sbis	0x0e, 7	; 14
     686:	fe cf       	rjmp	.-4      	; 0x684 <_Z17InitializeProgramv+0x208>
     688:	80 91 46 03 	lds	r24, 0x0346	; 0x800346 <debugDisplay+0x1a>
     68c:	8f b9       	out	0x0f, r24	; 15
     68e:	77 9b       	sbis	0x0e, 7	; 14
     690:	fe cf       	rjmp	.-4      	; 0x68e <_Z17InitializeProgramv+0x212>
     692:	80 e4       	ldi	r24, 0x40	; 64
     694:	8f b9       	out	0x0f, r24	; 15
     696:	77 9b       	sbis	0x0e, 7	; 14
     698:	fe cf       	rjmp	.-4      	; 0x696 <_Z17InitializeProgramv+0x21a>
     69a:	80 91 3d 03 	lds	r24, 0x033D	; 0x80033d <debugDisplay+0x11>
     69e:	8f b9       	out	0x0f, r24	; 15
     6a0:	77 9b       	sbis	0x0e, 7	; 14
     6a2:	fe cf       	rjmp	.-4      	; 0x6a0 <_Z17InitializeProgramv+0x224>
     6a4:	8f ef       	ldi	r24, 0xFF	; 255
     6a6:	8f b9       	out	0x0f, r24	; 15
     6a8:	77 9b       	sbis	0x0e, 7	; 14
     6aa:	fe cf       	rjmp	.-4      	; 0x6a8 <_Z17InitializeProgramv+0x22c>
     6ac:	80 91 3e 03 	lds	r24, 0x033E	; 0x80033e <debugDisplay+0x12>
     6b0:	8f b9       	out	0x0f, r24	; 15
     6b2:	77 9b       	sbis	0x0e, 7	; 14
     6b4:	fe cf       	rjmp	.-4      	; 0x6b2 <_Z17InitializeProgramv+0x236>
     6b6:	80 91 40 03 	lds	r24, 0x0340	; 0x800340 <debugDisplay+0x14>
     6ba:	8f b9       	out	0x0f, r24	; 15
     6bc:	77 9b       	sbis	0x0e, 7	; 14
     6be:	fe cf       	rjmp	.-4      	; 0x6bc <_Z17InitializeProgramv+0x240>
     6c0:	80 91 43 03 	lds	r24, 0x0343	; 0x800343 <debugDisplay+0x17>
     6c4:	8f b9       	out	0x0f, r24	; 15
     6c6:	77 9b       	sbis	0x0e, 7	; 14
     6c8:	fe cf       	rjmp	.-4      	; 0x6c6 <_Z17InitializeProgramv+0x24a>
     6ca:	10 eb       	ldi	r17, 0xB0	; 176
     6cc:	cc e2       	ldi	r28, 0x2C	; 44
     6ce:	d3 e0       	ldi	r29, 0x03	; 3
     6d0:	00 e0       	ldi	r16, 0x00	; 0
     6d2:	88 81       	ld	r24, Y
     6d4:	99 81       	ldd	r25, Y+1	; 0x01
     6d6:	dc 01       	movw	r26, r24
     6d8:	ed 91       	ld	r30, X+
     6da:	fc 91       	ld	r31, X
     6dc:	00 88       	ldd	r0, Z+16	; 0x10
     6de:	f1 89       	ldd	r31, Z+17	; 0x11
     6e0:	e0 2d       	mov	r30, r0
     6e2:	09 95       	icall
     6e4:	8e 8d       	ldd	r24, Y+30	; 0x1e
     6e6:	8f b9       	out	0x0f, r24	; 15
     6e8:	77 9b       	sbis	0x0e, 7	; 14
     6ea:	fe cf       	rjmp	.-4      	; 0x6e8 <_Z17InitializeProgramv+0x26c>
     6ec:	1f b9       	out	0x0f, r17	; 15
     6ee:	77 9b       	sbis	0x0e, 7	; 14
     6f0:	fe cf       	rjmp	.-4      	; 0x6ee <_Z17InitializeProgramv+0x272>
     6f2:	8f 8d       	ldd	r24, Y+31	; 0x1f
     6f4:	8f b9       	out	0x0f, r24	; 15
     6f6:	77 9b       	sbis	0x0e, 7	; 14
     6f8:	fe cf       	rjmp	.-4      	; 0x6f6 <_Z17InitializeProgramv+0x27a>
     6fa:	88 81       	ld	r24, Y
     6fc:	99 81       	ldd	r25, Y+1	; 0x01
     6fe:	dc 01       	movw	r26, r24
     700:	ed 91       	ld	r30, X+
     702:	fc 91       	ld	r31, X
     704:	06 84       	ldd	r0, Z+14	; 0x0e
     706:	f7 85       	ldd	r31, Z+15	; 0x0f
     708:	e0 2d       	mov	r30, r0
     70a:	09 95       	icall
     70c:	80 2f       	mov	r24, r16
     70e:	1f b8       	out	0x0f, r1	; 15
     710:	77 9b       	sbis	0x0e, 7	; 14
     712:	fe cf       	rjmp	.-4      	; 0x710 <_Z17InitializeProgramv+0x294>
     714:	8f 5f       	subi	r24, 0xFF	; 255
     716:	80 38       	cpi	r24, 0x80	; 128
     718:	d1 f7       	brne	.-12     	; 0x70e <_Z17InitializeProgramv+0x292>
     71a:	88 81       	ld	r24, Y
     71c:	99 81       	ldd	r25, Y+1	; 0x01
     71e:	dc 01       	movw	r26, r24
     720:	ed 91       	ld	r30, X+
     722:	fc 91       	ld	r31, X
     724:	00 88       	ldd	r0, Z+16	; 0x10
     726:	f1 89       	ldd	r31, Z+17	; 0x11
     728:	e0 2d       	mov	r30, r0
     72a:	09 95       	icall
     72c:	1f 5f       	subi	r17, 0xFF	; 255
     72e:	18 3b       	cpi	r17, 0xB8	; 184
     730:	81 f6       	brne	.-96     	; 0x6d2 <_Z17InitializeProgramv+0x256>
     732:	cc e2       	ldi	r28, 0x2C	; 44
     734:	d3 e0       	ldi	r29, 0x03	; 3
     736:	8e 81       	ldd	r24, Y+6	; 0x06
     738:	9f 81       	ldd	r25, Y+7	; 0x07
     73a:	dc 01       	movw	r26, r24
     73c:	ed 91       	ld	r30, X+
     73e:	fc 91       	ld	r31, X
     740:	06 84       	ldd	r0, Z+14	; 0x0e
     742:	f7 85       	ldd	r31, Z+15	; 0x0f
     744:	e0 2d       	mov	r30, r0
     746:	09 95       	icall
     748:	8e 81       	ldd	r24, Y+6	; 0x06
     74a:	9f 81       	ldd	r25, Y+7	; 0x07
     74c:	dc 01       	movw	r26, r24
     74e:	ed 91       	ld	r30, X+
     750:	fc 91       	ld	r31, X
     752:	00 88       	ldd	r0, Z+16	; 0x10
     754:	f1 89       	ldd	r31, Z+17	; 0x11
     756:	e0 2d       	mov	r30, r0
     758:	09 95       	icall
     75a:	87 e0       	ldi	r24, 0x07	; 7
     75c:	8c bf       	out	0x3c, r24	; 60
     75e:	83 b7       	in	r24, 0x33	; 51
     760:	8e 7f       	andi	r24, 0xFE	; 254
     762:	83 bf       	out	0x33, r24	; 51
     764:	83 b7       	in	r24, 0x33	; 51
     766:	88 60       	ori	r24, 0x08	; 8
     768:	83 bf       	out	0x33, r24	; 51
     76a:	89 b7       	in	r24, 0x39	; 57
     76c:	8e 7f       	andi	r24, 0xFE	; 254
     76e:	89 bf       	out	0x39, r24	; 57
     770:	89 b7       	in	r24, 0x39	; 57
     772:	82 60       	ori	r24, 0x02	; 2
     774:	89 bf       	out	0x39, r24	; 57
     776:	83 b7       	in	r24, 0x33	; 51
     778:	88 7f       	andi	r24, 0xF8	; 248
     77a:	83 bf       	out	0x33, r24	; 51
     77c:	83 b7       	in	r24, 0x33	; 51
     77e:	84 60       	ori	r24, 0x04	; 4
     780:	83 bf       	out	0x33, r24	; 51
     782:	78 94       	sei
     784:	c4 e1       	ldi	r28, 0x14	; 20
     786:	d3 e0       	ldi	r29, 0x03	; 3
     788:	88 81       	ld	r24, Y
     78a:	99 81       	ldd	r25, Y+1	; 0x01
     78c:	dc 01       	movw	r26, r24
     78e:	ed 91       	ld	r30, X+
     790:	fc 91       	ld	r31, X
     792:	04 88       	ldd	r0, Z+20	; 0x14
     794:	f5 89       	ldd	r31, Z+21	; 0x15
     796:	e0 2d       	mov	r30, r0
     798:	09 95       	icall
     79a:	8a 81       	ldd	r24, Y+2	; 0x02
     79c:	9b 81       	ldd	r25, Y+3	; 0x03
     79e:	dc 01       	movw	r26, r24
     7a0:	ed 91       	ld	r30, X+
     7a2:	fc 91       	ld	r31, X
     7a4:	04 88       	ldd	r0, Z+20	; 0x14
     7a6:	f5 89       	ldd	r31, Z+21	; 0x15
     7a8:	e0 2d       	mov	r30, r0
     7aa:	09 95       	icall
     7ac:	8c 81       	ldd	r24, Y+4	; 0x04
     7ae:	9d 81       	ldd	r25, Y+5	; 0x05
     7b0:	dc 01       	movw	r26, r24
     7b2:	ed 91       	ld	r30, X+
     7b4:	fc 91       	ld	r31, X
     7b6:	06 88       	ldd	r0, Z+22	; 0x16
     7b8:	f7 89       	ldd	r31, Z+23	; 0x17
     7ba:	e0 2d       	mov	r30, r0
     7bc:	09 95       	icall
     7be:	8a 81       	ldd	r24, Y+2	; 0x02
     7c0:	9b 81       	ldd	r25, Y+3	; 0x03
     7c2:	dc 01       	movw	r26, r24
     7c4:	ed 91       	ld	r30, X+
     7c6:	fc 91       	ld	r31, X
     7c8:	00 88       	ldd	r0, Z+16	; 0x10
     7ca:	f1 89       	ldd	r31, Z+17	; 0x11
     7cc:	e0 2d       	mov	r30, r0
     7ce:	09 95       	icall
     7d0:	0e 94 99 00 	call	0x132	; 0x132 <_Z18NextCalibrateStagev>
     7d4:	df 91       	pop	r29
     7d6:	cf 91       	pop	r28
     7d8:	1f 91       	pop	r17
     7da:	0f 91       	pop	r16
     7dc:	08 95       	ret

000007de <_Z5Debugv>:
     7de:	4f 92       	push	r4
     7e0:	5f 92       	push	r5
     7e2:	6f 92       	push	r6
     7e4:	7f 92       	push	r7
     7e6:	8f 92       	push	r8
     7e8:	9f 92       	push	r9
     7ea:	af 92       	push	r10
     7ec:	bf 92       	push	r11
     7ee:	cf 92       	push	r12
     7f0:	df 92       	push	r13
     7f2:	ef 92       	push	r14
     7f4:	ff 92       	push	r15
     7f6:	0f 93       	push	r16
     7f8:	1f 93       	push	r17
     7fa:	cf 93       	push	r28
     7fc:	df 93       	push	r29
     7fe:	cd b7       	in	r28, 0x3d	; 61
     800:	de b7       	in	r29, 0x3e	; 62
     802:	6c 97       	sbiw	r28, 0x1c	; 28
     804:	0f b6       	in	r0, 0x3f	; 63
     806:	f8 94       	cli
     808:	de bf       	out	0x3e, r29	; 62
     80a:	0f be       	out	0x3f, r0	; 63
     80c:	cd bf       	out	0x3d, r28	; 61
     80e:	4a e1       	ldi	r20, 0x1A	; 26
     810:	50 e0       	ldi	r21, 0x00	; 0
     812:	60 e0       	ldi	r22, 0x00	; 0
     814:	70 e0       	ldi	r23, 0x00	; 0
     816:	ce 01       	movw	r24, r28
     818:	01 96       	adiw	r24, 0x01	; 1
     81a:	0e 94 22 16 	call	0x2c44	; 0x2c44 <eeprom_read_block>
     81e:	0c e2       	ldi	r16, 0x2C	; 44
     820:	13 e0       	ldi	r17, 0x03	; 3
     822:	d8 01       	movw	r26, r16
     824:	8d 91       	ld	r24, X+
     826:	9c 91       	ld	r25, X
     828:	dc 01       	movw	r26, r24
     82a:	ed 91       	ld	r30, X+
     82c:	fc 91       	ld	r31, X
     82e:	00 88       	ldd	r0, Z+16	; 0x10
     830:	f1 89       	ldd	r31, Z+17	; 0x11
     832:	e0 2d       	mov	r30, r0
     834:	09 95       	icall
     836:	f8 01       	movw	r30, r16
     838:	86 8d       	ldd	r24, Z+30	; 0x1e
     83a:	8f b9       	out	0x0f, r24	; 15
     83c:	77 9b       	sbis	0x0e, 7	; 14
     83e:	fe cf       	rjmp	.-4      	; 0x83c <_Z5Debugv+0x5e>
     840:	80 eb       	ldi	r24, 0xB0	; 176
     842:	8f b9       	out	0x0f, r24	; 15
     844:	77 9b       	sbis	0x0e, 7	; 14
     846:	fe cf       	rjmp	.-4      	; 0x844 <_Z5Debugv+0x66>
     848:	80 91 4b 03 	lds	r24, 0x034B	; 0x80034b <debugDisplay+0x1f>
     84c:	8f b9       	out	0x0f, r24	; 15
     84e:	77 9b       	sbis	0x0e, 7	; 14
     850:	fe cf       	rjmp	.-4      	; 0x84e <_Z5Debugv+0x70>
     852:	80 91 2c 03 	lds	r24, 0x032C	; 0x80032c <debugDisplay>
     856:	90 91 2d 03 	lds	r25, 0x032D	; 0x80032d <debugDisplay+0x1>
     85a:	dc 01       	movw	r26, r24
     85c:	ed 91       	ld	r30, X+
     85e:	fc 91       	ld	r31, X
     860:	06 84       	ldd	r0, Z+14	; 0x0e
     862:	f7 85       	ldd	r31, Z+15	; 0x0f
     864:	e0 2d       	mov	r30, r0
     866:	09 95       	icall
     868:	1f b8       	out	0x0f, r1	; 15
     86a:	77 9b       	sbis	0x0e, 7	; 14
     86c:	fe cf       	rjmp	.-4      	; 0x86a <_Z5Debugv+0x8c>
     86e:	80 91 2c 03 	lds	r24, 0x032C	; 0x80032c <debugDisplay>
     872:	90 91 2d 03 	lds	r25, 0x032D	; 0x80032d <debugDisplay+0x1>
     876:	dc 01       	movw	r26, r24
     878:	ed 91       	ld	r30, X+
     87a:	fc 91       	ld	r31, X
     87c:	06 84       	ldd	r0, Z+14	; 0x0e
     87e:	f7 85       	ldd	r31, Z+15	; 0x0f
     880:	e0 2d       	mov	r30, r0
     882:	09 95       	icall
     884:	99 80       	ldd	r9, Y+1	; 0x01
     886:	99 20       	and	r9, r9
     888:	09 f4       	brne	.+2      	; 0x88c <_Z5Debugv+0xae>
     88a:	49 c0       	rjmp	.+146    	; 0x91e <_Z5Debugv+0x140>
     88c:	5e 01       	movw	r10, r28
     88e:	b2 e0       	ldi	r27, 0x02	; 2
     890:	ab 0e       	add	r10, r27
     892:	b1 1c       	adc	r11, r1
     894:	0f 2e       	mov	r0, r31
     896:	fc e2       	ldi	r31, 0x2C	; 44
     898:	cf 2e       	mov	r12, r31
     89a:	f3 e0       	ldi	r31, 0x03	; 3
     89c:	df 2e       	mov	r13, r31
     89e:	f0 2d       	mov	r31, r0
     8a0:	f6 01       	movw	r30, r12
     8a2:	80 81       	ld	r24, Z
     8a4:	91 81       	ldd	r25, Z+1	; 0x01
     8a6:	dc 01       	movw	r26, r24
     8a8:	ed 91       	ld	r30, X+
     8aa:	fc 91       	ld	r31, X
     8ac:	06 84       	ldd	r0, Z+14	; 0x0e
     8ae:	f7 85       	ldd	r31, Z+15	; 0x0f
     8b0:	e0 2d       	mov	r30, r0
     8b2:	09 95       	icall
     8b4:	89 2d       	mov	r24, r9
     8b6:	90 e0       	ldi	r25, 0x00	; 0
     8b8:	88 97       	sbiw	r24, 0x28	; 40
     8ba:	7c 01       	movw	r14, r24
     8bc:	ee 0c       	add	r14, r14
     8be:	ff 1c       	adc	r15, r15
     8c0:	ee 0c       	add	r14, r14
     8c2:	ff 1c       	adc	r15, r15
     8c4:	8e 0d       	add	r24, r14
     8c6:	9f 1d       	adc	r25, r15
     8c8:	8c 01       	movw	r16, r24
     8ca:	09 5d       	subi	r16, 0xD9	; 217
     8cc:	1f 4f       	sbci	r17, 0xFF	; 255
     8ce:	fc 01       	movw	r30, r24
     8d0:	e4 5d       	subi	r30, 0xD4	; 212
     8d2:	ff 4f       	sbci	r31, 0xFF	; 255
     8d4:	7f 01       	movw	r14, r30
     8d6:	f0 e2       	ldi	r31, 0x20	; 32
     8d8:	9f 12       	cpse	r9, r31
     8da:	04 c0       	rjmp	.+8      	; 0x8e4 <_Z5Debugv+0x106>
     8dc:	1f b8       	out	0x0f, r1	; 15
     8de:	77 9b       	sbis	0x0e, 7	; 14
     8e0:	fe cf       	rjmp	.-4      	; 0x8de <_Z5Debugv+0x100>
     8e2:	06 c0       	rjmp	.+12     	; 0x8f0 <_Z5Debugv+0x112>
     8e4:	c8 01       	movw	r24, r16
     8e6:	0e 94 32 16 	call	0x2c64	; 0x2c64 <eeprom_read_byte>
     8ea:	8f b9       	out	0x0f, r24	; 15
     8ec:	77 9b       	sbis	0x0e, 7	; 14
     8ee:	fe cf       	rjmp	.-4      	; 0x8ec <_Z5Debugv+0x10e>
     8f0:	0f 5f       	subi	r16, 0xFF	; 255
     8f2:	1f 4f       	sbci	r17, 0xFF	; 255
     8f4:	0e 15       	cp	r16, r14
     8f6:	1f 05       	cpc	r17, r15
     8f8:	71 f7       	brne	.-36     	; 0x8d6 <_Z5Debugv+0xf8>
     8fa:	1f b8       	out	0x0f, r1	; 15
     8fc:	77 9b       	sbis	0x0e, 7	; 14
     8fe:	fe cf       	rjmp	.-4      	; 0x8fc <_Z5Debugv+0x11e>
     900:	d6 01       	movw	r26, r12
     902:	8d 91       	ld	r24, X+
     904:	9c 91       	ld	r25, X
     906:	dc 01       	movw	r26, r24
     908:	ed 91       	ld	r30, X+
     90a:	fc 91       	ld	r31, X
     90c:	00 88       	ldd	r0, Z+16	; 0x10
     90e:	f1 89       	ldd	r31, Z+17	; 0x11
     910:	e0 2d       	mov	r30, r0
     912:	09 95       	icall
     914:	f5 01       	movw	r30, r10
     916:	91 90       	ld	r9, Z+
     918:	5f 01       	movw	r10, r30
     91a:	91 10       	cpse	r9, r1
     91c:	c1 cf       	rjmp	.-126    	; 0x8a0 <_Z5Debugv+0xc2>
     91e:	0c e2       	ldi	r16, 0x2C	; 44
     920:	13 e0       	ldi	r17, 0x03	; 3
     922:	d8 01       	movw	r26, r16
     924:	8d 91       	ld	r24, X+
     926:	9c 91       	ld	r25, X
     928:	dc 01       	movw	r26, r24
     92a:	ed 91       	ld	r30, X+
     92c:	fc 91       	ld	r31, X
     92e:	00 88       	ldd	r0, Z+16	; 0x10
     930:	f1 89       	ldd	r31, Z+17	; 0x11
     932:	e0 2d       	mov	r30, r0
     934:	09 95       	icall
     936:	43 e0       	ldi	r20, 0x03	; 3
     938:	50 e0       	ldi	r21, 0x00	; 0
     93a:	64 e2       	ldi	r22, 0x24	; 36
     93c:	70 e0       	ldi	r23, 0x00	; 0
     93e:	ce 01       	movw	r24, r28
     940:	01 96       	adiw	r24, 0x01	; 1
     942:	0e 94 22 16 	call	0x2c44	; 0x2c44 <eeprom_read_block>
     946:	f8 01       	movw	r30, r16
     948:	80 81       	ld	r24, Z
     94a:	91 81       	ldd	r25, Z+1	; 0x01
     94c:	dc 01       	movw	r26, r24
     94e:	ed 91       	ld	r30, X+
     950:	fc 91       	ld	r31, X
     952:	00 88       	ldd	r0, Z+16	; 0x10
     954:	f1 89       	ldd	r31, Z+17	; 0x11
     956:	e0 2d       	mov	r30, r0
     958:	09 95       	icall
     95a:	f8 01       	movw	r30, r16
     95c:	86 8d       	ldd	r24, Z+30	; 0x1e
     95e:	8f b9       	out	0x0f, r24	; 15
     960:	77 9b       	sbis	0x0e, 7	; 14
     962:	fe cf       	rjmp	.-4      	; 0x960 <_Z5Debugv+0x182>
     964:	81 eb       	ldi	r24, 0xB1	; 177
     966:	8f b9       	out	0x0f, r24	; 15
     968:	77 9b       	sbis	0x0e, 7	; 14
     96a:	fe cf       	rjmp	.-4      	; 0x968 <_Z5Debugv+0x18a>
     96c:	80 91 4b 03 	lds	r24, 0x034B	; 0x80034b <debugDisplay+0x1f>
     970:	8f b9       	out	0x0f, r24	; 15
     972:	77 9b       	sbis	0x0e, 7	; 14
     974:	fe cf       	rjmp	.-4      	; 0x972 <_Z5Debugv+0x194>
     976:	80 91 2c 03 	lds	r24, 0x032C	; 0x80032c <debugDisplay>
     97a:	90 91 2d 03 	lds	r25, 0x032D	; 0x80032d <debugDisplay+0x1>
     97e:	dc 01       	movw	r26, r24
     980:	ed 91       	ld	r30, X+
     982:	fc 91       	ld	r31, X
     984:	06 84       	ldd	r0, Z+14	; 0x0e
     986:	f7 85       	ldd	r31, Z+15	; 0x0f
     988:	e0 2d       	mov	r30, r0
     98a:	09 95       	icall
     98c:	1f b8       	out	0x0f, r1	; 15
     98e:	77 9b       	sbis	0x0e, 7	; 14
     990:	fe cf       	rjmp	.-4      	; 0x98e <_Z5Debugv+0x1b0>
     992:	80 91 2c 03 	lds	r24, 0x032C	; 0x80032c <debugDisplay>
     996:	90 91 2d 03 	lds	r25, 0x032D	; 0x80032d <debugDisplay+0x1>
     99a:	dc 01       	movw	r26, r24
     99c:	ed 91       	ld	r30, X+
     99e:	fc 91       	ld	r31, X
     9a0:	06 84       	ldd	r0, Z+14	; 0x0e
     9a2:	f7 85       	ldd	r31, Z+15	; 0x0f
     9a4:	e0 2d       	mov	r30, r0
     9a6:	09 95       	icall
     9a8:	99 80       	ldd	r9, Y+1	; 0x01
     9aa:	99 20       	and	r9, r9
     9ac:	09 f4       	brne	.+2      	; 0x9b0 <_Z5Debugv+0x1d2>
     9ae:	49 c0       	rjmp	.+146    	; 0xa42 <_Z5Debugv+0x264>
     9b0:	5e 01       	movw	r10, r28
     9b2:	b2 e0       	ldi	r27, 0x02	; 2
     9b4:	ab 0e       	add	r10, r27
     9b6:	b1 1c       	adc	r11, r1
     9b8:	0f 2e       	mov	r0, r31
     9ba:	fc e2       	ldi	r31, 0x2C	; 44
     9bc:	cf 2e       	mov	r12, r31
     9be:	f3 e0       	ldi	r31, 0x03	; 3
     9c0:	df 2e       	mov	r13, r31
     9c2:	f0 2d       	mov	r31, r0
     9c4:	f6 01       	movw	r30, r12
     9c6:	80 81       	ld	r24, Z
     9c8:	91 81       	ldd	r25, Z+1	; 0x01
     9ca:	dc 01       	movw	r26, r24
     9cc:	ed 91       	ld	r30, X+
     9ce:	fc 91       	ld	r31, X
     9d0:	06 84       	ldd	r0, Z+14	; 0x0e
     9d2:	f7 85       	ldd	r31, Z+15	; 0x0f
     9d4:	e0 2d       	mov	r30, r0
     9d6:	09 95       	icall
     9d8:	89 2d       	mov	r24, r9
     9da:	90 e0       	ldi	r25, 0x00	; 0
     9dc:	88 97       	sbiw	r24, 0x28	; 40
     9de:	7c 01       	movw	r14, r24
     9e0:	ee 0c       	add	r14, r14
     9e2:	ff 1c       	adc	r15, r15
     9e4:	ee 0c       	add	r14, r14
     9e6:	ff 1c       	adc	r15, r15
     9e8:	8e 0d       	add	r24, r14
     9ea:	9f 1d       	adc	r25, r15
     9ec:	8c 01       	movw	r16, r24
     9ee:	09 5d       	subi	r16, 0xD9	; 217
     9f0:	1f 4f       	sbci	r17, 0xFF	; 255
     9f2:	fc 01       	movw	r30, r24
     9f4:	e4 5d       	subi	r30, 0xD4	; 212
     9f6:	ff 4f       	sbci	r31, 0xFF	; 255
     9f8:	7f 01       	movw	r14, r30
     9fa:	f0 e2       	ldi	r31, 0x20	; 32
     9fc:	9f 12       	cpse	r9, r31
     9fe:	04 c0       	rjmp	.+8      	; 0xa08 <_Z5Debugv+0x22a>
     a00:	1f b8       	out	0x0f, r1	; 15
     a02:	77 9b       	sbis	0x0e, 7	; 14
     a04:	fe cf       	rjmp	.-4      	; 0xa02 <_Z5Debugv+0x224>
     a06:	06 c0       	rjmp	.+12     	; 0xa14 <_Z5Debugv+0x236>
     a08:	c8 01       	movw	r24, r16
     a0a:	0e 94 32 16 	call	0x2c64	; 0x2c64 <eeprom_read_byte>
     a0e:	8f b9       	out	0x0f, r24	; 15
     a10:	77 9b       	sbis	0x0e, 7	; 14
     a12:	fe cf       	rjmp	.-4      	; 0xa10 <_Z5Debugv+0x232>
     a14:	0f 5f       	subi	r16, 0xFF	; 255
     a16:	1f 4f       	sbci	r17, 0xFF	; 255
     a18:	0e 15       	cp	r16, r14
     a1a:	1f 05       	cpc	r17, r15
     a1c:	71 f7       	brne	.-36     	; 0x9fa <_Z5Debugv+0x21c>
     a1e:	1f b8       	out	0x0f, r1	; 15
     a20:	77 9b       	sbis	0x0e, 7	; 14
     a22:	fe cf       	rjmp	.-4      	; 0xa20 <_Z5Debugv+0x242>
     a24:	d6 01       	movw	r26, r12
     a26:	8d 91       	ld	r24, X+
     a28:	9c 91       	ld	r25, X
     a2a:	dc 01       	movw	r26, r24
     a2c:	ed 91       	ld	r30, X+
     a2e:	fc 91       	ld	r31, X
     a30:	00 88       	ldd	r0, Z+16	; 0x10
     a32:	f1 89       	ldd	r31, Z+17	; 0x11
     a34:	e0 2d       	mov	r30, r0
     a36:	09 95       	icall
     a38:	f5 01       	movw	r30, r10
     a3a:	91 90       	ld	r9, Z+
     a3c:	5f 01       	movw	r10, r30
     a3e:	91 10       	cpse	r9, r1
     a40:	c1 cf       	rjmp	.-126    	; 0x9c4 <_Z5Debugv+0x1e6>
     a42:	0c e2       	ldi	r16, 0x2C	; 44
     a44:	13 e0       	ldi	r17, 0x03	; 3
     a46:	d8 01       	movw	r26, r16
     a48:	8d 91       	ld	r24, X+
     a4a:	9c 91       	ld	r25, X
     a4c:	dc 01       	movw	r26, r24
     a4e:	ed 91       	ld	r30, X+
     a50:	fc 91       	ld	r31, X
     a52:	00 88       	ldd	r0, Z+16	; 0x10
     a54:	f1 89       	ldd	r31, Z+17	; 0x11
     a56:	e0 2d       	mov	r30, r0
     a58:	09 95       	icall
     a5a:	4b b2       	in	r4, 0x1b	; 27
     a5c:	f8 01       	movw	r30, r16
     a5e:	80 81       	ld	r24, Z
     a60:	91 81       	ldd	r25, Z+1	; 0x01
     a62:	dc 01       	movw	r26, r24
     a64:	ed 91       	ld	r30, X+
     a66:	fc 91       	ld	r31, X
     a68:	06 84       	ldd	r0, Z+14	; 0x0e
     a6a:	f7 85       	ldd	r31, Z+15	; 0x0f
     a6c:	e0 2d       	mov	r30, r0
     a6e:	09 95       	icall
     a70:	0f 2e       	mov	r0, r31
     a72:	fb ec       	ldi	r31, 0xCB	; 203
     a74:	8f 2e       	mov	r8, r31
     a76:	f1 e0       	ldi	r31, 0x01	; 1
     a78:	9f 2e       	mov	r9, r31
     a7a:	f0 2d       	mov	r31, r0
     a7c:	0f 2e       	mov	r0, r31
     a7e:	f0 ed       	ldi	r31, 0xD0	; 208
     a80:	cf 2e       	mov	r12, r31
     a82:	f1 e0       	ldi	r31, 0x01	; 1
     a84:	df 2e       	mov	r13, r31
     a86:	f0 2d       	mov	r31, r0
     a88:	84 01       	movw	r16, r8
     a8a:	c8 01       	movw	r24, r16
     a8c:	0e 94 32 16 	call	0x2c64	; 0x2c64 <eeprom_read_byte>
     a90:	8f b9       	out	0x0f, r24	; 15
     a92:	77 9b       	sbis	0x0e, 7	; 14
     a94:	fe cf       	rjmp	.-4      	; 0xa92 <_Z5Debugv+0x2b4>
     a96:	0f 5f       	subi	r16, 0xFF	; 255
     a98:	1f 4f       	sbci	r17, 0xFF	; 255
     a9a:	0c 15       	cp	r16, r12
     a9c:	1d 05       	cpc	r17, r13
     a9e:	a9 f7       	brne	.-22     	; 0xa8a <_Z5Debugv+0x2ac>
     aa0:	1f b8       	out	0x0f, r1	; 15
     aa2:	77 9b       	sbis	0x0e, 7	; 14
     aa4:	fe cf       	rjmp	.-4      	; 0xaa2 <_Z5Debugv+0x2c4>
     aa6:	80 91 2c 03 	lds	r24, 0x032C	; 0x80032c <debugDisplay>
     aaa:	90 91 2d 03 	lds	r25, 0x032D	; 0x80032d <debugDisplay+0x1>
     aae:	dc 01       	movw	r26, r24
     ab0:	ed 91       	ld	r30, X+
     ab2:	fc 91       	ld	r31, X
     ab4:	00 88       	ldd	r0, Z+16	; 0x10
     ab6:	f1 89       	ldd	r31, Z+17	; 0x11
     ab8:	e0 2d       	mov	r30, r0
     aba:	09 95       	icall
     abc:	a1 2c       	mov	r10, r1
     abe:	b1 2c       	mov	r11, r1
     ac0:	0f 2e       	mov	r0, r31
     ac2:	fc e2       	ldi	r31, 0x2C	; 44
     ac4:	6f 2e       	mov	r6, r31
     ac6:	f3 e0       	ldi	r31, 0x03	; 3
     ac8:	7f 2e       	mov	r7, r31
     aca:	f0 2d       	mov	r31, r0
     acc:	51 2c       	mov	r5, r1
     ace:	f3 01       	movw	r30, r6
     ad0:	80 81       	ld	r24, Z
     ad2:	91 81       	ldd	r25, Z+1	; 0x01
     ad4:	dc 01       	movw	r26, r24
     ad6:	ed 91       	ld	r30, X+
     ad8:	fc 91       	ld	r31, X
     ada:	06 84       	ldd	r0, Z+14	; 0x0e
     adc:	f7 85       	ldd	r31, Z+15	; 0x0f
     ade:	e0 2d       	mov	r30, r0
     ae0:	09 95       	icall
     ae2:	c2 01       	movw	r24, r4
     ae4:	0a 2c       	mov	r0, r10
     ae6:	02 c0       	rjmp	.+4      	; 0xaec <_Z5Debugv+0x30e>
     ae8:	95 95       	asr	r25
     aea:	87 95       	ror	r24
     aec:	0a 94       	dec	r0
     aee:	e2 f7       	brpl	.-8      	; 0xae8 <_Z5Debugv+0x30a>
     af0:	83 70       	andi	r24, 0x03	; 3
     af2:	80 5d       	subi	r24, 0xD0	; 208
     af4:	90 e0       	ldi	r25, 0x00	; 0
     af6:	88 97       	sbiw	r24, 0x28	; 40
     af8:	7c 01       	movw	r14, r24
     afa:	ee 0c       	add	r14, r14
     afc:	ff 1c       	adc	r15, r15
     afe:	ee 0c       	add	r14, r14
     b00:	ff 1c       	adc	r15, r15
     b02:	8e 0d       	add	r24, r14
     b04:	9f 1d       	adc	r25, r15
     b06:	8c 01       	movw	r16, r24
     b08:	09 5d       	subi	r16, 0xD9	; 217
     b0a:	1f 4f       	sbci	r17, 0xFF	; 255
     b0c:	fc 01       	movw	r30, r24
     b0e:	e4 5d       	subi	r30, 0xD4	; 212
     b10:	ff 4f       	sbci	r31, 0xFF	; 255
     b12:	7f 01       	movw	r14, r30
     b14:	c8 01       	movw	r24, r16
     b16:	0e 94 32 16 	call	0x2c64	; 0x2c64 <eeprom_read_byte>
     b1a:	8f b9       	out	0x0f, r24	; 15
     b1c:	77 9b       	sbis	0x0e, 7	; 14
     b1e:	fe cf       	rjmp	.-4      	; 0xb1c <_Z5Debugv+0x33e>
     b20:	0f 5f       	subi	r16, 0xFF	; 255
     b22:	1f 4f       	sbci	r17, 0xFF	; 255
     b24:	0e 15       	cp	r16, r14
     b26:	1f 05       	cpc	r17, r15
     b28:	a9 f7       	brne	.-22     	; 0xb14 <_Z5Debugv+0x336>
     b2a:	1f b8       	out	0x0f, r1	; 15
     b2c:	77 9b       	sbis	0x0e, 7	; 14
     b2e:	fe cf       	rjmp	.-4      	; 0xb2c <_Z5Debugv+0x34e>
     b30:	d3 01       	movw	r26, r6
     b32:	8d 91       	ld	r24, X+
     b34:	9c 91       	ld	r25, X
     b36:	dc 01       	movw	r26, r24
     b38:	ed 91       	ld	r30, X+
     b3a:	fc 91       	ld	r31, X
     b3c:	00 88       	ldd	r0, Z+16	; 0x10
     b3e:	f1 89       	ldd	r31, Z+17	; 0x11
     b40:	e0 2d       	mov	r30, r0
     b42:	09 95       	icall
     b44:	b2 e0       	ldi	r27, 0x02	; 2
     b46:	ab 0e       	add	r10, r27
     b48:	b1 1c       	adc	r11, r1
     b4a:	e8 e0       	ldi	r30, 0x08	; 8
     b4c:	ae 16       	cp	r10, r30
     b4e:	b1 04       	cpc	r11, r1
     b50:	09 f0       	breq	.+2      	; 0xb54 <_Z5Debugv+0x376>
     b52:	bd cf       	rjmp	.-134    	; 0xace <_Z5Debugv+0x2f0>
     b54:	80 91 2c 03 	lds	r24, 0x032C	; 0x80032c <debugDisplay>
     b58:	90 91 2d 03 	lds	r25, 0x032D	; 0x80032d <debugDisplay+0x1>
     b5c:	dc 01       	movw	r26, r24
     b5e:	ed 91       	ld	r30, X+
     b60:	fc 91       	ld	r31, X
     b62:	06 84       	ldd	r0, Z+14	; 0x0e
     b64:	f7 85       	ldd	r31, Z+15	; 0x0f
     b66:	e0 2d       	mov	r30, r0
     b68:	09 95       	icall
     b6a:	0b ec       	ldi	r16, 0xCB	; 203
     b6c:	11 e0       	ldi	r17, 0x01	; 1
     b6e:	c8 01       	movw	r24, r16
     b70:	0e 94 32 16 	call	0x2c64	; 0x2c64 <eeprom_read_byte>
     b74:	8f b9       	out	0x0f, r24	; 15
     b76:	77 9b       	sbis	0x0e, 7	; 14
     b78:	fe cf       	rjmp	.-4      	; 0xb76 <_Z5Debugv+0x398>
     b7a:	0f 5f       	subi	r16, 0xFF	; 255
     b7c:	1f 4f       	sbci	r17, 0xFF	; 255
     b7e:	c0 16       	cp	r12, r16
     b80:	d1 06       	cpc	r13, r17
     b82:	a9 f7       	brne	.-22     	; 0xb6e <_Z5Debugv+0x390>
     b84:	1f b8       	out	0x0f, r1	; 15
     b86:	77 9b       	sbis	0x0e, 7	; 14
     b88:	fe cf       	rjmp	.-4      	; 0xb86 <_Z5Debugv+0x3a8>
     b8a:	0c e2       	ldi	r16, 0x2C	; 44
     b8c:	13 e0       	ldi	r17, 0x03	; 3
     b8e:	f8 01       	movw	r30, r16
     b90:	80 81       	ld	r24, Z
     b92:	91 81       	ldd	r25, Z+1	; 0x01
     b94:	dc 01       	movw	r26, r24
     b96:	ed 91       	ld	r30, X+
     b98:	fc 91       	ld	r31, X
     b9a:	00 88       	ldd	r0, Z+16	; 0x10
     b9c:	f1 89       	ldd	r31, Z+17	; 0x11
     b9e:	e0 2d       	mov	r30, r0
     ba0:	09 95       	icall
     ba2:	4a b2       	in	r4, 0x1a	; 26
     ba4:	f8 01       	movw	r30, r16
     ba6:	80 81       	ld	r24, Z
     ba8:	91 81       	ldd	r25, Z+1	; 0x01
     baa:	dc 01       	movw	r26, r24
     bac:	ed 91       	ld	r30, X+
     bae:	fc 91       	ld	r31, X
     bb0:	06 84       	ldd	r0, Z+14	; 0x0e
     bb2:	f7 85       	ldd	r31, Z+15	; 0x0f
     bb4:	e0 2d       	mov	r30, r0
     bb6:	09 95       	icall
     bb8:	0b ec       	ldi	r16, 0xCB	; 203
     bba:	11 e0       	ldi	r17, 0x01	; 1
     bbc:	c8 01       	movw	r24, r16
     bbe:	0e 94 32 16 	call	0x2c64	; 0x2c64 <eeprom_read_byte>
     bc2:	8f b9       	out	0x0f, r24	; 15
     bc4:	77 9b       	sbis	0x0e, 7	; 14
     bc6:	fe cf       	rjmp	.-4      	; 0xbc4 <_Z5Debugv+0x3e6>
     bc8:	0f 5f       	subi	r16, 0xFF	; 255
     bca:	1f 4f       	sbci	r17, 0xFF	; 255
     bcc:	c0 16       	cp	r12, r16
     bce:	d1 06       	cpc	r13, r17
     bd0:	a9 f7       	brne	.-22     	; 0xbbc <_Z5Debugv+0x3de>
     bd2:	1f b8       	out	0x0f, r1	; 15
     bd4:	77 9b       	sbis	0x0e, 7	; 14
     bd6:	fe cf       	rjmp	.-4      	; 0xbd4 <_Z5Debugv+0x3f6>
     bd8:	80 91 2c 03 	lds	r24, 0x032C	; 0x80032c <debugDisplay>
     bdc:	90 91 2d 03 	lds	r25, 0x032D	; 0x80032d <debugDisplay+0x1>
     be0:	dc 01       	movw	r26, r24
     be2:	ed 91       	ld	r30, X+
     be4:	fc 91       	ld	r31, X
     be6:	00 88       	ldd	r0, Z+16	; 0x10
     be8:	f1 89       	ldd	r31, Z+17	; 0x11
     bea:	e0 2d       	mov	r30, r0
     bec:	09 95       	icall
     bee:	a1 2c       	mov	r10, r1
     bf0:	b1 2c       	mov	r11, r1
     bf2:	0f 2e       	mov	r0, r31
     bf4:	fc e2       	ldi	r31, 0x2C	; 44
     bf6:	6f 2e       	mov	r6, r31
     bf8:	f3 e0       	ldi	r31, 0x03	; 3
     bfa:	7f 2e       	mov	r7, r31
     bfc:	f0 2d       	mov	r31, r0
     bfe:	51 2c       	mov	r5, r1
     c00:	f3 01       	movw	r30, r6
     c02:	80 81       	ld	r24, Z
     c04:	91 81       	ldd	r25, Z+1	; 0x01
     c06:	dc 01       	movw	r26, r24
     c08:	ed 91       	ld	r30, X+
     c0a:	fc 91       	ld	r31, X
     c0c:	06 84       	ldd	r0, Z+14	; 0x0e
     c0e:	f7 85       	ldd	r31, Z+15	; 0x0f
     c10:	e0 2d       	mov	r30, r0
     c12:	09 95       	icall
     c14:	c2 01       	movw	r24, r4
     c16:	0a 2c       	mov	r0, r10
     c18:	02 c0       	rjmp	.+4      	; 0xc1e <_Z5Debugv+0x440>
     c1a:	95 95       	asr	r25
     c1c:	87 95       	ror	r24
     c1e:	0a 94       	dec	r0
     c20:	e2 f7       	brpl	.-8      	; 0xc1a <_Z5Debugv+0x43c>
     c22:	83 70       	andi	r24, 0x03	; 3
     c24:	80 5d       	subi	r24, 0xD0	; 208
     c26:	90 e0       	ldi	r25, 0x00	; 0
     c28:	88 97       	sbiw	r24, 0x28	; 40
     c2a:	7c 01       	movw	r14, r24
     c2c:	ee 0c       	add	r14, r14
     c2e:	ff 1c       	adc	r15, r15
     c30:	ee 0c       	add	r14, r14
     c32:	ff 1c       	adc	r15, r15
     c34:	8e 0d       	add	r24, r14
     c36:	9f 1d       	adc	r25, r15
     c38:	8c 01       	movw	r16, r24
     c3a:	09 5d       	subi	r16, 0xD9	; 217
     c3c:	1f 4f       	sbci	r17, 0xFF	; 255
     c3e:	fc 01       	movw	r30, r24
     c40:	e4 5d       	subi	r30, 0xD4	; 212
     c42:	ff 4f       	sbci	r31, 0xFF	; 255
     c44:	7f 01       	movw	r14, r30
     c46:	c8 01       	movw	r24, r16
     c48:	0e 94 32 16 	call	0x2c64	; 0x2c64 <eeprom_read_byte>
     c4c:	8f b9       	out	0x0f, r24	; 15
     c4e:	77 9b       	sbis	0x0e, 7	; 14
     c50:	fe cf       	rjmp	.-4      	; 0xc4e <_Z5Debugv+0x470>
     c52:	0f 5f       	subi	r16, 0xFF	; 255
     c54:	1f 4f       	sbci	r17, 0xFF	; 255
     c56:	0e 15       	cp	r16, r14
     c58:	1f 05       	cpc	r17, r15
     c5a:	a9 f7       	brne	.-22     	; 0xc46 <_Z5Debugv+0x468>
     c5c:	1f b8       	out	0x0f, r1	; 15
     c5e:	77 9b       	sbis	0x0e, 7	; 14
     c60:	fe cf       	rjmp	.-4      	; 0xc5e <_Z5Debugv+0x480>
     c62:	d3 01       	movw	r26, r6
     c64:	8d 91       	ld	r24, X+
     c66:	9c 91       	ld	r25, X
     c68:	dc 01       	movw	r26, r24
     c6a:	ed 91       	ld	r30, X+
     c6c:	fc 91       	ld	r31, X
     c6e:	00 88       	ldd	r0, Z+16	; 0x10
     c70:	f1 89       	ldd	r31, Z+17	; 0x11
     c72:	e0 2d       	mov	r30, r0
     c74:	09 95       	icall
     c76:	b2 e0       	ldi	r27, 0x02	; 2
     c78:	ab 0e       	add	r10, r27
     c7a:	b1 1c       	adc	r11, r1
     c7c:	e8 e0       	ldi	r30, 0x08	; 8
     c7e:	ae 16       	cp	r10, r30
     c80:	b1 04       	cpc	r11, r1
     c82:	09 f0       	breq	.+2      	; 0xc86 <_Z5Debugv+0x4a8>
     c84:	bd cf       	rjmp	.-134    	; 0xc00 <_Z5Debugv+0x422>
     c86:	80 91 2c 03 	lds	r24, 0x032C	; 0x80032c <debugDisplay>
     c8a:	90 91 2d 03 	lds	r25, 0x032D	; 0x80032d <debugDisplay+0x1>
     c8e:	dc 01       	movw	r26, r24
     c90:	ed 91       	ld	r30, X+
     c92:	fc 91       	ld	r31, X
     c94:	06 84       	ldd	r0, Z+14	; 0x0e
     c96:	f7 85       	ldd	r31, Z+15	; 0x0f
     c98:	e0 2d       	mov	r30, r0
     c9a:	09 95       	icall
     c9c:	0b ec       	ldi	r16, 0xCB	; 203
     c9e:	11 e0       	ldi	r17, 0x01	; 1
     ca0:	c8 01       	movw	r24, r16
     ca2:	0e 94 32 16 	call	0x2c64	; 0x2c64 <eeprom_read_byte>
     ca6:	8f b9       	out	0x0f, r24	; 15
     ca8:	77 9b       	sbis	0x0e, 7	; 14
     caa:	fe cf       	rjmp	.-4      	; 0xca8 <_Z5Debugv+0x4ca>
     cac:	0f 5f       	subi	r16, 0xFF	; 255
     cae:	1f 4f       	sbci	r17, 0xFF	; 255
     cb0:	c0 16       	cp	r12, r16
     cb2:	d1 06       	cpc	r13, r17
     cb4:	a9 f7       	brne	.-22     	; 0xca0 <_Z5Debugv+0x4c2>
     cb6:	1f b8       	out	0x0f, r1	; 15
     cb8:	77 9b       	sbis	0x0e, 7	; 14
     cba:	fe cf       	rjmp	.-4      	; 0xcb8 <_Z5Debugv+0x4da>
     cbc:	0c e2       	ldi	r16, 0x2C	; 44
     cbe:	13 e0       	ldi	r17, 0x03	; 3
     cc0:	f8 01       	movw	r30, r16
     cc2:	80 81       	ld	r24, Z
     cc4:	91 81       	ldd	r25, Z+1	; 0x01
     cc6:	dc 01       	movw	r26, r24
     cc8:	ed 91       	ld	r30, X+
     cca:	fc 91       	ld	r31, X
     ccc:	00 88       	ldd	r0, Z+16	; 0x10
     cce:	f1 89       	ldd	r31, Z+17	; 0x11
     cd0:	e0 2d       	mov	r30, r0
     cd2:	09 95       	icall
     cd4:	49 b2       	in	r4, 0x19	; 25
     cd6:	f8 01       	movw	r30, r16
     cd8:	80 81       	ld	r24, Z
     cda:	91 81       	ldd	r25, Z+1	; 0x01
     cdc:	dc 01       	movw	r26, r24
     cde:	ed 91       	ld	r30, X+
     ce0:	fc 91       	ld	r31, X
     ce2:	06 84       	ldd	r0, Z+14	; 0x0e
     ce4:	f7 85       	ldd	r31, Z+15	; 0x0f
     ce6:	e0 2d       	mov	r30, r0
     ce8:	09 95       	icall
     cea:	0b ec       	ldi	r16, 0xCB	; 203
     cec:	11 e0       	ldi	r17, 0x01	; 1
     cee:	c8 01       	movw	r24, r16
     cf0:	0e 94 32 16 	call	0x2c64	; 0x2c64 <eeprom_read_byte>
     cf4:	8f b9       	out	0x0f, r24	; 15
     cf6:	77 9b       	sbis	0x0e, 7	; 14
     cf8:	fe cf       	rjmp	.-4      	; 0xcf6 <_Z5Debugv+0x518>
     cfa:	0f 5f       	subi	r16, 0xFF	; 255
     cfc:	1f 4f       	sbci	r17, 0xFF	; 255
     cfe:	c0 16       	cp	r12, r16
     d00:	d1 06       	cpc	r13, r17
     d02:	a9 f7       	brne	.-22     	; 0xcee <_Z5Debugv+0x510>
     d04:	1f b8       	out	0x0f, r1	; 15
     d06:	77 9b       	sbis	0x0e, 7	; 14
     d08:	fe cf       	rjmp	.-4      	; 0xd06 <_Z5Debugv+0x528>
     d0a:	80 91 2c 03 	lds	r24, 0x032C	; 0x80032c <debugDisplay>
     d0e:	90 91 2d 03 	lds	r25, 0x032D	; 0x80032d <debugDisplay+0x1>
     d12:	dc 01       	movw	r26, r24
     d14:	ed 91       	ld	r30, X+
     d16:	fc 91       	ld	r31, X
     d18:	00 88       	ldd	r0, Z+16	; 0x10
     d1a:	f1 89       	ldd	r31, Z+17	; 0x11
     d1c:	e0 2d       	mov	r30, r0
     d1e:	09 95       	icall
     d20:	a1 2c       	mov	r10, r1
     d22:	b1 2c       	mov	r11, r1
     d24:	0f 2e       	mov	r0, r31
     d26:	fc e2       	ldi	r31, 0x2C	; 44
     d28:	6f 2e       	mov	r6, r31
     d2a:	f3 e0       	ldi	r31, 0x03	; 3
     d2c:	7f 2e       	mov	r7, r31
     d2e:	f0 2d       	mov	r31, r0
     d30:	51 2c       	mov	r5, r1
     d32:	f3 01       	movw	r30, r6
     d34:	80 81       	ld	r24, Z
     d36:	91 81       	ldd	r25, Z+1	; 0x01
     d38:	dc 01       	movw	r26, r24
     d3a:	ed 91       	ld	r30, X+
     d3c:	fc 91       	ld	r31, X
     d3e:	06 84       	ldd	r0, Z+14	; 0x0e
     d40:	f7 85       	ldd	r31, Z+15	; 0x0f
     d42:	e0 2d       	mov	r30, r0
     d44:	09 95       	icall
     d46:	c2 01       	movw	r24, r4
     d48:	0a 2c       	mov	r0, r10
     d4a:	02 c0       	rjmp	.+4      	; 0xd50 <_Z5Debugv+0x572>
     d4c:	95 95       	asr	r25
     d4e:	87 95       	ror	r24
     d50:	0a 94       	dec	r0
     d52:	e2 f7       	brpl	.-8      	; 0xd4c <_Z5Debugv+0x56e>
     d54:	83 70       	andi	r24, 0x03	; 3
     d56:	80 5d       	subi	r24, 0xD0	; 208
     d58:	90 e0       	ldi	r25, 0x00	; 0
     d5a:	88 97       	sbiw	r24, 0x28	; 40
     d5c:	7c 01       	movw	r14, r24
     d5e:	ee 0c       	add	r14, r14
     d60:	ff 1c       	adc	r15, r15
     d62:	ee 0c       	add	r14, r14
     d64:	ff 1c       	adc	r15, r15
     d66:	8e 0d       	add	r24, r14
     d68:	9f 1d       	adc	r25, r15
     d6a:	8c 01       	movw	r16, r24
     d6c:	09 5d       	subi	r16, 0xD9	; 217
     d6e:	1f 4f       	sbci	r17, 0xFF	; 255
     d70:	fc 01       	movw	r30, r24
     d72:	e4 5d       	subi	r30, 0xD4	; 212
     d74:	ff 4f       	sbci	r31, 0xFF	; 255
     d76:	7f 01       	movw	r14, r30
     d78:	c8 01       	movw	r24, r16
     d7a:	0e 94 32 16 	call	0x2c64	; 0x2c64 <eeprom_read_byte>
     d7e:	8f b9       	out	0x0f, r24	; 15
     d80:	77 9b       	sbis	0x0e, 7	; 14
     d82:	fe cf       	rjmp	.-4      	; 0xd80 <_Z5Debugv+0x5a2>
     d84:	0f 5f       	subi	r16, 0xFF	; 255
     d86:	1f 4f       	sbci	r17, 0xFF	; 255
     d88:	0e 15       	cp	r16, r14
     d8a:	1f 05       	cpc	r17, r15
     d8c:	a9 f7       	brne	.-22     	; 0xd78 <_Z5Debugv+0x59a>
     d8e:	1f b8       	out	0x0f, r1	; 15
     d90:	77 9b       	sbis	0x0e, 7	; 14
     d92:	fe cf       	rjmp	.-4      	; 0xd90 <_Z5Debugv+0x5b2>
     d94:	d3 01       	movw	r26, r6
     d96:	8d 91       	ld	r24, X+
     d98:	9c 91       	ld	r25, X
     d9a:	dc 01       	movw	r26, r24
     d9c:	ed 91       	ld	r30, X+
     d9e:	fc 91       	ld	r31, X
     da0:	00 88       	ldd	r0, Z+16	; 0x10
     da2:	f1 89       	ldd	r31, Z+17	; 0x11
     da4:	e0 2d       	mov	r30, r0
     da6:	09 95       	icall
     da8:	b2 e0       	ldi	r27, 0x02	; 2
     daa:	ab 0e       	add	r10, r27
     dac:	b1 1c       	adc	r11, r1
     dae:	e8 e0       	ldi	r30, 0x08	; 8
     db0:	ae 16       	cp	r10, r30
     db2:	b1 04       	cpc	r11, r1
     db4:	09 f0       	breq	.+2      	; 0xdb8 <_Z5Debugv+0x5da>
     db6:	bd cf       	rjmp	.-134    	; 0xd32 <_Z5Debugv+0x554>
     db8:	80 91 2c 03 	lds	r24, 0x032C	; 0x80032c <debugDisplay>
     dbc:	90 91 2d 03 	lds	r25, 0x032D	; 0x80032d <debugDisplay+0x1>
     dc0:	dc 01       	movw	r26, r24
     dc2:	ed 91       	ld	r30, X+
     dc4:	fc 91       	ld	r31, X
     dc6:	06 84       	ldd	r0, Z+14	; 0x0e
     dc8:	f7 85       	ldd	r31, Z+15	; 0x0f
     dca:	e0 2d       	mov	r30, r0
     dcc:	09 95       	icall
     dce:	0b ec       	ldi	r16, 0xCB	; 203
     dd0:	11 e0       	ldi	r17, 0x01	; 1
     dd2:	c8 01       	movw	r24, r16
     dd4:	0e 94 32 16 	call	0x2c64	; 0x2c64 <eeprom_read_byte>
     dd8:	8f b9       	out	0x0f, r24	; 15
     dda:	77 9b       	sbis	0x0e, 7	; 14
     ddc:	fe cf       	rjmp	.-4      	; 0xdda <_Z5Debugv+0x5fc>
     dde:	0f 5f       	subi	r16, 0xFF	; 255
     de0:	1f 4f       	sbci	r17, 0xFF	; 255
     de2:	c0 16       	cp	r12, r16
     de4:	d1 06       	cpc	r13, r17
     de6:	a9 f7       	brne	.-22     	; 0xdd2 <_Z5Debugv+0x5f4>
     de8:	1f b8       	out	0x0f, r1	; 15
     dea:	77 9b       	sbis	0x0e, 7	; 14
     dec:	fe cf       	rjmp	.-4      	; 0xdea <_Z5Debugv+0x60c>
     dee:	0c e2       	ldi	r16, 0x2C	; 44
     df0:	13 e0       	ldi	r17, 0x03	; 3
     df2:	f8 01       	movw	r30, r16
     df4:	80 81       	ld	r24, Z
     df6:	91 81       	ldd	r25, Z+1	; 0x01
     df8:	dc 01       	movw	r26, r24
     dfa:	ed 91       	ld	r30, X+
     dfc:	fc 91       	ld	r31, X
     dfe:	00 88       	ldd	r0, Z+16	; 0x10
     e00:	f1 89       	ldd	r31, Z+17	; 0x11
     e02:	e0 2d       	mov	r30, r0
     e04:	09 95       	icall
     e06:	43 e0       	ldi	r20, 0x03	; 3
     e08:	50 e0       	ldi	r21, 0x00	; 0
     e0a:	61 e2       	ldi	r22, 0x21	; 33
     e0c:	70 e0       	ldi	r23, 0x00	; 0
     e0e:	ce 01       	movw	r24, r28
     e10:	01 96       	adiw	r24, 0x01	; 1
     e12:	0e 94 22 16 	call	0x2c44	; 0x2c44 <eeprom_read_block>
     e16:	f8 01       	movw	r30, r16
     e18:	80 81       	ld	r24, Z
     e1a:	91 81       	ldd	r25, Z+1	; 0x01
     e1c:	dc 01       	movw	r26, r24
     e1e:	ed 91       	ld	r30, X+
     e20:	fc 91       	ld	r31, X
     e22:	00 88       	ldd	r0, Z+16	; 0x10
     e24:	f1 89       	ldd	r31, Z+17	; 0x11
     e26:	e0 2d       	mov	r30, r0
     e28:	09 95       	icall
     e2a:	f8 01       	movw	r30, r16
     e2c:	86 8d       	ldd	r24, Z+30	; 0x1e
     e2e:	8f b9       	out	0x0f, r24	; 15
     e30:	77 9b       	sbis	0x0e, 7	; 14
     e32:	fe cf       	rjmp	.-4      	; 0xe30 <_Z5Debugv+0x652>
     e34:	82 eb       	ldi	r24, 0xB2	; 178
     e36:	8f b9       	out	0x0f, r24	; 15
     e38:	77 9b       	sbis	0x0e, 7	; 14
     e3a:	fe cf       	rjmp	.-4      	; 0xe38 <_Z5Debugv+0x65a>
     e3c:	80 91 4b 03 	lds	r24, 0x034B	; 0x80034b <debugDisplay+0x1f>
     e40:	8f b9       	out	0x0f, r24	; 15
     e42:	77 9b       	sbis	0x0e, 7	; 14
     e44:	fe cf       	rjmp	.-4      	; 0xe42 <_Z5Debugv+0x664>
     e46:	80 91 2c 03 	lds	r24, 0x032C	; 0x80032c <debugDisplay>
     e4a:	90 91 2d 03 	lds	r25, 0x032D	; 0x80032d <debugDisplay+0x1>
     e4e:	dc 01       	movw	r26, r24
     e50:	ed 91       	ld	r30, X+
     e52:	fc 91       	ld	r31, X
     e54:	06 84       	ldd	r0, Z+14	; 0x0e
     e56:	f7 85       	ldd	r31, Z+15	; 0x0f
     e58:	e0 2d       	mov	r30, r0
     e5a:	09 95       	icall
     e5c:	1f b8       	out	0x0f, r1	; 15
     e5e:	77 9b       	sbis	0x0e, 7	; 14
     e60:	fe cf       	rjmp	.-4      	; 0xe5e <_Z5Debugv+0x680>
     e62:	80 91 2c 03 	lds	r24, 0x032C	; 0x80032c <debugDisplay>
     e66:	90 91 2d 03 	lds	r25, 0x032D	; 0x80032d <debugDisplay+0x1>
     e6a:	dc 01       	movw	r26, r24
     e6c:	ed 91       	ld	r30, X+
     e6e:	fc 91       	ld	r31, X
     e70:	06 84       	ldd	r0, Z+14	; 0x0e
     e72:	f7 85       	ldd	r31, Z+15	; 0x0f
     e74:	e0 2d       	mov	r30, r0
     e76:	09 95       	icall
     e78:	59 80       	ldd	r5, Y+1	; 0x01
     e7a:	55 20       	and	r5, r5
     e7c:	09 f4       	brne	.+2      	; 0xe80 <_Z5Debugv+0x6a2>
     e7e:	49 c0       	rjmp	.+146    	; 0xf12 <_Z5Debugv+0x734>
     e80:	5e 01       	movw	r10, r28
     e82:	b2 e0       	ldi	r27, 0x02	; 2
     e84:	ab 0e       	add	r10, r27
     e86:	b1 1c       	adc	r11, r1
     e88:	0f 2e       	mov	r0, r31
     e8a:	fc e2       	ldi	r31, 0x2C	; 44
     e8c:	6f 2e       	mov	r6, r31
     e8e:	f3 e0       	ldi	r31, 0x03	; 3
     e90:	7f 2e       	mov	r7, r31
     e92:	f0 2d       	mov	r31, r0
     e94:	f3 01       	movw	r30, r6
     e96:	80 81       	ld	r24, Z
     e98:	91 81       	ldd	r25, Z+1	; 0x01
     e9a:	dc 01       	movw	r26, r24
     e9c:	ed 91       	ld	r30, X+
     e9e:	fc 91       	ld	r31, X
     ea0:	06 84       	ldd	r0, Z+14	; 0x0e
     ea2:	f7 85       	ldd	r31, Z+15	; 0x0f
     ea4:	e0 2d       	mov	r30, r0
     ea6:	09 95       	icall
     ea8:	85 2d       	mov	r24, r5
     eaa:	90 e0       	ldi	r25, 0x00	; 0
     eac:	88 97       	sbiw	r24, 0x28	; 40
     eae:	7c 01       	movw	r14, r24
     eb0:	ee 0c       	add	r14, r14
     eb2:	ff 1c       	adc	r15, r15
     eb4:	ee 0c       	add	r14, r14
     eb6:	ff 1c       	adc	r15, r15
     eb8:	8e 0d       	add	r24, r14
     eba:	9f 1d       	adc	r25, r15
     ebc:	8c 01       	movw	r16, r24
     ebe:	09 5d       	subi	r16, 0xD9	; 217
     ec0:	1f 4f       	sbci	r17, 0xFF	; 255
     ec2:	fc 01       	movw	r30, r24
     ec4:	e4 5d       	subi	r30, 0xD4	; 212
     ec6:	ff 4f       	sbci	r31, 0xFF	; 255
     ec8:	7f 01       	movw	r14, r30
     eca:	f0 e2       	ldi	r31, 0x20	; 32
     ecc:	5f 12       	cpse	r5, r31
     ece:	04 c0       	rjmp	.+8      	; 0xed8 <_Z5Debugv+0x6fa>
     ed0:	1f b8       	out	0x0f, r1	; 15
     ed2:	77 9b       	sbis	0x0e, 7	; 14
     ed4:	fe cf       	rjmp	.-4      	; 0xed2 <_Z5Debugv+0x6f4>
     ed6:	06 c0       	rjmp	.+12     	; 0xee4 <_Z5Debugv+0x706>
     ed8:	c8 01       	movw	r24, r16
     eda:	0e 94 32 16 	call	0x2c64	; 0x2c64 <eeprom_read_byte>
     ede:	8f b9       	out	0x0f, r24	; 15
     ee0:	77 9b       	sbis	0x0e, 7	; 14
     ee2:	fe cf       	rjmp	.-4      	; 0xee0 <_Z5Debugv+0x702>
     ee4:	0f 5f       	subi	r16, 0xFF	; 255
     ee6:	1f 4f       	sbci	r17, 0xFF	; 255
     ee8:	0e 15       	cp	r16, r14
     eea:	1f 05       	cpc	r17, r15
     eec:	71 f7       	brne	.-36     	; 0xeca <_Z5Debugv+0x6ec>
     eee:	1f b8       	out	0x0f, r1	; 15
     ef0:	77 9b       	sbis	0x0e, 7	; 14
     ef2:	fe cf       	rjmp	.-4      	; 0xef0 <_Z5Debugv+0x712>
     ef4:	d3 01       	movw	r26, r6
     ef6:	8d 91       	ld	r24, X+
     ef8:	9c 91       	ld	r25, X
     efa:	dc 01       	movw	r26, r24
     efc:	ed 91       	ld	r30, X+
     efe:	fc 91       	ld	r31, X
     f00:	00 88       	ldd	r0, Z+16	; 0x10
     f02:	f1 89       	ldd	r31, Z+17	; 0x11
     f04:	e0 2d       	mov	r30, r0
     f06:	09 95       	icall
     f08:	f5 01       	movw	r30, r10
     f0a:	51 90       	ld	r5, Z+
     f0c:	5f 01       	movw	r10, r30
     f0e:	51 10       	cpse	r5, r1
     f10:	c1 cf       	rjmp	.-126    	; 0xe94 <_Z5Debugv+0x6b6>
     f12:	0c e2       	ldi	r16, 0x2C	; 44
     f14:	13 e0       	ldi	r17, 0x03	; 3
     f16:	d8 01       	movw	r26, r16
     f18:	8d 91       	ld	r24, X+
     f1a:	9c 91       	ld	r25, X
     f1c:	dc 01       	movw	r26, r24
     f1e:	ed 91       	ld	r30, X+
     f20:	fc 91       	ld	r31, X
     f22:	00 88       	ldd	r0, Z+16	; 0x10
     f24:	f1 89       	ldd	r31, Z+17	; 0x11
     f26:	e0 2d       	mov	r30, r0
     f28:	09 95       	icall
     f2a:	48 b2       	in	r4, 0x18	; 24
     f2c:	f8 01       	movw	r30, r16
     f2e:	80 81       	ld	r24, Z
     f30:	91 81       	ldd	r25, Z+1	; 0x01
     f32:	dc 01       	movw	r26, r24
     f34:	ed 91       	ld	r30, X+
     f36:	fc 91       	ld	r31, X
     f38:	06 84       	ldd	r0, Z+14	; 0x0e
     f3a:	f7 85       	ldd	r31, Z+15	; 0x0f
     f3c:	e0 2d       	mov	r30, r0
     f3e:	09 95       	icall
     f40:	0b ec       	ldi	r16, 0xCB	; 203
     f42:	11 e0       	ldi	r17, 0x01	; 1
     f44:	c8 01       	movw	r24, r16
     f46:	0e 94 32 16 	call	0x2c64	; 0x2c64 <eeprom_read_byte>
     f4a:	8f b9       	out	0x0f, r24	; 15
     f4c:	77 9b       	sbis	0x0e, 7	; 14
     f4e:	fe cf       	rjmp	.-4      	; 0xf4c <_Z5Debugv+0x76e>
     f50:	0f 5f       	subi	r16, 0xFF	; 255
     f52:	1f 4f       	sbci	r17, 0xFF	; 255
     f54:	c0 16       	cp	r12, r16
     f56:	d1 06       	cpc	r13, r17
     f58:	a9 f7       	brne	.-22     	; 0xf44 <_Z5Debugv+0x766>
     f5a:	1f b8       	out	0x0f, r1	; 15
     f5c:	77 9b       	sbis	0x0e, 7	; 14
     f5e:	fe cf       	rjmp	.-4      	; 0xf5c <_Z5Debugv+0x77e>
     f60:	80 91 2c 03 	lds	r24, 0x032C	; 0x80032c <debugDisplay>
     f64:	90 91 2d 03 	lds	r25, 0x032D	; 0x80032d <debugDisplay+0x1>
     f68:	dc 01       	movw	r26, r24
     f6a:	ed 91       	ld	r30, X+
     f6c:	fc 91       	ld	r31, X
     f6e:	00 88       	ldd	r0, Z+16	; 0x10
     f70:	f1 89       	ldd	r31, Z+17	; 0x11
     f72:	e0 2d       	mov	r30, r0
     f74:	09 95       	icall
     f76:	a1 2c       	mov	r10, r1
     f78:	b1 2c       	mov	r11, r1
     f7a:	0f 2e       	mov	r0, r31
     f7c:	fc e2       	ldi	r31, 0x2C	; 44
     f7e:	6f 2e       	mov	r6, r31
     f80:	f3 e0       	ldi	r31, 0x03	; 3
     f82:	7f 2e       	mov	r7, r31
     f84:	f0 2d       	mov	r31, r0
     f86:	51 2c       	mov	r5, r1
     f88:	f3 01       	movw	r30, r6
     f8a:	80 81       	ld	r24, Z
     f8c:	91 81       	ldd	r25, Z+1	; 0x01
     f8e:	dc 01       	movw	r26, r24
     f90:	ed 91       	ld	r30, X+
     f92:	fc 91       	ld	r31, X
     f94:	06 84       	ldd	r0, Z+14	; 0x0e
     f96:	f7 85       	ldd	r31, Z+15	; 0x0f
     f98:	e0 2d       	mov	r30, r0
     f9a:	09 95       	icall
     f9c:	c2 01       	movw	r24, r4
     f9e:	0a 2c       	mov	r0, r10
     fa0:	02 c0       	rjmp	.+4      	; 0xfa6 <_Z5Debugv+0x7c8>
     fa2:	95 95       	asr	r25
     fa4:	87 95       	ror	r24
     fa6:	0a 94       	dec	r0
     fa8:	e2 f7       	brpl	.-8      	; 0xfa2 <_Z5Debugv+0x7c4>
     faa:	83 70       	andi	r24, 0x03	; 3
     fac:	80 5d       	subi	r24, 0xD0	; 208
     fae:	90 e0       	ldi	r25, 0x00	; 0
     fb0:	88 97       	sbiw	r24, 0x28	; 40
     fb2:	7c 01       	movw	r14, r24
     fb4:	ee 0c       	add	r14, r14
     fb6:	ff 1c       	adc	r15, r15
     fb8:	ee 0c       	add	r14, r14
     fba:	ff 1c       	adc	r15, r15
     fbc:	8e 0d       	add	r24, r14
     fbe:	9f 1d       	adc	r25, r15
     fc0:	8c 01       	movw	r16, r24
     fc2:	09 5d       	subi	r16, 0xD9	; 217
     fc4:	1f 4f       	sbci	r17, 0xFF	; 255
     fc6:	fc 01       	movw	r30, r24
     fc8:	e4 5d       	subi	r30, 0xD4	; 212
     fca:	ff 4f       	sbci	r31, 0xFF	; 255
     fcc:	7f 01       	movw	r14, r30
     fce:	c8 01       	movw	r24, r16
     fd0:	0e 94 32 16 	call	0x2c64	; 0x2c64 <eeprom_read_byte>
     fd4:	8f b9       	out	0x0f, r24	; 15
     fd6:	77 9b       	sbis	0x0e, 7	; 14
     fd8:	fe cf       	rjmp	.-4      	; 0xfd6 <_Z5Debugv+0x7f8>
     fda:	0f 5f       	subi	r16, 0xFF	; 255
     fdc:	1f 4f       	sbci	r17, 0xFF	; 255
     fde:	0e 15       	cp	r16, r14
     fe0:	1f 05       	cpc	r17, r15
     fe2:	a9 f7       	brne	.-22     	; 0xfce <_Z5Debugv+0x7f0>
     fe4:	1f b8       	out	0x0f, r1	; 15
     fe6:	77 9b       	sbis	0x0e, 7	; 14
     fe8:	fe cf       	rjmp	.-4      	; 0xfe6 <_Z5Debugv+0x808>
     fea:	d3 01       	movw	r26, r6
     fec:	8d 91       	ld	r24, X+
     fee:	9c 91       	ld	r25, X
     ff0:	dc 01       	movw	r26, r24
     ff2:	ed 91       	ld	r30, X+
     ff4:	fc 91       	ld	r31, X
     ff6:	00 88       	ldd	r0, Z+16	; 0x10
     ff8:	f1 89       	ldd	r31, Z+17	; 0x11
     ffa:	e0 2d       	mov	r30, r0
     ffc:	09 95       	icall
     ffe:	b2 e0       	ldi	r27, 0x02	; 2
    1000:	ab 0e       	add	r10, r27
    1002:	b1 1c       	adc	r11, r1
    1004:	e8 e0       	ldi	r30, 0x08	; 8
    1006:	ae 16       	cp	r10, r30
    1008:	b1 04       	cpc	r11, r1
    100a:	09 f0       	breq	.+2      	; 0x100e <_Z5Debugv+0x830>
    100c:	bd cf       	rjmp	.-134    	; 0xf88 <_Z5Debugv+0x7aa>
    100e:	80 91 2c 03 	lds	r24, 0x032C	; 0x80032c <debugDisplay>
    1012:	90 91 2d 03 	lds	r25, 0x032D	; 0x80032d <debugDisplay+0x1>
    1016:	dc 01       	movw	r26, r24
    1018:	ed 91       	ld	r30, X+
    101a:	fc 91       	ld	r31, X
    101c:	06 84       	ldd	r0, Z+14	; 0x0e
    101e:	f7 85       	ldd	r31, Z+15	; 0x0f
    1020:	e0 2d       	mov	r30, r0
    1022:	09 95       	icall
    1024:	0b ec       	ldi	r16, 0xCB	; 203
    1026:	11 e0       	ldi	r17, 0x01	; 1
    1028:	c8 01       	movw	r24, r16
    102a:	0e 94 32 16 	call	0x2c64	; 0x2c64 <eeprom_read_byte>
    102e:	8f b9       	out	0x0f, r24	; 15
    1030:	77 9b       	sbis	0x0e, 7	; 14
    1032:	fe cf       	rjmp	.-4      	; 0x1030 <_Z5Debugv+0x852>
    1034:	0f 5f       	subi	r16, 0xFF	; 255
    1036:	1f 4f       	sbci	r17, 0xFF	; 255
    1038:	c0 16       	cp	r12, r16
    103a:	d1 06       	cpc	r13, r17
    103c:	a9 f7       	brne	.-22     	; 0x1028 <_Z5Debugv+0x84a>
    103e:	1f b8       	out	0x0f, r1	; 15
    1040:	77 9b       	sbis	0x0e, 7	; 14
    1042:	fe cf       	rjmp	.-4      	; 0x1040 <_Z5Debugv+0x862>
    1044:	0c e2       	ldi	r16, 0x2C	; 44
    1046:	13 e0       	ldi	r17, 0x03	; 3
    1048:	f8 01       	movw	r30, r16
    104a:	80 81       	ld	r24, Z
    104c:	91 81       	ldd	r25, Z+1	; 0x01
    104e:	dc 01       	movw	r26, r24
    1050:	ed 91       	ld	r30, X+
    1052:	fc 91       	ld	r31, X
    1054:	00 88       	ldd	r0, Z+16	; 0x10
    1056:	f1 89       	ldd	r31, Z+17	; 0x11
    1058:	e0 2d       	mov	r30, r0
    105a:	09 95       	icall
    105c:	47 b2       	in	r4, 0x17	; 23
    105e:	f8 01       	movw	r30, r16
    1060:	80 81       	ld	r24, Z
    1062:	91 81       	ldd	r25, Z+1	; 0x01
    1064:	dc 01       	movw	r26, r24
    1066:	ed 91       	ld	r30, X+
    1068:	fc 91       	ld	r31, X
    106a:	06 84       	ldd	r0, Z+14	; 0x0e
    106c:	f7 85       	ldd	r31, Z+15	; 0x0f
    106e:	e0 2d       	mov	r30, r0
    1070:	09 95       	icall
    1072:	0b ec       	ldi	r16, 0xCB	; 203
    1074:	11 e0       	ldi	r17, 0x01	; 1
    1076:	c8 01       	movw	r24, r16
    1078:	0e 94 32 16 	call	0x2c64	; 0x2c64 <eeprom_read_byte>
    107c:	8f b9       	out	0x0f, r24	; 15
    107e:	77 9b       	sbis	0x0e, 7	; 14
    1080:	fe cf       	rjmp	.-4      	; 0x107e <_Z5Debugv+0x8a0>
    1082:	0f 5f       	subi	r16, 0xFF	; 255
    1084:	1f 4f       	sbci	r17, 0xFF	; 255
    1086:	c0 16       	cp	r12, r16
    1088:	d1 06       	cpc	r13, r17
    108a:	a9 f7       	brne	.-22     	; 0x1076 <_Z5Debugv+0x898>
    108c:	1f b8       	out	0x0f, r1	; 15
    108e:	77 9b       	sbis	0x0e, 7	; 14
    1090:	fe cf       	rjmp	.-4      	; 0x108e <_Z5Debugv+0x8b0>
    1092:	80 91 2c 03 	lds	r24, 0x032C	; 0x80032c <debugDisplay>
    1096:	90 91 2d 03 	lds	r25, 0x032D	; 0x80032d <debugDisplay+0x1>
    109a:	dc 01       	movw	r26, r24
    109c:	ed 91       	ld	r30, X+
    109e:	fc 91       	ld	r31, X
    10a0:	00 88       	ldd	r0, Z+16	; 0x10
    10a2:	f1 89       	ldd	r31, Z+17	; 0x11
    10a4:	e0 2d       	mov	r30, r0
    10a6:	09 95       	icall
    10a8:	a1 2c       	mov	r10, r1
    10aa:	b1 2c       	mov	r11, r1
    10ac:	0f 2e       	mov	r0, r31
    10ae:	fc e2       	ldi	r31, 0x2C	; 44
    10b0:	6f 2e       	mov	r6, r31
    10b2:	f3 e0       	ldi	r31, 0x03	; 3
    10b4:	7f 2e       	mov	r7, r31
    10b6:	f0 2d       	mov	r31, r0
    10b8:	51 2c       	mov	r5, r1
    10ba:	f3 01       	movw	r30, r6
    10bc:	80 81       	ld	r24, Z
    10be:	91 81       	ldd	r25, Z+1	; 0x01
    10c0:	dc 01       	movw	r26, r24
    10c2:	ed 91       	ld	r30, X+
    10c4:	fc 91       	ld	r31, X
    10c6:	06 84       	ldd	r0, Z+14	; 0x0e
    10c8:	f7 85       	ldd	r31, Z+15	; 0x0f
    10ca:	e0 2d       	mov	r30, r0
    10cc:	09 95       	icall
    10ce:	c2 01       	movw	r24, r4
    10d0:	0a 2c       	mov	r0, r10
    10d2:	02 c0       	rjmp	.+4      	; 0x10d8 <_Z5Debugv+0x8fa>
    10d4:	95 95       	asr	r25
    10d6:	87 95       	ror	r24
    10d8:	0a 94       	dec	r0
    10da:	e2 f7       	brpl	.-8      	; 0x10d4 <_Z5Debugv+0x8f6>
    10dc:	83 70       	andi	r24, 0x03	; 3
    10de:	80 5d       	subi	r24, 0xD0	; 208
    10e0:	90 e0       	ldi	r25, 0x00	; 0
    10e2:	88 97       	sbiw	r24, 0x28	; 40
    10e4:	7c 01       	movw	r14, r24
    10e6:	ee 0c       	add	r14, r14
    10e8:	ff 1c       	adc	r15, r15
    10ea:	ee 0c       	add	r14, r14
    10ec:	ff 1c       	adc	r15, r15
    10ee:	8e 0d       	add	r24, r14
    10f0:	9f 1d       	adc	r25, r15
    10f2:	8c 01       	movw	r16, r24
    10f4:	09 5d       	subi	r16, 0xD9	; 217
    10f6:	1f 4f       	sbci	r17, 0xFF	; 255
    10f8:	fc 01       	movw	r30, r24
    10fa:	e4 5d       	subi	r30, 0xD4	; 212
    10fc:	ff 4f       	sbci	r31, 0xFF	; 255
    10fe:	7f 01       	movw	r14, r30
    1100:	c8 01       	movw	r24, r16
    1102:	0e 94 32 16 	call	0x2c64	; 0x2c64 <eeprom_read_byte>
    1106:	8f b9       	out	0x0f, r24	; 15
    1108:	77 9b       	sbis	0x0e, 7	; 14
    110a:	fe cf       	rjmp	.-4      	; 0x1108 <_Z5Debugv+0x92a>
    110c:	0f 5f       	subi	r16, 0xFF	; 255
    110e:	1f 4f       	sbci	r17, 0xFF	; 255
    1110:	0e 15       	cp	r16, r14
    1112:	1f 05       	cpc	r17, r15
    1114:	a9 f7       	brne	.-22     	; 0x1100 <_Z5Debugv+0x922>
    1116:	1f b8       	out	0x0f, r1	; 15
    1118:	77 9b       	sbis	0x0e, 7	; 14
    111a:	fe cf       	rjmp	.-4      	; 0x1118 <_Z5Debugv+0x93a>
    111c:	d3 01       	movw	r26, r6
    111e:	8d 91       	ld	r24, X+
    1120:	9c 91       	ld	r25, X
    1122:	dc 01       	movw	r26, r24
    1124:	ed 91       	ld	r30, X+
    1126:	fc 91       	ld	r31, X
    1128:	00 88       	ldd	r0, Z+16	; 0x10
    112a:	f1 89       	ldd	r31, Z+17	; 0x11
    112c:	e0 2d       	mov	r30, r0
    112e:	09 95       	icall
    1130:	b2 e0       	ldi	r27, 0x02	; 2
    1132:	ab 0e       	add	r10, r27
    1134:	b1 1c       	adc	r11, r1
    1136:	e8 e0       	ldi	r30, 0x08	; 8
    1138:	ae 16       	cp	r10, r30
    113a:	b1 04       	cpc	r11, r1
    113c:	09 f0       	breq	.+2      	; 0x1140 <_Z5Debugv+0x962>
    113e:	bd cf       	rjmp	.-134    	; 0x10ba <_Z5Debugv+0x8dc>
    1140:	80 91 2c 03 	lds	r24, 0x032C	; 0x80032c <debugDisplay>
    1144:	90 91 2d 03 	lds	r25, 0x032D	; 0x80032d <debugDisplay+0x1>
    1148:	dc 01       	movw	r26, r24
    114a:	ed 91       	ld	r30, X+
    114c:	fc 91       	ld	r31, X
    114e:	06 84       	ldd	r0, Z+14	; 0x0e
    1150:	f7 85       	ldd	r31, Z+15	; 0x0f
    1152:	e0 2d       	mov	r30, r0
    1154:	09 95       	icall
    1156:	0b ec       	ldi	r16, 0xCB	; 203
    1158:	11 e0       	ldi	r17, 0x01	; 1
    115a:	c8 01       	movw	r24, r16
    115c:	0e 94 32 16 	call	0x2c64	; 0x2c64 <eeprom_read_byte>
    1160:	8f b9       	out	0x0f, r24	; 15
    1162:	77 9b       	sbis	0x0e, 7	; 14
    1164:	fe cf       	rjmp	.-4      	; 0x1162 <_Z5Debugv+0x984>
    1166:	0f 5f       	subi	r16, 0xFF	; 255
    1168:	1f 4f       	sbci	r17, 0xFF	; 255
    116a:	c0 16       	cp	r12, r16
    116c:	d1 06       	cpc	r13, r17
    116e:	a9 f7       	brne	.-22     	; 0x115a <_Z5Debugv+0x97c>
    1170:	1f b8       	out	0x0f, r1	; 15
    1172:	77 9b       	sbis	0x0e, 7	; 14
    1174:	fe cf       	rjmp	.-4      	; 0x1172 <_Z5Debugv+0x994>
    1176:	0c e2       	ldi	r16, 0x2C	; 44
    1178:	13 e0       	ldi	r17, 0x03	; 3
    117a:	f8 01       	movw	r30, r16
    117c:	80 81       	ld	r24, Z
    117e:	91 81       	ldd	r25, Z+1	; 0x01
    1180:	dc 01       	movw	r26, r24
    1182:	ed 91       	ld	r30, X+
    1184:	fc 91       	ld	r31, X
    1186:	00 88       	ldd	r0, Z+16	; 0x10
    1188:	f1 89       	ldd	r31, Z+17	; 0x11
    118a:	e0 2d       	mov	r30, r0
    118c:	09 95       	icall
    118e:	46 b2       	in	r4, 0x16	; 22
    1190:	f8 01       	movw	r30, r16
    1192:	80 81       	ld	r24, Z
    1194:	91 81       	ldd	r25, Z+1	; 0x01
    1196:	dc 01       	movw	r26, r24
    1198:	ed 91       	ld	r30, X+
    119a:	fc 91       	ld	r31, X
    119c:	06 84       	ldd	r0, Z+14	; 0x0e
    119e:	f7 85       	ldd	r31, Z+15	; 0x0f
    11a0:	e0 2d       	mov	r30, r0
    11a2:	09 95       	icall
    11a4:	0b ec       	ldi	r16, 0xCB	; 203
    11a6:	11 e0       	ldi	r17, 0x01	; 1
    11a8:	c8 01       	movw	r24, r16
    11aa:	0e 94 32 16 	call	0x2c64	; 0x2c64 <eeprom_read_byte>
    11ae:	8f b9       	out	0x0f, r24	; 15
    11b0:	77 9b       	sbis	0x0e, 7	; 14
    11b2:	fe cf       	rjmp	.-4      	; 0x11b0 <_Z5Debugv+0x9d2>
    11b4:	0f 5f       	subi	r16, 0xFF	; 255
    11b6:	1f 4f       	sbci	r17, 0xFF	; 255
    11b8:	c0 16       	cp	r12, r16
    11ba:	d1 06       	cpc	r13, r17
    11bc:	a9 f7       	brne	.-22     	; 0x11a8 <_Z5Debugv+0x9ca>
    11be:	1f b8       	out	0x0f, r1	; 15
    11c0:	77 9b       	sbis	0x0e, 7	; 14
    11c2:	fe cf       	rjmp	.-4      	; 0x11c0 <_Z5Debugv+0x9e2>
    11c4:	80 91 2c 03 	lds	r24, 0x032C	; 0x80032c <debugDisplay>
    11c8:	90 91 2d 03 	lds	r25, 0x032D	; 0x80032d <debugDisplay+0x1>
    11cc:	dc 01       	movw	r26, r24
    11ce:	ed 91       	ld	r30, X+
    11d0:	fc 91       	ld	r31, X
    11d2:	00 88       	ldd	r0, Z+16	; 0x10
    11d4:	f1 89       	ldd	r31, Z+17	; 0x11
    11d6:	e0 2d       	mov	r30, r0
    11d8:	09 95       	icall
    11da:	a1 2c       	mov	r10, r1
    11dc:	b1 2c       	mov	r11, r1
    11de:	0f 2e       	mov	r0, r31
    11e0:	fc e2       	ldi	r31, 0x2C	; 44
    11e2:	6f 2e       	mov	r6, r31
    11e4:	f3 e0       	ldi	r31, 0x03	; 3
    11e6:	7f 2e       	mov	r7, r31
    11e8:	f0 2d       	mov	r31, r0
    11ea:	51 2c       	mov	r5, r1
    11ec:	f3 01       	movw	r30, r6
    11ee:	80 81       	ld	r24, Z
    11f0:	91 81       	ldd	r25, Z+1	; 0x01
    11f2:	dc 01       	movw	r26, r24
    11f4:	ed 91       	ld	r30, X+
    11f6:	fc 91       	ld	r31, X
    11f8:	06 84       	ldd	r0, Z+14	; 0x0e
    11fa:	f7 85       	ldd	r31, Z+15	; 0x0f
    11fc:	e0 2d       	mov	r30, r0
    11fe:	09 95       	icall
    1200:	c2 01       	movw	r24, r4
    1202:	0a 2c       	mov	r0, r10
    1204:	02 c0       	rjmp	.+4      	; 0x120a <_Z5Debugv+0xa2c>
    1206:	95 95       	asr	r25
    1208:	87 95       	ror	r24
    120a:	0a 94       	dec	r0
    120c:	e2 f7       	brpl	.-8      	; 0x1206 <_Z5Debugv+0xa28>
    120e:	83 70       	andi	r24, 0x03	; 3
    1210:	80 5d       	subi	r24, 0xD0	; 208
    1212:	90 e0       	ldi	r25, 0x00	; 0
    1214:	88 97       	sbiw	r24, 0x28	; 40
    1216:	7c 01       	movw	r14, r24
    1218:	ee 0c       	add	r14, r14
    121a:	ff 1c       	adc	r15, r15
    121c:	ee 0c       	add	r14, r14
    121e:	ff 1c       	adc	r15, r15
    1220:	8e 0d       	add	r24, r14
    1222:	9f 1d       	adc	r25, r15
    1224:	8c 01       	movw	r16, r24
    1226:	09 5d       	subi	r16, 0xD9	; 217
    1228:	1f 4f       	sbci	r17, 0xFF	; 255
    122a:	fc 01       	movw	r30, r24
    122c:	e4 5d       	subi	r30, 0xD4	; 212
    122e:	ff 4f       	sbci	r31, 0xFF	; 255
    1230:	7f 01       	movw	r14, r30
    1232:	c8 01       	movw	r24, r16
    1234:	0e 94 32 16 	call	0x2c64	; 0x2c64 <eeprom_read_byte>
    1238:	8f b9       	out	0x0f, r24	; 15
    123a:	77 9b       	sbis	0x0e, 7	; 14
    123c:	fe cf       	rjmp	.-4      	; 0x123a <_Z5Debugv+0xa5c>
    123e:	0f 5f       	subi	r16, 0xFF	; 255
    1240:	1f 4f       	sbci	r17, 0xFF	; 255
    1242:	0e 15       	cp	r16, r14
    1244:	1f 05       	cpc	r17, r15
    1246:	a9 f7       	brne	.-22     	; 0x1232 <_Z5Debugv+0xa54>
    1248:	1f b8       	out	0x0f, r1	; 15
    124a:	77 9b       	sbis	0x0e, 7	; 14
    124c:	fe cf       	rjmp	.-4      	; 0x124a <_Z5Debugv+0xa6c>
    124e:	d3 01       	movw	r26, r6
    1250:	8d 91       	ld	r24, X+
    1252:	9c 91       	ld	r25, X
    1254:	dc 01       	movw	r26, r24
    1256:	ed 91       	ld	r30, X+
    1258:	fc 91       	ld	r31, X
    125a:	00 88       	ldd	r0, Z+16	; 0x10
    125c:	f1 89       	ldd	r31, Z+17	; 0x11
    125e:	e0 2d       	mov	r30, r0
    1260:	09 95       	icall
    1262:	b2 e0       	ldi	r27, 0x02	; 2
    1264:	ab 0e       	add	r10, r27
    1266:	b1 1c       	adc	r11, r1
    1268:	e8 e0       	ldi	r30, 0x08	; 8
    126a:	ae 16       	cp	r10, r30
    126c:	b1 04       	cpc	r11, r1
    126e:	09 f0       	breq	.+2      	; 0x1272 <_Z5Debugv+0xa94>
    1270:	bd cf       	rjmp	.-134    	; 0x11ec <_Z5Debugv+0xa0e>
    1272:	80 91 2c 03 	lds	r24, 0x032C	; 0x80032c <debugDisplay>
    1276:	90 91 2d 03 	lds	r25, 0x032D	; 0x80032d <debugDisplay+0x1>
    127a:	dc 01       	movw	r26, r24
    127c:	ed 91       	ld	r30, X+
    127e:	fc 91       	ld	r31, X
    1280:	06 84       	ldd	r0, Z+14	; 0x0e
    1282:	f7 85       	ldd	r31, Z+15	; 0x0f
    1284:	e0 2d       	mov	r30, r0
    1286:	09 95       	icall
    1288:	0b ec       	ldi	r16, 0xCB	; 203
    128a:	11 e0       	ldi	r17, 0x01	; 1
    128c:	c8 01       	movw	r24, r16
    128e:	0e 94 32 16 	call	0x2c64	; 0x2c64 <eeprom_read_byte>
    1292:	8f b9       	out	0x0f, r24	; 15
    1294:	77 9b       	sbis	0x0e, 7	; 14
    1296:	fe cf       	rjmp	.-4      	; 0x1294 <_Z5Debugv+0xab6>
    1298:	0f 5f       	subi	r16, 0xFF	; 255
    129a:	1f 4f       	sbci	r17, 0xFF	; 255
    129c:	c0 16       	cp	r12, r16
    129e:	d1 06       	cpc	r13, r17
    12a0:	a9 f7       	brne	.-22     	; 0x128c <_Z5Debugv+0xaae>
    12a2:	1f b8       	out	0x0f, r1	; 15
    12a4:	77 9b       	sbis	0x0e, 7	; 14
    12a6:	fe cf       	rjmp	.-4      	; 0x12a4 <_Z5Debugv+0xac6>
    12a8:	0c e2       	ldi	r16, 0x2C	; 44
    12aa:	13 e0       	ldi	r17, 0x03	; 3
    12ac:	f8 01       	movw	r30, r16
    12ae:	80 81       	ld	r24, Z
    12b0:	91 81       	ldd	r25, Z+1	; 0x01
    12b2:	dc 01       	movw	r26, r24
    12b4:	ed 91       	ld	r30, X+
    12b6:	fc 91       	ld	r31, X
    12b8:	00 88       	ldd	r0, Z+16	; 0x10
    12ba:	f1 89       	ldd	r31, Z+17	; 0x11
    12bc:	e0 2d       	mov	r30, r0
    12be:	09 95       	icall
    12c0:	43 e0       	ldi	r20, 0x03	; 3
    12c2:	50 e0       	ldi	r21, 0x00	; 0
    12c4:	6e e1       	ldi	r22, 0x1E	; 30
    12c6:	70 e0       	ldi	r23, 0x00	; 0
    12c8:	ce 01       	movw	r24, r28
    12ca:	01 96       	adiw	r24, 0x01	; 1
    12cc:	0e 94 22 16 	call	0x2c44	; 0x2c44 <eeprom_read_block>
    12d0:	f8 01       	movw	r30, r16
    12d2:	80 81       	ld	r24, Z
    12d4:	91 81       	ldd	r25, Z+1	; 0x01
    12d6:	dc 01       	movw	r26, r24
    12d8:	ed 91       	ld	r30, X+
    12da:	fc 91       	ld	r31, X
    12dc:	00 88       	ldd	r0, Z+16	; 0x10
    12de:	f1 89       	ldd	r31, Z+17	; 0x11
    12e0:	e0 2d       	mov	r30, r0
    12e2:	09 95       	icall
    12e4:	f8 01       	movw	r30, r16
    12e6:	86 8d       	ldd	r24, Z+30	; 0x1e
    12e8:	8f b9       	out	0x0f, r24	; 15
    12ea:	77 9b       	sbis	0x0e, 7	; 14
    12ec:	fe cf       	rjmp	.-4      	; 0x12ea <_Z5Debugv+0xb0c>
    12ee:	83 eb       	ldi	r24, 0xB3	; 179
    12f0:	8f b9       	out	0x0f, r24	; 15
    12f2:	77 9b       	sbis	0x0e, 7	; 14
    12f4:	fe cf       	rjmp	.-4      	; 0x12f2 <_Z5Debugv+0xb14>
    12f6:	80 91 4b 03 	lds	r24, 0x034B	; 0x80034b <debugDisplay+0x1f>
    12fa:	8f b9       	out	0x0f, r24	; 15
    12fc:	77 9b       	sbis	0x0e, 7	; 14
    12fe:	fe cf       	rjmp	.-4      	; 0x12fc <_Z5Debugv+0xb1e>
    1300:	80 91 2c 03 	lds	r24, 0x032C	; 0x80032c <debugDisplay>
    1304:	90 91 2d 03 	lds	r25, 0x032D	; 0x80032d <debugDisplay+0x1>
    1308:	dc 01       	movw	r26, r24
    130a:	ed 91       	ld	r30, X+
    130c:	fc 91       	ld	r31, X
    130e:	06 84       	ldd	r0, Z+14	; 0x0e
    1310:	f7 85       	ldd	r31, Z+15	; 0x0f
    1312:	e0 2d       	mov	r30, r0
    1314:	09 95       	icall
    1316:	1f b8       	out	0x0f, r1	; 15
    1318:	77 9b       	sbis	0x0e, 7	; 14
    131a:	fe cf       	rjmp	.-4      	; 0x1318 <_Z5Debugv+0xb3a>
    131c:	80 91 2c 03 	lds	r24, 0x032C	; 0x80032c <debugDisplay>
    1320:	90 91 2d 03 	lds	r25, 0x032D	; 0x80032d <debugDisplay+0x1>
    1324:	dc 01       	movw	r26, r24
    1326:	ed 91       	ld	r30, X+
    1328:	fc 91       	ld	r31, X
    132a:	06 84       	ldd	r0, Z+14	; 0x0e
    132c:	f7 85       	ldd	r31, Z+15	; 0x0f
    132e:	e0 2d       	mov	r30, r0
    1330:	09 95       	icall
    1332:	59 80       	ldd	r5, Y+1	; 0x01
    1334:	55 20       	and	r5, r5
    1336:	09 f4       	brne	.+2      	; 0x133a <_Z5Debugv+0xb5c>
    1338:	49 c0       	rjmp	.+146    	; 0x13cc <_Z5Debugv+0xbee>
    133a:	5e 01       	movw	r10, r28
    133c:	b2 e0       	ldi	r27, 0x02	; 2
    133e:	ab 0e       	add	r10, r27
    1340:	b1 1c       	adc	r11, r1
    1342:	0f 2e       	mov	r0, r31
    1344:	fc e2       	ldi	r31, 0x2C	; 44
    1346:	6f 2e       	mov	r6, r31
    1348:	f3 e0       	ldi	r31, 0x03	; 3
    134a:	7f 2e       	mov	r7, r31
    134c:	f0 2d       	mov	r31, r0
    134e:	f3 01       	movw	r30, r6
    1350:	80 81       	ld	r24, Z
    1352:	91 81       	ldd	r25, Z+1	; 0x01
    1354:	dc 01       	movw	r26, r24
    1356:	ed 91       	ld	r30, X+
    1358:	fc 91       	ld	r31, X
    135a:	06 84       	ldd	r0, Z+14	; 0x0e
    135c:	f7 85       	ldd	r31, Z+15	; 0x0f
    135e:	e0 2d       	mov	r30, r0
    1360:	09 95       	icall
    1362:	85 2d       	mov	r24, r5
    1364:	90 e0       	ldi	r25, 0x00	; 0
    1366:	88 97       	sbiw	r24, 0x28	; 40
    1368:	7c 01       	movw	r14, r24
    136a:	ee 0c       	add	r14, r14
    136c:	ff 1c       	adc	r15, r15
    136e:	ee 0c       	add	r14, r14
    1370:	ff 1c       	adc	r15, r15
    1372:	8e 0d       	add	r24, r14
    1374:	9f 1d       	adc	r25, r15
    1376:	8c 01       	movw	r16, r24
    1378:	09 5d       	subi	r16, 0xD9	; 217
    137a:	1f 4f       	sbci	r17, 0xFF	; 255
    137c:	fc 01       	movw	r30, r24
    137e:	e4 5d       	subi	r30, 0xD4	; 212
    1380:	ff 4f       	sbci	r31, 0xFF	; 255
    1382:	7f 01       	movw	r14, r30
    1384:	f0 e2       	ldi	r31, 0x20	; 32
    1386:	5f 12       	cpse	r5, r31
    1388:	04 c0       	rjmp	.+8      	; 0x1392 <_Z5Debugv+0xbb4>
    138a:	1f b8       	out	0x0f, r1	; 15
    138c:	77 9b       	sbis	0x0e, 7	; 14
    138e:	fe cf       	rjmp	.-4      	; 0x138c <_Z5Debugv+0xbae>
    1390:	06 c0       	rjmp	.+12     	; 0x139e <_Z5Debugv+0xbc0>
    1392:	c8 01       	movw	r24, r16
    1394:	0e 94 32 16 	call	0x2c64	; 0x2c64 <eeprom_read_byte>
    1398:	8f b9       	out	0x0f, r24	; 15
    139a:	77 9b       	sbis	0x0e, 7	; 14
    139c:	fe cf       	rjmp	.-4      	; 0x139a <_Z5Debugv+0xbbc>
    139e:	0f 5f       	subi	r16, 0xFF	; 255
    13a0:	1f 4f       	sbci	r17, 0xFF	; 255
    13a2:	0e 15       	cp	r16, r14
    13a4:	1f 05       	cpc	r17, r15
    13a6:	71 f7       	brne	.-36     	; 0x1384 <_Z5Debugv+0xba6>
    13a8:	1f b8       	out	0x0f, r1	; 15
    13aa:	77 9b       	sbis	0x0e, 7	; 14
    13ac:	fe cf       	rjmp	.-4      	; 0x13aa <_Z5Debugv+0xbcc>
    13ae:	d3 01       	movw	r26, r6
    13b0:	8d 91       	ld	r24, X+
    13b2:	9c 91       	ld	r25, X
    13b4:	dc 01       	movw	r26, r24
    13b6:	ed 91       	ld	r30, X+
    13b8:	fc 91       	ld	r31, X
    13ba:	00 88       	ldd	r0, Z+16	; 0x10
    13bc:	f1 89       	ldd	r31, Z+17	; 0x11
    13be:	e0 2d       	mov	r30, r0
    13c0:	09 95       	icall
    13c2:	f5 01       	movw	r30, r10
    13c4:	51 90       	ld	r5, Z+
    13c6:	5f 01       	movw	r10, r30
    13c8:	51 10       	cpse	r5, r1
    13ca:	c1 cf       	rjmp	.-126    	; 0x134e <_Z5Debugv+0xb70>
    13cc:	0c e2       	ldi	r16, 0x2C	; 44
    13ce:	13 e0       	ldi	r17, 0x03	; 3
    13d0:	d8 01       	movw	r26, r16
    13d2:	8d 91       	ld	r24, X+
    13d4:	9c 91       	ld	r25, X
    13d6:	dc 01       	movw	r26, r24
    13d8:	ed 91       	ld	r30, X+
    13da:	fc 91       	ld	r31, X
    13dc:	00 88       	ldd	r0, Z+16	; 0x10
    13de:	f1 89       	ldd	r31, Z+17	; 0x11
    13e0:	e0 2d       	mov	r30, r0
    13e2:	09 95       	icall
    13e4:	45 b2       	in	r4, 0x15	; 21
    13e6:	f8 01       	movw	r30, r16
    13e8:	80 81       	ld	r24, Z
    13ea:	91 81       	ldd	r25, Z+1	; 0x01
    13ec:	dc 01       	movw	r26, r24
    13ee:	ed 91       	ld	r30, X+
    13f0:	fc 91       	ld	r31, X
    13f2:	06 84       	ldd	r0, Z+14	; 0x0e
    13f4:	f7 85       	ldd	r31, Z+15	; 0x0f
    13f6:	e0 2d       	mov	r30, r0
    13f8:	09 95       	icall
    13fa:	0b ec       	ldi	r16, 0xCB	; 203
    13fc:	11 e0       	ldi	r17, 0x01	; 1
    13fe:	c8 01       	movw	r24, r16
    1400:	0e 94 32 16 	call	0x2c64	; 0x2c64 <eeprom_read_byte>
    1404:	8f b9       	out	0x0f, r24	; 15
    1406:	77 9b       	sbis	0x0e, 7	; 14
    1408:	fe cf       	rjmp	.-4      	; 0x1406 <_Z5Debugv+0xc28>
    140a:	0f 5f       	subi	r16, 0xFF	; 255
    140c:	1f 4f       	sbci	r17, 0xFF	; 255
    140e:	c0 16       	cp	r12, r16
    1410:	d1 06       	cpc	r13, r17
    1412:	a9 f7       	brne	.-22     	; 0x13fe <_Z5Debugv+0xc20>
    1414:	1f b8       	out	0x0f, r1	; 15
    1416:	77 9b       	sbis	0x0e, 7	; 14
    1418:	fe cf       	rjmp	.-4      	; 0x1416 <_Z5Debugv+0xc38>
    141a:	80 91 2c 03 	lds	r24, 0x032C	; 0x80032c <debugDisplay>
    141e:	90 91 2d 03 	lds	r25, 0x032D	; 0x80032d <debugDisplay+0x1>
    1422:	dc 01       	movw	r26, r24
    1424:	ed 91       	ld	r30, X+
    1426:	fc 91       	ld	r31, X
    1428:	00 88       	ldd	r0, Z+16	; 0x10
    142a:	f1 89       	ldd	r31, Z+17	; 0x11
    142c:	e0 2d       	mov	r30, r0
    142e:	09 95       	icall
    1430:	a1 2c       	mov	r10, r1
    1432:	b1 2c       	mov	r11, r1
    1434:	0f 2e       	mov	r0, r31
    1436:	fc e2       	ldi	r31, 0x2C	; 44
    1438:	6f 2e       	mov	r6, r31
    143a:	f3 e0       	ldi	r31, 0x03	; 3
    143c:	7f 2e       	mov	r7, r31
    143e:	f0 2d       	mov	r31, r0
    1440:	51 2c       	mov	r5, r1
    1442:	f3 01       	movw	r30, r6
    1444:	80 81       	ld	r24, Z
    1446:	91 81       	ldd	r25, Z+1	; 0x01
    1448:	dc 01       	movw	r26, r24
    144a:	ed 91       	ld	r30, X+
    144c:	fc 91       	ld	r31, X
    144e:	06 84       	ldd	r0, Z+14	; 0x0e
    1450:	f7 85       	ldd	r31, Z+15	; 0x0f
    1452:	e0 2d       	mov	r30, r0
    1454:	09 95       	icall
    1456:	c2 01       	movw	r24, r4
    1458:	0a 2c       	mov	r0, r10
    145a:	02 c0       	rjmp	.+4      	; 0x1460 <_Z5Debugv+0xc82>
    145c:	95 95       	asr	r25
    145e:	87 95       	ror	r24
    1460:	0a 94       	dec	r0
    1462:	e2 f7       	brpl	.-8      	; 0x145c <_Z5Debugv+0xc7e>
    1464:	83 70       	andi	r24, 0x03	; 3
    1466:	80 5d       	subi	r24, 0xD0	; 208
    1468:	90 e0       	ldi	r25, 0x00	; 0
    146a:	88 97       	sbiw	r24, 0x28	; 40
    146c:	7c 01       	movw	r14, r24
    146e:	ee 0c       	add	r14, r14
    1470:	ff 1c       	adc	r15, r15
    1472:	ee 0c       	add	r14, r14
    1474:	ff 1c       	adc	r15, r15
    1476:	8e 0d       	add	r24, r14
    1478:	9f 1d       	adc	r25, r15
    147a:	8c 01       	movw	r16, r24
    147c:	09 5d       	subi	r16, 0xD9	; 217
    147e:	1f 4f       	sbci	r17, 0xFF	; 255
    1480:	fc 01       	movw	r30, r24
    1482:	e4 5d       	subi	r30, 0xD4	; 212
    1484:	ff 4f       	sbci	r31, 0xFF	; 255
    1486:	7f 01       	movw	r14, r30
    1488:	c8 01       	movw	r24, r16
    148a:	0e 94 32 16 	call	0x2c64	; 0x2c64 <eeprom_read_byte>
    148e:	8f b9       	out	0x0f, r24	; 15
    1490:	77 9b       	sbis	0x0e, 7	; 14
    1492:	fe cf       	rjmp	.-4      	; 0x1490 <_Z5Debugv+0xcb2>
    1494:	0f 5f       	subi	r16, 0xFF	; 255
    1496:	1f 4f       	sbci	r17, 0xFF	; 255
    1498:	0e 15       	cp	r16, r14
    149a:	1f 05       	cpc	r17, r15
    149c:	a9 f7       	brne	.-22     	; 0x1488 <_Z5Debugv+0xcaa>
    149e:	1f b8       	out	0x0f, r1	; 15
    14a0:	77 9b       	sbis	0x0e, 7	; 14
    14a2:	fe cf       	rjmp	.-4      	; 0x14a0 <_Z5Debugv+0xcc2>
    14a4:	d3 01       	movw	r26, r6
    14a6:	8d 91       	ld	r24, X+
    14a8:	9c 91       	ld	r25, X
    14aa:	dc 01       	movw	r26, r24
    14ac:	ed 91       	ld	r30, X+
    14ae:	fc 91       	ld	r31, X
    14b0:	00 88       	ldd	r0, Z+16	; 0x10
    14b2:	f1 89       	ldd	r31, Z+17	; 0x11
    14b4:	e0 2d       	mov	r30, r0
    14b6:	09 95       	icall
    14b8:	b2 e0       	ldi	r27, 0x02	; 2
    14ba:	ab 0e       	add	r10, r27
    14bc:	b1 1c       	adc	r11, r1
    14be:	e8 e0       	ldi	r30, 0x08	; 8
    14c0:	ae 16       	cp	r10, r30
    14c2:	b1 04       	cpc	r11, r1
    14c4:	09 f0       	breq	.+2      	; 0x14c8 <_Z5Debugv+0xcea>
    14c6:	bd cf       	rjmp	.-134    	; 0x1442 <_Z5Debugv+0xc64>
    14c8:	80 91 2c 03 	lds	r24, 0x032C	; 0x80032c <debugDisplay>
    14cc:	90 91 2d 03 	lds	r25, 0x032D	; 0x80032d <debugDisplay+0x1>
    14d0:	dc 01       	movw	r26, r24
    14d2:	ed 91       	ld	r30, X+
    14d4:	fc 91       	ld	r31, X
    14d6:	06 84       	ldd	r0, Z+14	; 0x0e
    14d8:	f7 85       	ldd	r31, Z+15	; 0x0f
    14da:	e0 2d       	mov	r30, r0
    14dc:	09 95       	icall
    14de:	0b ec       	ldi	r16, 0xCB	; 203
    14e0:	11 e0       	ldi	r17, 0x01	; 1
    14e2:	c8 01       	movw	r24, r16
    14e4:	0e 94 32 16 	call	0x2c64	; 0x2c64 <eeprom_read_byte>
    14e8:	8f b9       	out	0x0f, r24	; 15
    14ea:	77 9b       	sbis	0x0e, 7	; 14
    14ec:	fe cf       	rjmp	.-4      	; 0x14ea <_Z5Debugv+0xd0c>
    14ee:	0f 5f       	subi	r16, 0xFF	; 255
    14f0:	1f 4f       	sbci	r17, 0xFF	; 255
    14f2:	c0 16       	cp	r12, r16
    14f4:	d1 06       	cpc	r13, r17
    14f6:	a9 f7       	brne	.-22     	; 0x14e2 <_Z5Debugv+0xd04>
    14f8:	1f b8       	out	0x0f, r1	; 15
    14fa:	77 9b       	sbis	0x0e, 7	; 14
    14fc:	fe cf       	rjmp	.-4      	; 0x14fa <_Z5Debugv+0xd1c>
    14fe:	0c e2       	ldi	r16, 0x2C	; 44
    1500:	13 e0       	ldi	r17, 0x03	; 3
    1502:	f8 01       	movw	r30, r16
    1504:	80 81       	ld	r24, Z
    1506:	91 81       	ldd	r25, Z+1	; 0x01
    1508:	dc 01       	movw	r26, r24
    150a:	ed 91       	ld	r30, X+
    150c:	fc 91       	ld	r31, X
    150e:	00 88       	ldd	r0, Z+16	; 0x10
    1510:	f1 89       	ldd	r31, Z+17	; 0x11
    1512:	e0 2d       	mov	r30, r0
    1514:	09 95       	icall
    1516:	44 b2       	in	r4, 0x14	; 20
    1518:	f8 01       	movw	r30, r16
    151a:	80 81       	ld	r24, Z
    151c:	91 81       	ldd	r25, Z+1	; 0x01
    151e:	dc 01       	movw	r26, r24
    1520:	ed 91       	ld	r30, X+
    1522:	fc 91       	ld	r31, X
    1524:	06 84       	ldd	r0, Z+14	; 0x0e
    1526:	f7 85       	ldd	r31, Z+15	; 0x0f
    1528:	e0 2d       	mov	r30, r0
    152a:	09 95       	icall
    152c:	0b ec       	ldi	r16, 0xCB	; 203
    152e:	11 e0       	ldi	r17, 0x01	; 1
    1530:	c8 01       	movw	r24, r16
    1532:	0e 94 32 16 	call	0x2c64	; 0x2c64 <eeprom_read_byte>
    1536:	8f b9       	out	0x0f, r24	; 15
    1538:	77 9b       	sbis	0x0e, 7	; 14
    153a:	fe cf       	rjmp	.-4      	; 0x1538 <_Z5Debugv+0xd5a>
    153c:	0f 5f       	subi	r16, 0xFF	; 255
    153e:	1f 4f       	sbci	r17, 0xFF	; 255
    1540:	c0 16       	cp	r12, r16
    1542:	d1 06       	cpc	r13, r17
    1544:	a9 f7       	brne	.-22     	; 0x1530 <_Z5Debugv+0xd52>
    1546:	1f b8       	out	0x0f, r1	; 15
    1548:	77 9b       	sbis	0x0e, 7	; 14
    154a:	fe cf       	rjmp	.-4      	; 0x1548 <_Z5Debugv+0xd6a>
    154c:	80 91 2c 03 	lds	r24, 0x032C	; 0x80032c <debugDisplay>
    1550:	90 91 2d 03 	lds	r25, 0x032D	; 0x80032d <debugDisplay+0x1>
    1554:	dc 01       	movw	r26, r24
    1556:	ed 91       	ld	r30, X+
    1558:	fc 91       	ld	r31, X
    155a:	00 88       	ldd	r0, Z+16	; 0x10
    155c:	f1 89       	ldd	r31, Z+17	; 0x11
    155e:	e0 2d       	mov	r30, r0
    1560:	09 95       	icall
    1562:	a1 2c       	mov	r10, r1
    1564:	b1 2c       	mov	r11, r1
    1566:	0f 2e       	mov	r0, r31
    1568:	fc e2       	ldi	r31, 0x2C	; 44
    156a:	6f 2e       	mov	r6, r31
    156c:	f3 e0       	ldi	r31, 0x03	; 3
    156e:	7f 2e       	mov	r7, r31
    1570:	f0 2d       	mov	r31, r0
    1572:	51 2c       	mov	r5, r1
    1574:	f3 01       	movw	r30, r6
    1576:	80 81       	ld	r24, Z
    1578:	91 81       	ldd	r25, Z+1	; 0x01
    157a:	dc 01       	movw	r26, r24
    157c:	ed 91       	ld	r30, X+
    157e:	fc 91       	ld	r31, X
    1580:	06 84       	ldd	r0, Z+14	; 0x0e
    1582:	f7 85       	ldd	r31, Z+15	; 0x0f
    1584:	e0 2d       	mov	r30, r0
    1586:	09 95       	icall
    1588:	c2 01       	movw	r24, r4
    158a:	0a 2c       	mov	r0, r10
    158c:	02 c0       	rjmp	.+4      	; 0x1592 <_Z5Debugv+0xdb4>
    158e:	95 95       	asr	r25
    1590:	87 95       	ror	r24
    1592:	0a 94       	dec	r0
    1594:	e2 f7       	brpl	.-8      	; 0x158e <_Z5Debugv+0xdb0>
    1596:	83 70       	andi	r24, 0x03	; 3
    1598:	80 5d       	subi	r24, 0xD0	; 208
    159a:	90 e0       	ldi	r25, 0x00	; 0
    159c:	88 97       	sbiw	r24, 0x28	; 40
    159e:	7c 01       	movw	r14, r24
    15a0:	ee 0c       	add	r14, r14
    15a2:	ff 1c       	adc	r15, r15
    15a4:	ee 0c       	add	r14, r14
    15a6:	ff 1c       	adc	r15, r15
    15a8:	8e 0d       	add	r24, r14
    15aa:	9f 1d       	adc	r25, r15
    15ac:	8c 01       	movw	r16, r24
    15ae:	09 5d       	subi	r16, 0xD9	; 217
    15b0:	1f 4f       	sbci	r17, 0xFF	; 255
    15b2:	fc 01       	movw	r30, r24
    15b4:	e4 5d       	subi	r30, 0xD4	; 212
    15b6:	ff 4f       	sbci	r31, 0xFF	; 255
    15b8:	7f 01       	movw	r14, r30
    15ba:	c8 01       	movw	r24, r16
    15bc:	0e 94 32 16 	call	0x2c64	; 0x2c64 <eeprom_read_byte>
    15c0:	8f b9       	out	0x0f, r24	; 15
    15c2:	77 9b       	sbis	0x0e, 7	; 14
    15c4:	fe cf       	rjmp	.-4      	; 0x15c2 <_Z5Debugv+0xde4>
    15c6:	0f 5f       	subi	r16, 0xFF	; 255
    15c8:	1f 4f       	sbci	r17, 0xFF	; 255
    15ca:	0e 15       	cp	r16, r14
    15cc:	1f 05       	cpc	r17, r15
    15ce:	a9 f7       	brne	.-22     	; 0x15ba <_Z5Debugv+0xddc>
    15d0:	1f b8       	out	0x0f, r1	; 15
    15d2:	77 9b       	sbis	0x0e, 7	; 14
    15d4:	fe cf       	rjmp	.-4      	; 0x15d2 <_Z5Debugv+0xdf4>
    15d6:	d3 01       	movw	r26, r6
    15d8:	8d 91       	ld	r24, X+
    15da:	9c 91       	ld	r25, X
    15dc:	dc 01       	movw	r26, r24
    15de:	ed 91       	ld	r30, X+
    15e0:	fc 91       	ld	r31, X
    15e2:	00 88       	ldd	r0, Z+16	; 0x10
    15e4:	f1 89       	ldd	r31, Z+17	; 0x11
    15e6:	e0 2d       	mov	r30, r0
    15e8:	09 95       	icall
    15ea:	b2 e0       	ldi	r27, 0x02	; 2
    15ec:	ab 0e       	add	r10, r27
    15ee:	b1 1c       	adc	r11, r1
    15f0:	e8 e0       	ldi	r30, 0x08	; 8
    15f2:	ae 16       	cp	r10, r30
    15f4:	b1 04       	cpc	r11, r1
    15f6:	09 f0       	breq	.+2      	; 0x15fa <_Z5Debugv+0xe1c>
    15f8:	bd cf       	rjmp	.-134    	; 0x1574 <_Z5Debugv+0xd96>
    15fa:	80 91 2c 03 	lds	r24, 0x032C	; 0x80032c <debugDisplay>
    15fe:	90 91 2d 03 	lds	r25, 0x032D	; 0x80032d <debugDisplay+0x1>
    1602:	dc 01       	movw	r26, r24
    1604:	ed 91       	ld	r30, X+
    1606:	fc 91       	ld	r31, X
    1608:	06 84       	ldd	r0, Z+14	; 0x0e
    160a:	f7 85       	ldd	r31, Z+15	; 0x0f
    160c:	e0 2d       	mov	r30, r0
    160e:	09 95       	icall
    1610:	0b ec       	ldi	r16, 0xCB	; 203
    1612:	11 e0       	ldi	r17, 0x01	; 1
    1614:	c8 01       	movw	r24, r16
    1616:	0e 94 32 16 	call	0x2c64	; 0x2c64 <eeprom_read_byte>
    161a:	8f b9       	out	0x0f, r24	; 15
    161c:	77 9b       	sbis	0x0e, 7	; 14
    161e:	fe cf       	rjmp	.-4      	; 0x161c <_Z5Debugv+0xe3e>
    1620:	0f 5f       	subi	r16, 0xFF	; 255
    1622:	1f 4f       	sbci	r17, 0xFF	; 255
    1624:	c0 16       	cp	r12, r16
    1626:	d1 06       	cpc	r13, r17
    1628:	a9 f7       	brne	.-22     	; 0x1614 <_Z5Debugv+0xe36>
    162a:	1f b8       	out	0x0f, r1	; 15
    162c:	77 9b       	sbis	0x0e, 7	; 14
    162e:	fe cf       	rjmp	.-4      	; 0x162c <_Z5Debugv+0xe4e>
    1630:	0c e2       	ldi	r16, 0x2C	; 44
    1632:	13 e0       	ldi	r17, 0x03	; 3
    1634:	f8 01       	movw	r30, r16
    1636:	80 81       	ld	r24, Z
    1638:	91 81       	ldd	r25, Z+1	; 0x01
    163a:	dc 01       	movw	r26, r24
    163c:	ed 91       	ld	r30, X+
    163e:	fc 91       	ld	r31, X
    1640:	00 88       	ldd	r0, Z+16	; 0x10
    1642:	f1 89       	ldd	r31, Z+17	; 0x11
    1644:	e0 2d       	mov	r30, r0
    1646:	09 95       	icall
    1648:	43 b2       	in	r4, 0x13	; 19
    164a:	f8 01       	movw	r30, r16
    164c:	80 81       	ld	r24, Z
    164e:	91 81       	ldd	r25, Z+1	; 0x01
    1650:	dc 01       	movw	r26, r24
    1652:	ed 91       	ld	r30, X+
    1654:	fc 91       	ld	r31, X
    1656:	06 84       	ldd	r0, Z+14	; 0x0e
    1658:	f7 85       	ldd	r31, Z+15	; 0x0f
    165a:	e0 2d       	mov	r30, r0
    165c:	09 95       	icall
    165e:	0b ec       	ldi	r16, 0xCB	; 203
    1660:	11 e0       	ldi	r17, 0x01	; 1
    1662:	c8 01       	movw	r24, r16
    1664:	0e 94 32 16 	call	0x2c64	; 0x2c64 <eeprom_read_byte>
    1668:	8f b9       	out	0x0f, r24	; 15
    166a:	77 9b       	sbis	0x0e, 7	; 14
    166c:	fe cf       	rjmp	.-4      	; 0x166a <_Z5Debugv+0xe8c>
    166e:	0f 5f       	subi	r16, 0xFF	; 255
    1670:	1f 4f       	sbci	r17, 0xFF	; 255
    1672:	c0 16       	cp	r12, r16
    1674:	d1 06       	cpc	r13, r17
    1676:	a9 f7       	brne	.-22     	; 0x1662 <_Z5Debugv+0xe84>
    1678:	1f b8       	out	0x0f, r1	; 15
    167a:	77 9b       	sbis	0x0e, 7	; 14
    167c:	fe cf       	rjmp	.-4      	; 0x167a <_Z5Debugv+0xe9c>
    167e:	80 91 2c 03 	lds	r24, 0x032C	; 0x80032c <debugDisplay>
    1682:	90 91 2d 03 	lds	r25, 0x032D	; 0x80032d <debugDisplay+0x1>
    1686:	dc 01       	movw	r26, r24
    1688:	ed 91       	ld	r30, X+
    168a:	fc 91       	ld	r31, X
    168c:	00 88       	ldd	r0, Z+16	; 0x10
    168e:	f1 89       	ldd	r31, Z+17	; 0x11
    1690:	e0 2d       	mov	r30, r0
    1692:	09 95       	icall
    1694:	a1 2c       	mov	r10, r1
    1696:	b1 2c       	mov	r11, r1
    1698:	0f 2e       	mov	r0, r31
    169a:	fc e2       	ldi	r31, 0x2C	; 44
    169c:	6f 2e       	mov	r6, r31
    169e:	f3 e0       	ldi	r31, 0x03	; 3
    16a0:	7f 2e       	mov	r7, r31
    16a2:	f0 2d       	mov	r31, r0
    16a4:	51 2c       	mov	r5, r1
    16a6:	f3 01       	movw	r30, r6
    16a8:	80 81       	ld	r24, Z
    16aa:	91 81       	ldd	r25, Z+1	; 0x01
    16ac:	dc 01       	movw	r26, r24
    16ae:	ed 91       	ld	r30, X+
    16b0:	fc 91       	ld	r31, X
    16b2:	06 84       	ldd	r0, Z+14	; 0x0e
    16b4:	f7 85       	ldd	r31, Z+15	; 0x0f
    16b6:	e0 2d       	mov	r30, r0
    16b8:	09 95       	icall
    16ba:	c2 01       	movw	r24, r4
    16bc:	0a 2c       	mov	r0, r10
    16be:	02 c0       	rjmp	.+4      	; 0x16c4 <_Z5Debugv+0xee6>
    16c0:	95 95       	asr	r25
    16c2:	87 95       	ror	r24
    16c4:	0a 94       	dec	r0
    16c6:	e2 f7       	brpl	.-8      	; 0x16c0 <_Z5Debugv+0xee2>
    16c8:	83 70       	andi	r24, 0x03	; 3
    16ca:	80 5d       	subi	r24, 0xD0	; 208
    16cc:	90 e0       	ldi	r25, 0x00	; 0
    16ce:	88 97       	sbiw	r24, 0x28	; 40
    16d0:	7c 01       	movw	r14, r24
    16d2:	ee 0c       	add	r14, r14
    16d4:	ff 1c       	adc	r15, r15
    16d6:	ee 0c       	add	r14, r14
    16d8:	ff 1c       	adc	r15, r15
    16da:	8e 0d       	add	r24, r14
    16dc:	9f 1d       	adc	r25, r15
    16de:	8c 01       	movw	r16, r24
    16e0:	09 5d       	subi	r16, 0xD9	; 217
    16e2:	1f 4f       	sbci	r17, 0xFF	; 255
    16e4:	fc 01       	movw	r30, r24
    16e6:	e4 5d       	subi	r30, 0xD4	; 212
    16e8:	ff 4f       	sbci	r31, 0xFF	; 255
    16ea:	7f 01       	movw	r14, r30
    16ec:	c8 01       	movw	r24, r16
    16ee:	0e 94 32 16 	call	0x2c64	; 0x2c64 <eeprom_read_byte>
    16f2:	8f b9       	out	0x0f, r24	; 15
    16f4:	77 9b       	sbis	0x0e, 7	; 14
    16f6:	fe cf       	rjmp	.-4      	; 0x16f4 <_Z5Debugv+0xf16>
    16f8:	0f 5f       	subi	r16, 0xFF	; 255
    16fa:	1f 4f       	sbci	r17, 0xFF	; 255
    16fc:	0e 15       	cp	r16, r14
    16fe:	1f 05       	cpc	r17, r15
    1700:	a9 f7       	brne	.-22     	; 0x16ec <_Z5Debugv+0xf0e>
    1702:	1f b8       	out	0x0f, r1	; 15
    1704:	77 9b       	sbis	0x0e, 7	; 14
    1706:	fe cf       	rjmp	.-4      	; 0x1704 <_Z5Debugv+0xf26>
    1708:	d3 01       	movw	r26, r6
    170a:	8d 91       	ld	r24, X+
    170c:	9c 91       	ld	r25, X
    170e:	dc 01       	movw	r26, r24
    1710:	ed 91       	ld	r30, X+
    1712:	fc 91       	ld	r31, X
    1714:	00 88       	ldd	r0, Z+16	; 0x10
    1716:	f1 89       	ldd	r31, Z+17	; 0x11
    1718:	e0 2d       	mov	r30, r0
    171a:	09 95       	icall
    171c:	b2 e0       	ldi	r27, 0x02	; 2
    171e:	ab 0e       	add	r10, r27
    1720:	b1 1c       	adc	r11, r1
    1722:	e8 e0       	ldi	r30, 0x08	; 8
    1724:	ae 16       	cp	r10, r30
    1726:	b1 04       	cpc	r11, r1
    1728:	09 f0       	breq	.+2      	; 0x172c <_Z5Debugv+0xf4e>
    172a:	bd cf       	rjmp	.-134    	; 0x16a6 <_Z5Debugv+0xec8>
    172c:	80 91 2c 03 	lds	r24, 0x032C	; 0x80032c <debugDisplay>
    1730:	90 91 2d 03 	lds	r25, 0x032D	; 0x80032d <debugDisplay+0x1>
    1734:	dc 01       	movw	r26, r24
    1736:	ed 91       	ld	r30, X+
    1738:	fc 91       	ld	r31, X
    173a:	06 84       	ldd	r0, Z+14	; 0x0e
    173c:	f7 85       	ldd	r31, Z+15	; 0x0f
    173e:	e0 2d       	mov	r30, r0
    1740:	09 95       	icall
    1742:	0b ec       	ldi	r16, 0xCB	; 203
    1744:	11 e0       	ldi	r17, 0x01	; 1
    1746:	c8 01       	movw	r24, r16
    1748:	0e 94 32 16 	call	0x2c64	; 0x2c64 <eeprom_read_byte>
    174c:	8f b9       	out	0x0f, r24	; 15
    174e:	77 9b       	sbis	0x0e, 7	; 14
    1750:	fe cf       	rjmp	.-4      	; 0x174e <_Z5Debugv+0xf70>
    1752:	0f 5f       	subi	r16, 0xFF	; 255
    1754:	1f 4f       	sbci	r17, 0xFF	; 255
    1756:	c0 16       	cp	r12, r16
    1758:	d1 06       	cpc	r13, r17
    175a:	a9 f7       	brne	.-22     	; 0x1746 <_Z5Debugv+0xf68>
    175c:	1f b8       	out	0x0f, r1	; 15
    175e:	77 9b       	sbis	0x0e, 7	; 14
    1760:	fe cf       	rjmp	.-4      	; 0x175e <_Z5Debugv+0xf80>
    1762:	0c e2       	ldi	r16, 0x2C	; 44
    1764:	13 e0       	ldi	r17, 0x03	; 3
    1766:	f8 01       	movw	r30, r16
    1768:	80 81       	ld	r24, Z
    176a:	91 81       	ldd	r25, Z+1	; 0x01
    176c:	dc 01       	movw	r26, r24
    176e:	ed 91       	ld	r30, X+
    1770:	fc 91       	ld	r31, X
    1772:	00 88       	ldd	r0, Z+16	; 0x10
    1774:	f1 89       	ldd	r31, Z+17	; 0x11
    1776:	e0 2d       	mov	r30, r0
    1778:	09 95       	icall
    177a:	43 e0       	ldi	r20, 0x03	; 3
    177c:	50 e0       	ldi	r21, 0x00	; 0
    177e:	6b e1       	ldi	r22, 0x1B	; 27
    1780:	70 e0       	ldi	r23, 0x00	; 0
    1782:	ce 01       	movw	r24, r28
    1784:	01 96       	adiw	r24, 0x01	; 1
    1786:	0e 94 22 16 	call	0x2c44	; 0x2c44 <eeprom_read_block>
    178a:	f8 01       	movw	r30, r16
    178c:	80 81       	ld	r24, Z
    178e:	91 81       	ldd	r25, Z+1	; 0x01
    1790:	dc 01       	movw	r26, r24
    1792:	ed 91       	ld	r30, X+
    1794:	fc 91       	ld	r31, X
    1796:	00 88       	ldd	r0, Z+16	; 0x10
    1798:	f1 89       	ldd	r31, Z+17	; 0x11
    179a:	e0 2d       	mov	r30, r0
    179c:	09 95       	icall
    179e:	f8 01       	movw	r30, r16
    17a0:	86 8d       	ldd	r24, Z+30	; 0x1e
    17a2:	8f b9       	out	0x0f, r24	; 15
    17a4:	77 9b       	sbis	0x0e, 7	; 14
    17a6:	fe cf       	rjmp	.-4      	; 0x17a4 <_Z5Debugv+0xfc6>
    17a8:	84 eb       	ldi	r24, 0xB4	; 180
    17aa:	8f b9       	out	0x0f, r24	; 15
    17ac:	77 9b       	sbis	0x0e, 7	; 14
    17ae:	fe cf       	rjmp	.-4      	; 0x17ac <_Z5Debugv+0xfce>
    17b0:	80 91 4b 03 	lds	r24, 0x034B	; 0x80034b <debugDisplay+0x1f>
    17b4:	8f b9       	out	0x0f, r24	; 15
    17b6:	77 9b       	sbis	0x0e, 7	; 14
    17b8:	fe cf       	rjmp	.-4      	; 0x17b6 <_Z5Debugv+0xfd8>
    17ba:	80 91 2c 03 	lds	r24, 0x032C	; 0x80032c <debugDisplay>
    17be:	90 91 2d 03 	lds	r25, 0x032D	; 0x80032d <debugDisplay+0x1>
    17c2:	dc 01       	movw	r26, r24
    17c4:	ed 91       	ld	r30, X+
    17c6:	fc 91       	ld	r31, X
    17c8:	06 84       	ldd	r0, Z+14	; 0x0e
    17ca:	f7 85       	ldd	r31, Z+15	; 0x0f
    17cc:	e0 2d       	mov	r30, r0
    17ce:	09 95       	icall
    17d0:	1f b8       	out	0x0f, r1	; 15
    17d2:	77 9b       	sbis	0x0e, 7	; 14
    17d4:	fe cf       	rjmp	.-4      	; 0x17d2 <_Z5Debugv+0xff4>
    17d6:	80 91 2c 03 	lds	r24, 0x032C	; 0x80032c <debugDisplay>
    17da:	90 91 2d 03 	lds	r25, 0x032D	; 0x80032d <debugDisplay+0x1>
    17de:	dc 01       	movw	r26, r24
    17e0:	ed 91       	ld	r30, X+
    17e2:	fc 91       	ld	r31, X
    17e4:	06 84       	ldd	r0, Z+14	; 0x0e
    17e6:	f7 85       	ldd	r31, Z+15	; 0x0f
    17e8:	e0 2d       	mov	r30, r0
    17ea:	09 95       	icall
    17ec:	59 80       	ldd	r5, Y+1	; 0x01
    17ee:	55 20       	and	r5, r5
    17f0:	09 f4       	brne	.+2      	; 0x17f4 <_Z5Debugv+0x1016>
    17f2:	49 c0       	rjmp	.+146    	; 0x1886 <_Z5Debugv+0x10a8>
    17f4:	5e 01       	movw	r10, r28
    17f6:	b2 e0       	ldi	r27, 0x02	; 2
    17f8:	ab 0e       	add	r10, r27
    17fa:	b1 1c       	adc	r11, r1
    17fc:	0f 2e       	mov	r0, r31
    17fe:	fc e2       	ldi	r31, 0x2C	; 44
    1800:	6f 2e       	mov	r6, r31
    1802:	f3 e0       	ldi	r31, 0x03	; 3
    1804:	7f 2e       	mov	r7, r31
    1806:	f0 2d       	mov	r31, r0
    1808:	f3 01       	movw	r30, r6
    180a:	80 81       	ld	r24, Z
    180c:	91 81       	ldd	r25, Z+1	; 0x01
    180e:	dc 01       	movw	r26, r24
    1810:	ed 91       	ld	r30, X+
    1812:	fc 91       	ld	r31, X
    1814:	06 84       	ldd	r0, Z+14	; 0x0e
    1816:	f7 85       	ldd	r31, Z+15	; 0x0f
    1818:	e0 2d       	mov	r30, r0
    181a:	09 95       	icall
    181c:	85 2d       	mov	r24, r5
    181e:	90 e0       	ldi	r25, 0x00	; 0
    1820:	88 97       	sbiw	r24, 0x28	; 40
    1822:	7c 01       	movw	r14, r24
    1824:	ee 0c       	add	r14, r14
    1826:	ff 1c       	adc	r15, r15
    1828:	ee 0c       	add	r14, r14
    182a:	ff 1c       	adc	r15, r15
    182c:	8e 0d       	add	r24, r14
    182e:	9f 1d       	adc	r25, r15
    1830:	8c 01       	movw	r16, r24
    1832:	09 5d       	subi	r16, 0xD9	; 217
    1834:	1f 4f       	sbci	r17, 0xFF	; 255
    1836:	fc 01       	movw	r30, r24
    1838:	e4 5d       	subi	r30, 0xD4	; 212
    183a:	ff 4f       	sbci	r31, 0xFF	; 255
    183c:	7f 01       	movw	r14, r30
    183e:	f0 e2       	ldi	r31, 0x20	; 32
    1840:	5f 12       	cpse	r5, r31
    1842:	04 c0       	rjmp	.+8      	; 0x184c <_Z5Debugv+0x106e>
    1844:	1f b8       	out	0x0f, r1	; 15
    1846:	77 9b       	sbis	0x0e, 7	; 14
    1848:	fe cf       	rjmp	.-4      	; 0x1846 <_Z5Debugv+0x1068>
    184a:	06 c0       	rjmp	.+12     	; 0x1858 <_Z5Debugv+0x107a>
    184c:	c8 01       	movw	r24, r16
    184e:	0e 94 32 16 	call	0x2c64	; 0x2c64 <eeprom_read_byte>
    1852:	8f b9       	out	0x0f, r24	; 15
    1854:	77 9b       	sbis	0x0e, 7	; 14
    1856:	fe cf       	rjmp	.-4      	; 0x1854 <_Z5Debugv+0x1076>
    1858:	0f 5f       	subi	r16, 0xFF	; 255
    185a:	1f 4f       	sbci	r17, 0xFF	; 255
    185c:	0e 15       	cp	r16, r14
    185e:	1f 05       	cpc	r17, r15
    1860:	71 f7       	brne	.-36     	; 0x183e <_Z5Debugv+0x1060>
    1862:	1f b8       	out	0x0f, r1	; 15
    1864:	77 9b       	sbis	0x0e, 7	; 14
    1866:	fe cf       	rjmp	.-4      	; 0x1864 <_Z5Debugv+0x1086>
    1868:	d3 01       	movw	r26, r6
    186a:	8d 91       	ld	r24, X+
    186c:	9c 91       	ld	r25, X
    186e:	dc 01       	movw	r26, r24
    1870:	ed 91       	ld	r30, X+
    1872:	fc 91       	ld	r31, X
    1874:	00 88       	ldd	r0, Z+16	; 0x10
    1876:	f1 89       	ldd	r31, Z+17	; 0x11
    1878:	e0 2d       	mov	r30, r0
    187a:	09 95       	icall
    187c:	f5 01       	movw	r30, r10
    187e:	51 90       	ld	r5, Z+
    1880:	5f 01       	movw	r10, r30
    1882:	51 10       	cpse	r5, r1
    1884:	c1 cf       	rjmp	.-126    	; 0x1808 <_Z5Debugv+0x102a>
    1886:	0c e2       	ldi	r16, 0x2C	; 44
    1888:	13 e0       	ldi	r17, 0x03	; 3
    188a:	d8 01       	movw	r26, r16
    188c:	8d 91       	ld	r24, X+
    188e:	9c 91       	ld	r25, X
    1890:	dc 01       	movw	r26, r24
    1892:	ed 91       	ld	r30, X+
    1894:	fc 91       	ld	r31, X
    1896:	00 88       	ldd	r0, Z+16	; 0x10
    1898:	f1 89       	ldd	r31, Z+17	; 0x11
    189a:	e0 2d       	mov	r30, r0
    189c:	09 95       	icall
    189e:	42 b2       	in	r4, 0x12	; 18
    18a0:	f8 01       	movw	r30, r16
    18a2:	80 81       	ld	r24, Z
    18a4:	91 81       	ldd	r25, Z+1	; 0x01
    18a6:	dc 01       	movw	r26, r24
    18a8:	ed 91       	ld	r30, X+
    18aa:	fc 91       	ld	r31, X
    18ac:	06 84       	ldd	r0, Z+14	; 0x0e
    18ae:	f7 85       	ldd	r31, Z+15	; 0x0f
    18b0:	e0 2d       	mov	r30, r0
    18b2:	09 95       	icall
    18b4:	0b ec       	ldi	r16, 0xCB	; 203
    18b6:	11 e0       	ldi	r17, 0x01	; 1
    18b8:	c8 01       	movw	r24, r16
    18ba:	0e 94 32 16 	call	0x2c64	; 0x2c64 <eeprom_read_byte>
    18be:	8f b9       	out	0x0f, r24	; 15
    18c0:	77 9b       	sbis	0x0e, 7	; 14
    18c2:	fe cf       	rjmp	.-4      	; 0x18c0 <_Z5Debugv+0x10e2>
    18c4:	0f 5f       	subi	r16, 0xFF	; 255
    18c6:	1f 4f       	sbci	r17, 0xFF	; 255
    18c8:	c0 16       	cp	r12, r16
    18ca:	d1 06       	cpc	r13, r17
    18cc:	a9 f7       	brne	.-22     	; 0x18b8 <_Z5Debugv+0x10da>
    18ce:	1f b8       	out	0x0f, r1	; 15
    18d0:	77 9b       	sbis	0x0e, 7	; 14
    18d2:	fe cf       	rjmp	.-4      	; 0x18d0 <_Z5Debugv+0x10f2>
    18d4:	80 91 2c 03 	lds	r24, 0x032C	; 0x80032c <debugDisplay>
    18d8:	90 91 2d 03 	lds	r25, 0x032D	; 0x80032d <debugDisplay+0x1>
    18dc:	dc 01       	movw	r26, r24
    18de:	ed 91       	ld	r30, X+
    18e0:	fc 91       	ld	r31, X
    18e2:	00 88       	ldd	r0, Z+16	; 0x10
    18e4:	f1 89       	ldd	r31, Z+17	; 0x11
    18e6:	e0 2d       	mov	r30, r0
    18e8:	09 95       	icall
    18ea:	a1 2c       	mov	r10, r1
    18ec:	b1 2c       	mov	r11, r1
    18ee:	0f 2e       	mov	r0, r31
    18f0:	fc e2       	ldi	r31, 0x2C	; 44
    18f2:	6f 2e       	mov	r6, r31
    18f4:	f3 e0       	ldi	r31, 0x03	; 3
    18f6:	7f 2e       	mov	r7, r31
    18f8:	f0 2d       	mov	r31, r0
    18fa:	51 2c       	mov	r5, r1
    18fc:	f3 01       	movw	r30, r6
    18fe:	80 81       	ld	r24, Z
    1900:	91 81       	ldd	r25, Z+1	; 0x01
    1902:	dc 01       	movw	r26, r24
    1904:	ed 91       	ld	r30, X+
    1906:	fc 91       	ld	r31, X
    1908:	06 84       	ldd	r0, Z+14	; 0x0e
    190a:	f7 85       	ldd	r31, Z+15	; 0x0f
    190c:	e0 2d       	mov	r30, r0
    190e:	09 95       	icall
    1910:	c2 01       	movw	r24, r4
    1912:	0a 2c       	mov	r0, r10
    1914:	02 c0       	rjmp	.+4      	; 0x191a <_Z5Debugv+0x113c>
    1916:	95 95       	asr	r25
    1918:	87 95       	ror	r24
    191a:	0a 94       	dec	r0
    191c:	e2 f7       	brpl	.-8      	; 0x1916 <_Z5Debugv+0x1138>
    191e:	83 70       	andi	r24, 0x03	; 3
    1920:	80 5d       	subi	r24, 0xD0	; 208
    1922:	90 e0       	ldi	r25, 0x00	; 0
    1924:	88 97       	sbiw	r24, 0x28	; 40
    1926:	7c 01       	movw	r14, r24
    1928:	ee 0c       	add	r14, r14
    192a:	ff 1c       	adc	r15, r15
    192c:	ee 0c       	add	r14, r14
    192e:	ff 1c       	adc	r15, r15
    1930:	8e 0d       	add	r24, r14
    1932:	9f 1d       	adc	r25, r15
    1934:	8c 01       	movw	r16, r24
    1936:	09 5d       	subi	r16, 0xD9	; 217
    1938:	1f 4f       	sbci	r17, 0xFF	; 255
    193a:	fc 01       	movw	r30, r24
    193c:	e4 5d       	subi	r30, 0xD4	; 212
    193e:	ff 4f       	sbci	r31, 0xFF	; 255
    1940:	7f 01       	movw	r14, r30
    1942:	c8 01       	movw	r24, r16
    1944:	0e 94 32 16 	call	0x2c64	; 0x2c64 <eeprom_read_byte>
    1948:	8f b9       	out	0x0f, r24	; 15
    194a:	77 9b       	sbis	0x0e, 7	; 14
    194c:	fe cf       	rjmp	.-4      	; 0x194a <_Z5Debugv+0x116c>
    194e:	0f 5f       	subi	r16, 0xFF	; 255
    1950:	1f 4f       	sbci	r17, 0xFF	; 255
    1952:	0e 15       	cp	r16, r14
    1954:	1f 05       	cpc	r17, r15
    1956:	a9 f7       	brne	.-22     	; 0x1942 <_Z5Debugv+0x1164>
    1958:	1f b8       	out	0x0f, r1	; 15
    195a:	77 9b       	sbis	0x0e, 7	; 14
    195c:	fe cf       	rjmp	.-4      	; 0x195a <_Z5Debugv+0x117c>
    195e:	d3 01       	movw	r26, r6
    1960:	8d 91       	ld	r24, X+
    1962:	9c 91       	ld	r25, X
    1964:	dc 01       	movw	r26, r24
    1966:	ed 91       	ld	r30, X+
    1968:	fc 91       	ld	r31, X
    196a:	00 88       	ldd	r0, Z+16	; 0x10
    196c:	f1 89       	ldd	r31, Z+17	; 0x11
    196e:	e0 2d       	mov	r30, r0
    1970:	09 95       	icall
    1972:	b2 e0       	ldi	r27, 0x02	; 2
    1974:	ab 0e       	add	r10, r27
    1976:	b1 1c       	adc	r11, r1
    1978:	e8 e0       	ldi	r30, 0x08	; 8
    197a:	ae 16       	cp	r10, r30
    197c:	b1 04       	cpc	r11, r1
    197e:	09 f0       	breq	.+2      	; 0x1982 <_Z5Debugv+0x11a4>
    1980:	bd cf       	rjmp	.-134    	; 0x18fc <_Z5Debugv+0x111e>
    1982:	80 91 2c 03 	lds	r24, 0x032C	; 0x80032c <debugDisplay>
    1986:	90 91 2d 03 	lds	r25, 0x032D	; 0x80032d <debugDisplay+0x1>
    198a:	dc 01       	movw	r26, r24
    198c:	ed 91       	ld	r30, X+
    198e:	fc 91       	ld	r31, X
    1990:	06 84       	ldd	r0, Z+14	; 0x0e
    1992:	f7 85       	ldd	r31, Z+15	; 0x0f
    1994:	e0 2d       	mov	r30, r0
    1996:	09 95       	icall
    1998:	0b ec       	ldi	r16, 0xCB	; 203
    199a:	11 e0       	ldi	r17, 0x01	; 1
    199c:	c8 01       	movw	r24, r16
    199e:	0e 94 32 16 	call	0x2c64	; 0x2c64 <eeprom_read_byte>
    19a2:	8f b9       	out	0x0f, r24	; 15
    19a4:	77 9b       	sbis	0x0e, 7	; 14
    19a6:	fe cf       	rjmp	.-4      	; 0x19a4 <_Z5Debugv+0x11c6>
    19a8:	0f 5f       	subi	r16, 0xFF	; 255
    19aa:	1f 4f       	sbci	r17, 0xFF	; 255
    19ac:	c0 16       	cp	r12, r16
    19ae:	d1 06       	cpc	r13, r17
    19b0:	a9 f7       	brne	.-22     	; 0x199c <_Z5Debugv+0x11be>
    19b2:	1f b8       	out	0x0f, r1	; 15
    19b4:	77 9b       	sbis	0x0e, 7	; 14
    19b6:	fe cf       	rjmp	.-4      	; 0x19b4 <_Z5Debugv+0x11d6>
    19b8:	0c e2       	ldi	r16, 0x2C	; 44
    19ba:	13 e0       	ldi	r17, 0x03	; 3
    19bc:	f8 01       	movw	r30, r16
    19be:	80 81       	ld	r24, Z
    19c0:	91 81       	ldd	r25, Z+1	; 0x01
    19c2:	dc 01       	movw	r26, r24
    19c4:	ed 91       	ld	r30, X+
    19c6:	fc 91       	ld	r31, X
    19c8:	00 88       	ldd	r0, Z+16	; 0x10
    19ca:	f1 89       	ldd	r31, Z+17	; 0x11
    19cc:	e0 2d       	mov	r30, r0
    19ce:	09 95       	icall
    19d0:	41 b2       	in	r4, 0x11	; 17
    19d2:	f8 01       	movw	r30, r16
    19d4:	80 81       	ld	r24, Z
    19d6:	91 81       	ldd	r25, Z+1	; 0x01
    19d8:	dc 01       	movw	r26, r24
    19da:	ed 91       	ld	r30, X+
    19dc:	fc 91       	ld	r31, X
    19de:	06 84       	ldd	r0, Z+14	; 0x0e
    19e0:	f7 85       	ldd	r31, Z+15	; 0x0f
    19e2:	e0 2d       	mov	r30, r0
    19e4:	09 95       	icall
    19e6:	0b ec       	ldi	r16, 0xCB	; 203
    19e8:	11 e0       	ldi	r17, 0x01	; 1
    19ea:	c8 01       	movw	r24, r16
    19ec:	0e 94 32 16 	call	0x2c64	; 0x2c64 <eeprom_read_byte>
    19f0:	8f b9       	out	0x0f, r24	; 15
    19f2:	77 9b       	sbis	0x0e, 7	; 14
    19f4:	fe cf       	rjmp	.-4      	; 0x19f2 <_Z5Debugv+0x1214>
    19f6:	0f 5f       	subi	r16, 0xFF	; 255
    19f8:	1f 4f       	sbci	r17, 0xFF	; 255
    19fa:	c0 16       	cp	r12, r16
    19fc:	d1 06       	cpc	r13, r17
    19fe:	a9 f7       	brne	.-22     	; 0x19ea <_Z5Debugv+0x120c>
    1a00:	1f b8       	out	0x0f, r1	; 15
    1a02:	77 9b       	sbis	0x0e, 7	; 14
    1a04:	fe cf       	rjmp	.-4      	; 0x1a02 <_Z5Debugv+0x1224>
    1a06:	80 91 2c 03 	lds	r24, 0x032C	; 0x80032c <debugDisplay>
    1a0a:	90 91 2d 03 	lds	r25, 0x032D	; 0x80032d <debugDisplay+0x1>
    1a0e:	dc 01       	movw	r26, r24
    1a10:	ed 91       	ld	r30, X+
    1a12:	fc 91       	ld	r31, X
    1a14:	00 88       	ldd	r0, Z+16	; 0x10
    1a16:	f1 89       	ldd	r31, Z+17	; 0x11
    1a18:	e0 2d       	mov	r30, r0
    1a1a:	09 95       	icall
    1a1c:	a1 2c       	mov	r10, r1
    1a1e:	b1 2c       	mov	r11, r1
    1a20:	0f 2e       	mov	r0, r31
    1a22:	fc e2       	ldi	r31, 0x2C	; 44
    1a24:	6f 2e       	mov	r6, r31
    1a26:	f3 e0       	ldi	r31, 0x03	; 3
    1a28:	7f 2e       	mov	r7, r31
    1a2a:	f0 2d       	mov	r31, r0
    1a2c:	51 2c       	mov	r5, r1
    1a2e:	f3 01       	movw	r30, r6
    1a30:	80 81       	ld	r24, Z
    1a32:	91 81       	ldd	r25, Z+1	; 0x01
    1a34:	dc 01       	movw	r26, r24
    1a36:	ed 91       	ld	r30, X+
    1a38:	fc 91       	ld	r31, X
    1a3a:	06 84       	ldd	r0, Z+14	; 0x0e
    1a3c:	f7 85       	ldd	r31, Z+15	; 0x0f
    1a3e:	e0 2d       	mov	r30, r0
    1a40:	09 95       	icall
    1a42:	c2 01       	movw	r24, r4
    1a44:	0a 2c       	mov	r0, r10
    1a46:	02 c0       	rjmp	.+4      	; 0x1a4c <_Z5Debugv+0x126e>
    1a48:	95 95       	asr	r25
    1a4a:	87 95       	ror	r24
    1a4c:	0a 94       	dec	r0
    1a4e:	e2 f7       	brpl	.-8      	; 0x1a48 <_Z5Debugv+0x126a>
    1a50:	83 70       	andi	r24, 0x03	; 3
    1a52:	80 5d       	subi	r24, 0xD0	; 208
    1a54:	90 e0       	ldi	r25, 0x00	; 0
    1a56:	88 97       	sbiw	r24, 0x28	; 40
    1a58:	7c 01       	movw	r14, r24
    1a5a:	ee 0c       	add	r14, r14
    1a5c:	ff 1c       	adc	r15, r15
    1a5e:	ee 0c       	add	r14, r14
    1a60:	ff 1c       	adc	r15, r15
    1a62:	8e 0d       	add	r24, r14
    1a64:	9f 1d       	adc	r25, r15
    1a66:	8c 01       	movw	r16, r24
    1a68:	09 5d       	subi	r16, 0xD9	; 217
    1a6a:	1f 4f       	sbci	r17, 0xFF	; 255
    1a6c:	fc 01       	movw	r30, r24
    1a6e:	e4 5d       	subi	r30, 0xD4	; 212
    1a70:	ff 4f       	sbci	r31, 0xFF	; 255
    1a72:	7f 01       	movw	r14, r30
    1a74:	c8 01       	movw	r24, r16
    1a76:	0e 94 32 16 	call	0x2c64	; 0x2c64 <eeprom_read_byte>
    1a7a:	8f b9       	out	0x0f, r24	; 15
    1a7c:	77 9b       	sbis	0x0e, 7	; 14
    1a7e:	fe cf       	rjmp	.-4      	; 0x1a7c <_Z5Debugv+0x129e>
    1a80:	0f 5f       	subi	r16, 0xFF	; 255
    1a82:	1f 4f       	sbci	r17, 0xFF	; 255
    1a84:	0e 15       	cp	r16, r14
    1a86:	1f 05       	cpc	r17, r15
    1a88:	a9 f7       	brne	.-22     	; 0x1a74 <_Z5Debugv+0x1296>
    1a8a:	1f b8       	out	0x0f, r1	; 15
    1a8c:	77 9b       	sbis	0x0e, 7	; 14
    1a8e:	fe cf       	rjmp	.-4      	; 0x1a8c <_Z5Debugv+0x12ae>
    1a90:	d3 01       	movw	r26, r6
    1a92:	8d 91       	ld	r24, X+
    1a94:	9c 91       	ld	r25, X
    1a96:	dc 01       	movw	r26, r24
    1a98:	ed 91       	ld	r30, X+
    1a9a:	fc 91       	ld	r31, X
    1a9c:	00 88       	ldd	r0, Z+16	; 0x10
    1a9e:	f1 89       	ldd	r31, Z+17	; 0x11
    1aa0:	e0 2d       	mov	r30, r0
    1aa2:	09 95       	icall
    1aa4:	b2 e0       	ldi	r27, 0x02	; 2
    1aa6:	ab 0e       	add	r10, r27
    1aa8:	b1 1c       	adc	r11, r1
    1aaa:	e8 e0       	ldi	r30, 0x08	; 8
    1aac:	ae 16       	cp	r10, r30
    1aae:	b1 04       	cpc	r11, r1
    1ab0:	09 f0       	breq	.+2      	; 0x1ab4 <_Z5Debugv+0x12d6>
    1ab2:	bd cf       	rjmp	.-134    	; 0x1a2e <_Z5Debugv+0x1250>
    1ab4:	80 91 2c 03 	lds	r24, 0x032C	; 0x80032c <debugDisplay>
    1ab8:	90 91 2d 03 	lds	r25, 0x032D	; 0x80032d <debugDisplay+0x1>
    1abc:	dc 01       	movw	r26, r24
    1abe:	ed 91       	ld	r30, X+
    1ac0:	fc 91       	ld	r31, X
    1ac2:	06 84       	ldd	r0, Z+14	; 0x0e
    1ac4:	f7 85       	ldd	r31, Z+15	; 0x0f
    1ac6:	e0 2d       	mov	r30, r0
    1ac8:	09 95       	icall
    1aca:	0b ec       	ldi	r16, 0xCB	; 203
    1acc:	11 e0       	ldi	r17, 0x01	; 1
    1ace:	c8 01       	movw	r24, r16
    1ad0:	0e 94 32 16 	call	0x2c64	; 0x2c64 <eeprom_read_byte>
    1ad4:	8f b9       	out	0x0f, r24	; 15
    1ad6:	77 9b       	sbis	0x0e, 7	; 14
    1ad8:	fe cf       	rjmp	.-4      	; 0x1ad6 <_Z5Debugv+0x12f8>
    1ada:	0f 5f       	subi	r16, 0xFF	; 255
    1adc:	1f 4f       	sbci	r17, 0xFF	; 255
    1ade:	c0 16       	cp	r12, r16
    1ae0:	d1 06       	cpc	r13, r17
    1ae2:	a9 f7       	brne	.-22     	; 0x1ace <_Z5Debugv+0x12f0>
    1ae4:	1f b8       	out	0x0f, r1	; 15
    1ae6:	77 9b       	sbis	0x0e, 7	; 14
    1ae8:	fe cf       	rjmp	.-4      	; 0x1ae6 <_Z5Debugv+0x1308>
    1aea:	0c e2       	ldi	r16, 0x2C	; 44
    1aec:	13 e0       	ldi	r17, 0x03	; 3
    1aee:	f8 01       	movw	r30, r16
    1af0:	80 81       	ld	r24, Z
    1af2:	91 81       	ldd	r25, Z+1	; 0x01
    1af4:	dc 01       	movw	r26, r24
    1af6:	ed 91       	ld	r30, X+
    1af8:	fc 91       	ld	r31, X
    1afa:	00 88       	ldd	r0, Z+16	; 0x10
    1afc:	f1 89       	ldd	r31, Z+17	; 0x11
    1afe:	e0 2d       	mov	r30, r0
    1b00:	09 95       	icall
    1b02:	40 b2       	in	r4, 0x10	; 16
    1b04:	f8 01       	movw	r30, r16
    1b06:	80 81       	ld	r24, Z
    1b08:	91 81       	ldd	r25, Z+1	; 0x01
    1b0a:	dc 01       	movw	r26, r24
    1b0c:	ed 91       	ld	r30, X+
    1b0e:	fc 91       	ld	r31, X
    1b10:	06 84       	ldd	r0, Z+14	; 0x0e
    1b12:	f7 85       	ldd	r31, Z+15	; 0x0f
    1b14:	e0 2d       	mov	r30, r0
    1b16:	09 95       	icall
    1b18:	0b ec       	ldi	r16, 0xCB	; 203
    1b1a:	11 e0       	ldi	r17, 0x01	; 1
    1b1c:	c8 01       	movw	r24, r16
    1b1e:	0e 94 32 16 	call	0x2c64	; 0x2c64 <eeprom_read_byte>
    1b22:	8f b9       	out	0x0f, r24	; 15
    1b24:	77 9b       	sbis	0x0e, 7	; 14
    1b26:	fe cf       	rjmp	.-4      	; 0x1b24 <_Z5Debugv+0x1346>
    1b28:	0f 5f       	subi	r16, 0xFF	; 255
    1b2a:	1f 4f       	sbci	r17, 0xFF	; 255
    1b2c:	c0 16       	cp	r12, r16
    1b2e:	d1 06       	cpc	r13, r17
    1b30:	a9 f7       	brne	.-22     	; 0x1b1c <_Z5Debugv+0x133e>
    1b32:	1f b8       	out	0x0f, r1	; 15
    1b34:	77 9b       	sbis	0x0e, 7	; 14
    1b36:	fe cf       	rjmp	.-4      	; 0x1b34 <_Z5Debugv+0x1356>
    1b38:	80 91 2c 03 	lds	r24, 0x032C	; 0x80032c <debugDisplay>
    1b3c:	90 91 2d 03 	lds	r25, 0x032D	; 0x80032d <debugDisplay+0x1>
    1b40:	dc 01       	movw	r26, r24
    1b42:	ed 91       	ld	r30, X+
    1b44:	fc 91       	ld	r31, X
    1b46:	00 88       	ldd	r0, Z+16	; 0x10
    1b48:	f1 89       	ldd	r31, Z+17	; 0x11
    1b4a:	e0 2d       	mov	r30, r0
    1b4c:	09 95       	icall
    1b4e:	a1 2c       	mov	r10, r1
    1b50:	b1 2c       	mov	r11, r1
    1b52:	0f 2e       	mov	r0, r31
    1b54:	fc e2       	ldi	r31, 0x2C	; 44
    1b56:	6f 2e       	mov	r6, r31
    1b58:	f3 e0       	ldi	r31, 0x03	; 3
    1b5a:	7f 2e       	mov	r7, r31
    1b5c:	f0 2d       	mov	r31, r0
    1b5e:	51 2c       	mov	r5, r1
    1b60:	f3 01       	movw	r30, r6
    1b62:	80 81       	ld	r24, Z
    1b64:	91 81       	ldd	r25, Z+1	; 0x01
    1b66:	dc 01       	movw	r26, r24
    1b68:	ed 91       	ld	r30, X+
    1b6a:	fc 91       	ld	r31, X
    1b6c:	06 84       	ldd	r0, Z+14	; 0x0e
    1b6e:	f7 85       	ldd	r31, Z+15	; 0x0f
    1b70:	e0 2d       	mov	r30, r0
    1b72:	09 95       	icall
    1b74:	c2 01       	movw	r24, r4
    1b76:	0a 2c       	mov	r0, r10
    1b78:	02 c0       	rjmp	.+4      	; 0x1b7e <_Z5Debugv+0x13a0>
    1b7a:	95 95       	asr	r25
    1b7c:	87 95       	ror	r24
    1b7e:	0a 94       	dec	r0
    1b80:	e2 f7       	brpl	.-8      	; 0x1b7a <_Z5Debugv+0x139c>
    1b82:	83 70       	andi	r24, 0x03	; 3
    1b84:	80 5d       	subi	r24, 0xD0	; 208
    1b86:	90 e0       	ldi	r25, 0x00	; 0
    1b88:	88 97       	sbiw	r24, 0x28	; 40
    1b8a:	7c 01       	movw	r14, r24
    1b8c:	ee 0c       	add	r14, r14
    1b8e:	ff 1c       	adc	r15, r15
    1b90:	ee 0c       	add	r14, r14
    1b92:	ff 1c       	adc	r15, r15
    1b94:	8e 0d       	add	r24, r14
    1b96:	9f 1d       	adc	r25, r15
    1b98:	8c 01       	movw	r16, r24
    1b9a:	09 5d       	subi	r16, 0xD9	; 217
    1b9c:	1f 4f       	sbci	r17, 0xFF	; 255
    1b9e:	fc 01       	movw	r30, r24
    1ba0:	e4 5d       	subi	r30, 0xD4	; 212
    1ba2:	ff 4f       	sbci	r31, 0xFF	; 255
    1ba4:	7f 01       	movw	r14, r30
    1ba6:	c8 01       	movw	r24, r16
    1ba8:	0e 94 32 16 	call	0x2c64	; 0x2c64 <eeprom_read_byte>
    1bac:	8f b9       	out	0x0f, r24	; 15
    1bae:	77 9b       	sbis	0x0e, 7	; 14
    1bb0:	fe cf       	rjmp	.-4      	; 0x1bae <_Z5Debugv+0x13d0>
    1bb2:	0f 5f       	subi	r16, 0xFF	; 255
    1bb4:	1f 4f       	sbci	r17, 0xFF	; 255
    1bb6:	0e 15       	cp	r16, r14
    1bb8:	1f 05       	cpc	r17, r15
    1bba:	a9 f7       	brne	.-22     	; 0x1ba6 <_Z5Debugv+0x13c8>
    1bbc:	1f b8       	out	0x0f, r1	; 15
    1bbe:	77 9b       	sbis	0x0e, 7	; 14
    1bc0:	fe cf       	rjmp	.-4      	; 0x1bbe <_Z5Debugv+0x13e0>
    1bc2:	d3 01       	movw	r26, r6
    1bc4:	8d 91       	ld	r24, X+
    1bc6:	9c 91       	ld	r25, X
    1bc8:	dc 01       	movw	r26, r24
    1bca:	ed 91       	ld	r30, X+
    1bcc:	fc 91       	ld	r31, X
    1bce:	00 88       	ldd	r0, Z+16	; 0x10
    1bd0:	f1 89       	ldd	r31, Z+17	; 0x11
    1bd2:	e0 2d       	mov	r30, r0
    1bd4:	09 95       	icall
    1bd6:	b2 e0       	ldi	r27, 0x02	; 2
    1bd8:	ab 0e       	add	r10, r27
    1bda:	b1 1c       	adc	r11, r1
    1bdc:	e8 e0       	ldi	r30, 0x08	; 8
    1bde:	ae 16       	cp	r10, r30
    1be0:	b1 04       	cpc	r11, r1
    1be2:	09 f0       	breq	.+2      	; 0x1be6 <_Z5Debugv+0x1408>
    1be4:	bd cf       	rjmp	.-134    	; 0x1b60 <_Z5Debugv+0x1382>
    1be6:	80 91 2c 03 	lds	r24, 0x032C	; 0x80032c <debugDisplay>
    1bea:	90 91 2d 03 	lds	r25, 0x032D	; 0x80032d <debugDisplay+0x1>
    1bee:	dc 01       	movw	r26, r24
    1bf0:	ed 91       	ld	r30, X+
    1bf2:	fc 91       	ld	r31, X
    1bf4:	06 84       	ldd	r0, Z+14	; 0x0e
    1bf6:	f7 85       	ldd	r31, Z+15	; 0x0f
    1bf8:	e0 2d       	mov	r30, r0
    1bfa:	09 95       	icall
    1bfc:	c4 01       	movw	r24, r8
    1bfe:	0e 94 32 16 	call	0x2c64	; 0x2c64 <eeprom_read_byte>
    1c02:	8f b9       	out	0x0f, r24	; 15
    1c04:	77 9b       	sbis	0x0e, 7	; 14
    1c06:	fe cf       	rjmp	.-4      	; 0x1c04 <_Z5Debugv+0x1426>
    1c08:	bf ef       	ldi	r27, 0xFF	; 255
    1c0a:	8b 1a       	sub	r8, r27
    1c0c:	9b 0a       	sbc	r9, r27
    1c0e:	c8 14       	cp	r12, r8
    1c10:	d9 04       	cpc	r13, r9
    1c12:	a1 f7       	brne	.-24     	; 0x1bfc <_Z5Debugv+0x141e>
    1c14:	1f b8       	out	0x0f, r1	; 15
    1c16:	77 9b       	sbis	0x0e, 7	; 14
    1c18:	fe cf       	rjmp	.-4      	; 0x1c16 <_Z5Debugv+0x1438>
    1c1a:	80 91 2c 03 	lds	r24, 0x032C	; 0x80032c <debugDisplay>
    1c1e:	90 91 2d 03 	lds	r25, 0x032D	; 0x80032d <debugDisplay+0x1>
    1c22:	dc 01       	movw	r26, r24
    1c24:	ed 91       	ld	r30, X+
    1c26:	fc 91       	ld	r31, X
    1c28:	00 88       	ldd	r0, Z+16	; 0x10
    1c2a:	f1 89       	ldd	r31, Z+17	; 0x11
    1c2c:	e0 2d       	mov	r30, r0
    1c2e:	09 95       	icall
    1c30:	6c 96       	adiw	r28, 0x1c	; 28
    1c32:	0f b6       	in	r0, 0x3f	; 63
    1c34:	f8 94       	cli
    1c36:	de bf       	out	0x3e, r29	; 62
    1c38:	0f be       	out	0x3f, r0	; 63
    1c3a:	cd bf       	out	0x3d, r28	; 61
    1c3c:	df 91       	pop	r29
    1c3e:	cf 91       	pop	r28
    1c40:	1f 91       	pop	r17
    1c42:	0f 91       	pop	r16
    1c44:	ff 90       	pop	r15
    1c46:	ef 90       	pop	r14
    1c48:	df 90       	pop	r13
    1c4a:	cf 90       	pop	r12
    1c4c:	bf 90       	pop	r11
    1c4e:	af 90       	pop	r10
    1c50:	9f 90       	pop	r9
    1c52:	8f 90       	pop	r8
    1c54:	7f 90       	pop	r7
    1c56:	6f 90       	pop	r6
    1c58:	5f 90       	pop	r5
    1c5a:	4f 90       	pop	r4
    1c5c:	08 95       	ret

00001c5e <main>:
    1c5e:	0e 94 3e 02 	call	0x47c	; 0x47c <_Z17InitializeProgramv>
    1c62:	ae 98       	cbi	0x15, 6	; 21
    1c64:	af 9a       	sbi	0x15, 7	; 21
    1c66:	bb 24       	eor	r11, r11
    1c68:	b3 94       	inc	r11
    1c6a:	77 24       	eor	r7, r7
    1c6c:	73 94       	inc	r7
    1c6e:	81 2c       	mov	r8, r1
    1c70:	c4 e1       	ldi	r28, 0x14	; 20
    1c72:	d3 e0       	ldi	r29, 0x03	; 3
    1c74:	cc 24       	eor	r12, r12
    1c76:	c3 94       	inc	r12
    1c78:	d1 2c       	mov	r13, r1
    1c7a:	0f 2e       	mov	r0, r31
    1c7c:	f7 e1       	ldi	r31, 0x17	; 23
    1c7e:	9f 2e       	mov	r9, r31
    1c80:	f0 2d       	mov	r31, r0
    1c82:	a1 2c       	mov	r10, r1
    1c84:	0f 2e       	mov	r0, r31
    1c86:	fc e2       	ldi	r31, 0x2C	; 44
    1c88:	ef 2e       	mov	r14, r31
    1c8a:	f3 e0       	ldi	r31, 0x03	; 3
    1c8c:	ff 2e       	mov	r15, r31
    1c8e:	f0 2d       	mov	r31, r0
    1c90:	bb 20       	and	r11, r11
    1c92:	21 f0       	breq	.+8      	; 0x1c9c <main+0x3e>
    1c94:	ae 98       	cbi	0x15, 6	; 21
    1c96:	af 9a       	sbi	0x15, 7	; 21
    1c98:	b8 2c       	mov	r11, r8
    1c9a:	03 c0       	rjmp	.+6      	; 0x1ca2 <main+0x44>
    1c9c:	ae 9a       	sbi	0x15, 6	; 21
    1c9e:	af 98       	cbi	0x15, 7	; 21
    1ca0:	b7 2c       	mov	r11, r7
    1ca2:	8a 81       	ldd	r24, Y+2	; 0x02
    1ca4:	9b 81       	ldd	r25, Y+3	; 0x03
    1ca6:	dc 01       	movw	r26, r24
    1ca8:	ed 91       	ld	r30, X+
    1caa:	fc 91       	ld	r31, X
    1cac:	06 84       	ldd	r0, Z+14	; 0x0e
    1cae:	f7 85       	ldd	r31, Z+15	; 0x0f
    1cb0:	e0 2d       	mov	r30, r0
    1cb2:	09 95       	icall
    1cb4:	8a 81       	ldd	r24, Y+2	; 0x02
    1cb6:	9b 81       	ldd	r25, Y+3	; 0x03
    1cb8:	dc 01       	movw	r26, r24
    1cba:	ed 91       	ld	r30, X+
    1cbc:	fc 91       	ld	r31, X
    1cbe:	00 88       	ldd	r0, Z+16	; 0x10
    1cc0:	f1 89       	ldd	r31, Z+17	; 0x11
    1cc2:	e0 2d       	mov	r30, r0
    1cc4:	09 95       	icall
    1cc6:	df 82       	std	Y+7, r13	; 0x07
    1cc8:	ce 82       	std	Y+6, r12	; 0x06
    1cca:	09 2d       	mov	r16, r9
    1ccc:	1a 2d       	mov	r17, r10
    1cce:	88 81       	ld	r24, Y
    1cd0:	99 81       	ldd	r25, Y+1	; 0x01
    1cd2:	dc 01       	movw	r26, r24
    1cd4:	ed 91       	ld	r30, X+
    1cd6:	fc 91       	ld	r31, X
    1cd8:	00 88       	ldd	r0, Z+16	; 0x10
    1cda:	f1 89       	ldd	r31, Z+17	; 0x11
    1cdc:	e0 2d       	mov	r30, r0
    1cde:	09 95       	icall
    1ce0:	8e 81       	ldd	r24, Y+6	; 0x06
    1ce2:	9f 81       	ldd	r25, Y+7	; 0x07
    1ce4:	88 0f       	add	r24, r24
    1ce6:	99 1f       	adc	r25, r25
    1ce8:	9f 83       	std	Y+7, r25	; 0x07
    1cea:	8e 83       	std	Y+6, r24	; 0x06
    1cec:	8c 81       	ldd	r24, Y+4	; 0x04
    1cee:	9d 81       	ldd	r25, Y+5	; 0x05
    1cf0:	dc 01       	movw	r26, r24
    1cf2:	ed 91       	ld	r30, X+
    1cf4:	fc 91       	ld	r31, X
    1cf6:	04 84       	ldd	r0, Z+12	; 0x0c
    1cf8:	f5 85       	ldd	r31, Z+13	; 0x0d
    1cfa:	e0 2d       	mov	r30, r0
    1cfc:	09 95       	icall
    1cfe:	81 11       	cpse	r24, r1
    1d00:	05 c0       	rjmp	.+10     	; 0x1d0c <main+0xae>
    1d02:	8e 81       	ldd	r24, Y+6	; 0x06
    1d04:	9f 81       	ldd	r25, Y+7	; 0x07
    1d06:	01 96       	adiw	r24, 0x01	; 1
    1d08:	9f 83       	std	Y+7, r25	; 0x07
    1d0a:	8e 83       	std	Y+6, r24	; 0x06
    1d0c:	88 81       	ld	r24, Y
    1d0e:	99 81       	ldd	r25, Y+1	; 0x01
    1d10:	dc 01       	movw	r26, r24
    1d12:	ed 91       	ld	r30, X+
    1d14:	fc 91       	ld	r31, X
    1d16:	06 84       	ldd	r0, Z+14	; 0x0e
    1d18:	f7 85       	ldd	r31, Z+15	; 0x0f
    1d1a:	e0 2d       	mov	r30, r0
    1d1c:	09 95       	icall
    1d1e:	01 50       	subi	r16, 0x01	; 1
    1d20:	11 09       	sbc	r17, r1
    1d22:	a9 f6       	brne	.-86     	; 0x1cce <main+0x70>
    1d24:	8e 81       	ldd	r24, Y+6	; 0x06
    1d26:	9f 81       	ldd	r25, Y+7	; 0x07
    1d28:	f7 01       	movw	r30, r14
    1d2a:	86 81       	ldd	r24, Z+6	; 0x06
    1d2c:	97 81       	ldd	r25, Z+7	; 0x07
    1d2e:	dc 01       	movw	r26, r24
    1d30:	ed 91       	ld	r30, X+
    1d32:	fc 91       	ld	r31, X
    1d34:	00 88       	ldd	r0, Z+16	; 0x10
    1d36:	f1 89       	ldd	r31, Z+17	; 0x11
    1d38:	e0 2d       	mov	r30, r0
    1d3a:	09 95       	icall
    1d3c:	0e 94 ef 03 	call	0x7de	; 0x7de <_Z5Debugv>
    1d40:	f7 01       	movw	r30, r14
    1d42:	86 81       	ldd	r24, Z+6	; 0x06
    1d44:	97 81       	ldd	r25, Z+7	; 0x07
    1d46:	dc 01       	movw	r26, r24
    1d48:	ed 91       	ld	r30, X+
    1d4a:	fc 91       	ld	r31, X
    1d4c:	06 84       	ldd	r0, Z+14	; 0x0e
    1d4e:	f7 85       	ldd	r31, Z+15	; 0x0f
    1d50:	e0 2d       	mov	r30, r0
    1d52:	09 95       	icall
    1d54:	9d cf       	rjmp	.-198    	; 0x1c90 <main+0x32>

00001d56 <_GLOBAL__sub_I__Znwj>:
    1d56:	10 92 6f 03 	sts	0x036F, r1	; 0x80036f <_ZL11Taskmanager+0x10>
    1d5a:	ef e5       	ldi	r30, 0x5F	; 95
    1d5c:	f3 e0       	ldi	r31, 0x03	; 3
    1d5e:	8f e6       	ldi	r24, 0x6F	; 111
    1d60:	93 e0       	ldi	r25, 0x03	; 3
    1d62:	11 92       	st	Z+, r1
    1d64:	11 92       	st	Z+, r1
    1d66:	e8 17       	cp	r30, r24
    1d68:	f9 07       	cpc	r31, r25
    1d6a:	d9 f7       	brne	.-10     	; 0x1d62 <_GLOBAL__sub_I__Znwj+0xc>
    1d6c:	ec e2       	ldi	r30, 0x2C	; 44
    1d6e:	f3 e0       	ldi	r31, 0x03	; 3
    1d70:	80 e8       	ldi	r24, 0x80	; 128
    1d72:	86 87       	std	Z+14, r24	; 0x0e
    1d74:	90 eb       	ldi	r25, 0xB0	; 176
    1d76:	97 87       	std	Z+15, r25	; 0x0f
    1d78:	80 ef       	ldi	r24, 0xF0	; 240
    1d7a:	80 8b       	std	Z+16, r24	; 0x10
    1d7c:	81 e8       	ldi	r24, 0x81	; 129
    1d7e:	81 8b       	std	Z+17, r24	; 0x11
    1d80:	84 ea       	ldi	r24, 0xA4	; 164
    1d82:	82 8b       	std	Z+18, r24	; 0x12
    1d84:	85 ea       	ldi	r24, 0xA5	; 165
    1d86:	83 8b       	std	Z+19, r24	; 0x13
    1d88:	86 ea       	ldi	r24, 0xA6	; 166
    1d8a:	84 8b       	std	Z+20, r24	; 0x14
    1d8c:	87 ea       	ldi	r24, 0xA7	; 167
    1d8e:	85 8b       	std	Z+21, r24	; 0x15
    1d90:	8e ea       	ldi	r24, 0xAE	; 174
    1d92:	86 8b       	std	Z+22, r24	; 0x16
    1d94:	8f ea       	ldi	r24, 0xAF	; 175
    1d96:	87 8b       	std	Z+23, r24	; 0x17
    1d98:	83 ed       	ldi	r24, 0xD3	; 211
    1d9a:	80 8f       	std	Z+24, r24	; 0x18
    1d9c:	8a ed       	ldi	r24, 0xDA	; 218
    1d9e:	81 8f       	std	Z+25, r24	; 0x19
    1da0:	8b ed       	ldi	r24, 0xDB	; 219
    1da2:	82 8f       	std	Z+26, r24	; 0x1a
    1da4:	85 ed       	ldi	r24, 0xD5	; 213
    1da6:	83 8f       	std	Z+27, r24	; 0x1b
    1da8:	89 ed       	ldi	r24, 0xD9	; 217
    1daa:	84 8f       	std	Z+28, r24	; 0x1c
    1dac:	88 ea       	ldi	r24, 0xA8	; 168
    1dae:	85 8f       	std	Z+29, r24	; 0x1d
    1db0:	82 e0       	ldi	r24, 0x02	; 2
    1db2:	86 8f       	std	Z+30, r24	; 0x1e
    1db4:	20 e1       	ldi	r18, 0x10	; 16
    1db6:	27 8f       	std	Z+31, r18	; 0x1f
    1db8:	20 e4       	ldi	r18, 0x40	; 64
    1dba:	20 a3       	std	Z+32, r18	; 0x20
    1dbc:	20 e2       	ldi	r18, 0x20	; 32
    1dbe:	21 a3       	std	Z+33, r18	; 0x21
    1dc0:	21 e2       	ldi	r18, 0x21	; 33
    1dc2:	22 a3       	std	Z+34, r18	; 0x22
    1dc4:	93 a3       	std	Z+35, r25	; 0x23
    1dc6:	90 ec       	ldi	r25, 0xC0	; 192
    1dc8:	94 a3       	std	Z+36, r25	; 0x24
    1dca:	98 ec       	ldi	r25, 0xC8	; 200
    1dcc:	95 a3       	std	Z+37, r25	; 0x25
    1dce:	90 ea       	ldi	r25, 0xA0	; 160
    1dd0:	96 a3       	std	Z+38, r25	; 0x26
    1dd2:	9d ea       	ldi	r25, 0xAD	; 173
    1dd4:	97 a3       	std	Z+39, r25	; 0x27
    1dd6:	9b e8       	ldi	r25, 0x8B	; 139
    1dd8:	90 a7       	std	Z+40, r25	; 0x28
    1dda:	81 a7       	std	Z+41, r24	; 0x29
    1ddc:	8f e2       	ldi	r24, 0x2F	; 47
    1dde:	82 a7       	std	Z+42, r24	; 0x2a
    1de0:	8e e2       	ldi	r24, 0x2E	; 46
    1de2:	83 a7       	std	Z+43, r24	; 0x2b
    1de4:	83 ea       	ldi	r24, 0xA3	; 163
    1de6:	84 a7       	std	Z+44, r24	; 0x2c
    1de8:	86 e2       	ldi	r24, 0x26	; 38
    1dea:	85 a7       	std	Z+45, r24	; 0x2d
    1dec:	87 e2       	ldi	r24, 0x27	; 39
    1dee:	86 a7       	std	Z+46, r24	; 0x2e
    1df0:	89 e2       	ldi	r24, 0x29	; 41
    1df2:	87 a7       	std	Z+47, r24	; 0x2f
    1df4:	8a e2       	ldi	r24, 0x2A	; 42
    1df6:	80 ab       	std	Z+48, r24	; 0x30
    1df8:	8e e7       	ldi	r24, 0x7E	; 126
    1dfa:	90 e0       	ldi	r25, 0x00	; 0
    1dfc:	91 83       	std	Z+1, r25	; 0x01
    1dfe:	80 83       	st	Z, r24
    1e00:	80 e8       	ldi	r24, 0x80	; 128
    1e02:	90 e0       	ldi	r25, 0x00	; 0
    1e04:	93 83       	std	Z+3, r25	; 0x03
    1e06:	82 83       	std	Z+2, r24	; 0x02
    1e08:	64 e7       	ldi	r22, 0x74	; 116
    1e0a:	70 e0       	ldi	r23, 0x00	; 0
    1e0c:	73 87       	std	Z+11, r23	; 0x0b
    1e0e:	62 87       	std	Z+10, r22	; 0x0a
    1e10:	46 e7       	ldi	r20, 0x76	; 118
    1e12:	50 e0       	ldi	r21, 0x00	; 0
    1e14:	55 83       	std	Z+5, r21	; 0x05
    1e16:	44 83       	std	Z+4, r20	; 0x04
    1e18:	8c e7       	ldi	r24, 0x7C	; 124
    1e1a:	90 e0       	ldi	r25, 0x00	; 0
    1e1c:	97 83       	std	Z+7, r25	; 0x07
    1e1e:	86 83       	std	Z+6, r24	; 0x06
    1e20:	28 e7       	ldi	r18, 0x78	; 120
    1e22:	30 e0       	ldi	r19, 0x00	; 0
    1e24:	35 87       	std	Z+13, r19	; 0x0d
    1e26:	24 87       	std	Z+12, r18	; 0x0c
    1e28:	82 e7       	ldi	r24, 0x72	; 114
    1e2a:	90 e0       	ldi	r25, 0x00	; 0
    1e2c:	91 87       	std	Z+9, r25	; 0x09
    1e2e:	80 87       	std	Z+8, r24	; 0x08
    1e30:	ec e1       	ldi	r30, 0x1C	; 28
    1e32:	f3 e0       	ldi	r31, 0x03	; 3
    1e34:	11 82       	std	Z+1, r1	; 0x01
    1e36:	10 82       	st	Z, r1
    1e38:	12 82       	std	Z+2, r1	; 0x02
    1e3a:	13 82       	std	Z+3, r1	; 0x03
    1e3c:	14 82       	std	Z+4, r1	; 0x04
    1e3e:	15 82       	std	Z+5, r1	; 0x05
    1e40:	75 87       	std	Z+13, r23	; 0x0d
    1e42:	64 87       	std	Z+12, r22	; 0x0c
    1e44:	57 83       	std	Z+7, r21	; 0x07
    1e46:	46 83       	std	Z+6, r20	; 0x06
    1e48:	4a e7       	ldi	r20, 0x7A	; 122
    1e4a:	50 e0       	ldi	r21, 0x00	; 0
    1e4c:	51 87       	std	Z+9, r21	; 0x09
    1e4e:	40 87       	std	Z+8, r20	; 0x08
    1e50:	37 87       	std	Z+15, r19	; 0x0f
    1e52:	26 87       	std	Z+14, r18	; 0x0e
    1e54:	93 87       	std	Z+11, r25	; 0x0b
    1e56:	82 87       	std	Z+10, r24	; 0x0a
    1e58:	e4 e1       	ldi	r30, 0x14	; 20
    1e5a:	f3 e0       	ldi	r31, 0x03	; 3
    1e5c:	82 e8       	ldi	r24, 0x82	; 130
    1e5e:	90 e0       	ldi	r25, 0x00	; 0
    1e60:	91 83       	std	Z+1, r25	; 0x01
    1e62:	80 83       	st	Z, r24
    1e64:	84 e8       	ldi	r24, 0x84	; 132
    1e66:	90 e0       	ldi	r25, 0x00	; 0
    1e68:	93 83       	std	Z+3, r25	; 0x03
    1e6a:	82 83       	std	Z+2, r24	; 0x02
    1e6c:	86 e8       	ldi	r24, 0x86	; 134
    1e6e:	90 e0       	ldi	r25, 0x00	; 0
    1e70:	95 83       	std	Z+5, r25	; 0x05
    1e72:	84 83       	std	Z+4, r24	; 0x04
    1e74:	10 92 13 03 	sts	0x0313, r1	; 0x800313 <keyboardTask+0x3>
    1e78:	10 92 12 03 	sts	0x0312, r1	; 0x800312 <keyboardTask+0x2>
    1e7c:	08 95       	ret

00001e7e <_GLOBAL__sub_D__Znwj>:
    1e7e:	08 95       	ret

00001e80 <_ZN4PinSILh53ELh51ELh52ELh6EE5ClearEv>:
    1e80:	ae 98       	cbi	0x15, 6	; 21
    1e82:	08 95       	ret

00001e84 <_ZN4PinSILh53ELh51ELh52ELh7EE3SetEv>:
    1e84:	af 9a       	sbi	0x15, 7	; 21
    1e86:	08 95       	ret

00001e88 <_ZN4PinSILh53ELh51ELh52ELh7EE5ClearEv>:
    1e88:	af 98       	cbi	0x15, 7	; 21
    1e8a:	08 95       	ret

00001e8c <_ZN4PinSILh53ELh51ELh52ELh6EE3SetEv>:
    1e8c:	ae 9a       	sbi	0x15, 6	; 21
    1e8e:	08 95       	ret

00001e90 <_ZN4PinSILh53ELh51ELh52ELh0EE7FastSetEv>:
    1e90:	a8 9a       	sbi	0x15, 0	; 21
    1e92:	08 95       	ret

00001e94 <_ZN4PinSILh53ELh51ELh52ELh1EE7FastSetEv>:
    1e94:	a9 9a       	sbi	0x15, 1	; 21
    1e96:	08 95       	ret

00001e98 <_ZN4PinSILh53ELh51ELh52ELh2EE7FastSetEv>:
    1e98:	aa 9a       	sbi	0x15, 2	; 21
    1e9a:	08 95       	ret

00001e9c <_ZN4PinSILh53ELh51ELh52ELh3EE7FastSetEv>:
    1e9c:	ab 9a       	sbi	0x15, 3	; 21
    1e9e:	08 95       	ret

00001ea0 <_ZN4PinSILh53ELh51ELh52ELh4EE7FastSetEv>:
    1ea0:	ac 9a       	sbi	0x15, 4	; 21
    1ea2:	08 95       	ret

00001ea4 <_ZN4PinSILh53ELh51ELh52ELh5EE7FastSetEv>:
    1ea4:	ad 9a       	sbi	0x15, 5	; 21
    1ea6:	08 95       	ret

00001ea8 <_ZN4PinSILh53ELh51ELh52ELh0EE5ClearEv>:
    1ea8:	a8 98       	cbi	0x15, 0	; 21
    1eaa:	08 95       	ret

00001eac <_ZN4PinSILh53ELh51ELh52ELh1EE5ClearEv>:
    1eac:	a9 98       	cbi	0x15, 1	; 21
    1eae:	08 95       	ret

00001eb0 <_ZN4PinSILh53ELh51ELh52ELh2EE5ClearEv>:
    1eb0:	aa 98       	cbi	0x15, 2	; 21
    1eb2:	08 95       	ret

00001eb4 <_ZN4PinSILh53ELh51ELh52ELh3EE5ClearEv>:
    1eb4:	ab 98       	cbi	0x15, 3	; 21
    1eb6:	08 95       	ret

00001eb8 <_ZN4PinSILh53ELh51ELh52ELh4EE5ClearEv>:
    1eb8:	ac 98       	cbi	0x15, 4	; 21
    1eba:	08 95       	ret

00001ebc <_ZN4PinSILh53ELh51ELh52ELh5EE5ClearEv>:
    1ebc:	ad 98       	cbi	0x15, 5	; 21
    1ebe:	08 95       	ret

00001ec0 <_ZN4PinSILh50ELh48ELh49ELh5EE8AsOutputEv>:
    1ec0:	8d 9a       	sbi	0x11, 5	; 17
    1ec2:	08 95       	ret

00001ec4 <_ZN4PinSILh53ELh51ELh52ELh7EE8AsOutputEv>:
    1ec4:	a7 9a       	sbi	0x14, 7	; 20
    1ec6:	08 95       	ret

00001ec8 <_ZN4PinSILh53ELh51ELh52ELh6EE8AsOutputEv>:
    1ec8:	a6 9a       	sbi	0x14, 6	; 20
    1eca:	08 95       	ret

00001ecc <_ZN4PinSILh50ELh48ELh49ELh5EED1Ev>:
    1ecc:	08 95       	ret

00001ece <_ZN4PinSILh53ELh51ELh52ELh0EED1Ev>:
    1ece:	08 95       	ret

00001ed0 <_ZN4PinSILh53ELh51ELh52ELh1EED1Ev>:
    1ed0:	08 95       	ret

00001ed2 <_ZN4PinSILh53ELh51ELh52ELh2EED1Ev>:
    1ed2:	08 95       	ret

00001ed4 <_ZN4PinSILh53ELh51ELh52ELh3EED1Ev>:
    1ed4:	08 95       	ret

00001ed6 <_ZN4PinSILh53ELh51ELh52ELh4EED1Ev>:
    1ed6:	08 95       	ret

00001ed8 <_ZN4PinSILh53ELh51ELh52ELh5EED1Ev>:
    1ed8:	08 95       	ret

00001eda <_ZN4PinSILh53ELh51ELh52ELh6EED1Ev>:
    1eda:	08 95       	ret

00001edc <_ZN4PinSILh53ELh51ELh52ELh7EED1Ev>:
    1edc:	08 95       	ret

00001ede <_ZN4PinSILh56ELh54ELh55ELh7EED1Ev>:
    1ede:	08 95       	ret

00001ee0 <_ZN4PinSILh56ELh54ELh55ELh6EED1Ev>:
    1ee0:	08 95       	ret

00001ee2 <_ZN4PinSILh56ELh54ELh55ELh5EED1Ev>:
    1ee2:	08 95       	ret

00001ee4 <_ZN4PinSILh56ELh54ELh55ELh4EED1Ev>:
    1ee4:	08 95       	ret

00001ee6 <_ZN4PinSILh56ELh54ELh55ELh3EED1Ev>:
    1ee6:	08 95       	ret

00001ee8 <_ZN4PinSILh56ELh54ELh55ELh2EED1Ev>:
    1ee8:	08 95       	ret

00001eea <_ZN4PinSILh56ELh54ELh55ELh1EED1Ev>:
    1eea:	08 95       	ret

00001eec <_ZN4PinSILh56ELh54ELh55ELh0EED1Ev>:
    1eec:	08 95       	ret

00001eee <_ZN4PinSILh59ELh57ELh58ELh2EED1Ev>:
    1eee:	08 95       	ret

00001ef0 <_ZN4PinSILh59ELh57ELh58ELh1EED1Ev>:
    1ef0:	08 95       	ret

00001ef2 <_ZN4PinSILh59ELh57ELh58ELh0EED1Ev>:
    1ef2:	08 95       	ret

00001ef4 <_ZN4PinSILh50ELh48ELh49ELh5EE7FastSetEv>:
    1ef4:	95 9a       	sbi	0x12, 5	; 18
    1ef6:	08 95       	ret

00001ef8 <_ZN4PinSILh50ELh48ELh49ELh5EE9FastClearEv>:
    1ef8:	95 98       	cbi	0x12, 5	; 18
    1efa:	08 95       	ret

00001efc <_ZN4PinSILh50ELh48ELh49ELh5EE10FastToggleEv>:
    1efc:	92 b3       	in	r25, 0x12	; 18
    1efe:	80 e2       	ldi	r24, 0x20	; 32
    1f00:	89 27       	eor	r24, r25
    1f02:	82 bb       	out	0x12, r24	; 18
    1f04:	08 95       	ret

00001f06 <_ZN4PinSILh50ELh48ELh49ELh5EE12FastAsOutputEv>:
    1f06:	8d 9a       	sbi	0x11, 5	; 17
    1f08:	08 95       	ret

00001f0a <_ZN4PinSILh50ELh48ELh49ELh5EE11FastAsInputEv>:
    1f0a:	8d 98       	cbi	0x11, 5	; 17
    1f0c:	08 95       	ret

00001f0e <_ZN4PinSILh50ELh48ELh49ELh5EE7BoolSetEb>:
    1f0e:	66 23       	and	r22, r22
    1f10:	41 f0       	breq	.+16     	; 0x1f22 <_ZN4PinSILh50ELh48ELh49ELh5EE7BoolSetEb+0x14>
    1f12:	dc 01       	movw	r26, r24
    1f14:	ed 91       	ld	r30, X+
    1f16:	fc 91       	ld	r31, X
    1f18:	06 84       	ldd	r0, Z+14	; 0x0e
    1f1a:	f7 85       	ldd	r31, Z+15	; 0x0f
    1f1c:	e0 2d       	mov	r30, r0
    1f1e:	09 95       	icall
    1f20:	08 95       	ret
    1f22:	dc 01       	movw	r26, r24
    1f24:	ed 91       	ld	r30, X+
    1f26:	fc 91       	ld	r31, X
    1f28:	00 88       	ldd	r0, Z+16	; 0x10
    1f2a:	f1 89       	ldd	r31, Z+17	; 0x11
    1f2c:	e0 2d       	mov	r30, r0
    1f2e:	09 95       	icall
    1f30:	08 95       	ret

00001f32 <_ZN4PinSILh50ELh48ELh49ELh5EE5CheckEv>:
    1f32:	80 b3       	in	r24, 0x10	; 16
    1f34:	85 fb       	bst	r24, 5
    1f36:	88 27       	eor	r24, r24
    1f38:	80 f9       	bld	r24, 0
    1f3a:	08 95       	ret

00001f3c <_ZN4PinSILh50ELh48ELh49ELh5EE3SetEv>:
    1f3c:	95 9a       	sbi	0x12, 5	; 18
    1f3e:	08 95       	ret

00001f40 <_ZN4PinSILh50ELh48ELh49ELh5EE5ClearEv>:
    1f40:	95 98       	cbi	0x12, 5	; 18
    1f42:	08 95       	ret

00001f44 <_ZN4PinSILh50ELh48ELh49ELh5EE6ToggleEv>:
    1f44:	92 b3       	in	r25, 0x12	; 18
    1f46:	80 e2       	ldi	r24, 0x20	; 32
    1f48:	89 27       	eor	r24, r25
    1f4a:	82 bb       	out	0x12, r24	; 18
    1f4c:	08 95       	ret

00001f4e <_ZN4PinSILh50ELh48ELh49ELh5EE7AsInputEv>:
    1f4e:	8d 98       	cbi	0x11, 5	; 17
    1f50:	08 95       	ret

00001f52 <_ZN4PinSILh53ELh51ELh52ELh0EE9FastClearEv>:
    1f52:	a8 98       	cbi	0x15, 0	; 21
    1f54:	08 95       	ret

00001f56 <_ZN4PinSILh53ELh51ELh52ELh0EE10FastToggleEv>:
    1f56:	95 b3       	in	r25, 0x15	; 21
    1f58:	81 e0       	ldi	r24, 0x01	; 1
    1f5a:	89 27       	eor	r24, r25
    1f5c:	85 bb       	out	0x15, r24	; 21
    1f5e:	08 95       	ret

00001f60 <_ZN4PinSILh53ELh51ELh52ELh0EE12FastAsOutputEv>:
    1f60:	a0 9a       	sbi	0x14, 0	; 20
    1f62:	08 95       	ret

00001f64 <_ZN4PinSILh53ELh51ELh52ELh0EE11FastAsInputEv>:
    1f64:	a0 98       	cbi	0x14, 0	; 20
    1f66:	08 95       	ret

00001f68 <_ZN4PinSILh53ELh51ELh52ELh0EE7BoolSetEb>:
    1f68:	66 23       	and	r22, r22
    1f6a:	41 f0       	breq	.+16     	; 0x1f7c <_ZN4PinSILh53ELh51ELh52ELh0EE7BoolSetEb+0x14>
    1f6c:	dc 01       	movw	r26, r24
    1f6e:	ed 91       	ld	r30, X+
    1f70:	fc 91       	ld	r31, X
    1f72:	06 84       	ldd	r0, Z+14	; 0x0e
    1f74:	f7 85       	ldd	r31, Z+15	; 0x0f
    1f76:	e0 2d       	mov	r30, r0
    1f78:	09 95       	icall
    1f7a:	08 95       	ret
    1f7c:	dc 01       	movw	r26, r24
    1f7e:	ed 91       	ld	r30, X+
    1f80:	fc 91       	ld	r31, X
    1f82:	00 88       	ldd	r0, Z+16	; 0x10
    1f84:	f1 89       	ldd	r31, Z+17	; 0x11
    1f86:	e0 2d       	mov	r30, r0
    1f88:	09 95       	icall
    1f8a:	08 95       	ret

00001f8c <_ZN4PinSILh53ELh51ELh52ELh0EE5CheckEv>:
    1f8c:	83 b3       	in	r24, 0x13	; 19
    1f8e:	81 70       	andi	r24, 0x01	; 1
    1f90:	08 95       	ret

00001f92 <_ZN4PinSILh53ELh51ELh52ELh0EE3SetEv>:
    1f92:	a8 9a       	sbi	0x15, 0	; 21
    1f94:	08 95       	ret

00001f96 <_ZN4PinSILh53ELh51ELh52ELh0EE6ToggleEv>:
    1f96:	95 b3       	in	r25, 0x15	; 21
    1f98:	81 e0       	ldi	r24, 0x01	; 1
    1f9a:	89 27       	eor	r24, r25
    1f9c:	85 bb       	out	0x15, r24	; 21
    1f9e:	08 95       	ret

00001fa0 <_ZN4PinSILh53ELh51ELh52ELh0EE8AsOutputEv>:
    1fa0:	a0 9a       	sbi	0x14, 0	; 20
    1fa2:	08 95       	ret

00001fa4 <_ZN4PinSILh53ELh51ELh52ELh0EE7AsInputEv>:
    1fa4:	a0 98       	cbi	0x14, 0	; 20
    1fa6:	08 95       	ret

00001fa8 <_ZN4PinSILh53ELh51ELh52ELh1EE9FastClearEv>:
    1fa8:	a9 98       	cbi	0x15, 1	; 21
    1faa:	08 95       	ret

00001fac <_ZN4PinSILh53ELh51ELh52ELh1EE10FastToggleEv>:
    1fac:	95 b3       	in	r25, 0x15	; 21
    1fae:	82 e0       	ldi	r24, 0x02	; 2
    1fb0:	89 27       	eor	r24, r25
    1fb2:	85 bb       	out	0x15, r24	; 21
    1fb4:	08 95       	ret

00001fb6 <_ZN4PinSILh53ELh51ELh52ELh1EE12FastAsOutputEv>:
    1fb6:	a1 9a       	sbi	0x14, 1	; 20
    1fb8:	08 95       	ret

00001fba <_ZN4PinSILh53ELh51ELh52ELh1EE11FastAsInputEv>:
    1fba:	a1 98       	cbi	0x14, 1	; 20
    1fbc:	08 95       	ret

00001fbe <_ZN4PinSILh53ELh51ELh52ELh1EE7BoolSetEb>:
    1fbe:	66 23       	and	r22, r22
    1fc0:	41 f0       	breq	.+16     	; 0x1fd2 <_ZN4PinSILh53ELh51ELh52ELh1EE7BoolSetEb+0x14>
    1fc2:	dc 01       	movw	r26, r24
    1fc4:	ed 91       	ld	r30, X+
    1fc6:	fc 91       	ld	r31, X
    1fc8:	06 84       	ldd	r0, Z+14	; 0x0e
    1fca:	f7 85       	ldd	r31, Z+15	; 0x0f
    1fcc:	e0 2d       	mov	r30, r0
    1fce:	09 95       	icall
    1fd0:	08 95       	ret
    1fd2:	dc 01       	movw	r26, r24
    1fd4:	ed 91       	ld	r30, X+
    1fd6:	fc 91       	ld	r31, X
    1fd8:	00 88       	ldd	r0, Z+16	; 0x10
    1fda:	f1 89       	ldd	r31, Z+17	; 0x11
    1fdc:	e0 2d       	mov	r30, r0
    1fde:	09 95       	icall
    1fe0:	08 95       	ret

00001fe2 <_ZN4PinSILh53ELh51ELh52ELh1EE5CheckEv>:
    1fe2:	83 b3       	in	r24, 0x13	; 19
    1fe4:	86 95       	lsr	r24
    1fe6:	81 70       	andi	r24, 0x01	; 1
    1fe8:	08 95       	ret

00001fea <_ZN4PinSILh53ELh51ELh52ELh1EE3SetEv>:
    1fea:	a9 9a       	sbi	0x15, 1	; 21
    1fec:	08 95       	ret

00001fee <_ZN4PinSILh53ELh51ELh52ELh1EE6ToggleEv>:
    1fee:	95 b3       	in	r25, 0x15	; 21
    1ff0:	82 e0       	ldi	r24, 0x02	; 2
    1ff2:	89 27       	eor	r24, r25
    1ff4:	85 bb       	out	0x15, r24	; 21
    1ff6:	08 95       	ret

00001ff8 <_ZN4PinSILh53ELh51ELh52ELh1EE8AsOutputEv>:
    1ff8:	a1 9a       	sbi	0x14, 1	; 20
    1ffa:	08 95       	ret

00001ffc <_ZN4PinSILh53ELh51ELh52ELh1EE7AsInputEv>:
    1ffc:	a1 98       	cbi	0x14, 1	; 20
    1ffe:	08 95       	ret

00002000 <_ZN4PinSILh53ELh51ELh52ELh2EE9FastClearEv>:
    2000:	aa 98       	cbi	0x15, 2	; 21
    2002:	08 95       	ret

00002004 <_ZN4PinSILh53ELh51ELh52ELh2EE10FastToggleEv>:
    2004:	95 b3       	in	r25, 0x15	; 21
    2006:	84 e0       	ldi	r24, 0x04	; 4
    2008:	89 27       	eor	r24, r25
    200a:	85 bb       	out	0x15, r24	; 21
    200c:	08 95       	ret

0000200e <_ZN4PinSILh53ELh51ELh52ELh2EE12FastAsOutputEv>:
    200e:	a2 9a       	sbi	0x14, 2	; 20
    2010:	08 95       	ret

00002012 <_ZN4PinSILh53ELh51ELh52ELh2EE11FastAsInputEv>:
    2012:	a2 98       	cbi	0x14, 2	; 20
    2014:	08 95       	ret

00002016 <_ZN4PinSILh53ELh51ELh52ELh2EE7BoolSetEb>:
    2016:	66 23       	and	r22, r22
    2018:	41 f0       	breq	.+16     	; 0x202a <_ZN4PinSILh53ELh51ELh52ELh2EE7BoolSetEb+0x14>
    201a:	dc 01       	movw	r26, r24
    201c:	ed 91       	ld	r30, X+
    201e:	fc 91       	ld	r31, X
    2020:	06 84       	ldd	r0, Z+14	; 0x0e
    2022:	f7 85       	ldd	r31, Z+15	; 0x0f
    2024:	e0 2d       	mov	r30, r0
    2026:	09 95       	icall
    2028:	08 95       	ret
    202a:	dc 01       	movw	r26, r24
    202c:	ed 91       	ld	r30, X+
    202e:	fc 91       	ld	r31, X
    2030:	00 88       	ldd	r0, Z+16	; 0x10
    2032:	f1 89       	ldd	r31, Z+17	; 0x11
    2034:	e0 2d       	mov	r30, r0
    2036:	09 95       	icall
    2038:	08 95       	ret

0000203a <_ZN4PinSILh53ELh51ELh52ELh2EE5CheckEv>:
    203a:	83 b3       	in	r24, 0x13	; 19
    203c:	82 fb       	bst	r24, 2
    203e:	88 27       	eor	r24, r24
    2040:	80 f9       	bld	r24, 0
    2042:	08 95       	ret

00002044 <_ZN4PinSILh53ELh51ELh52ELh2EE3SetEv>:
    2044:	aa 9a       	sbi	0x15, 2	; 21
    2046:	08 95       	ret

00002048 <_ZN4PinSILh53ELh51ELh52ELh2EE6ToggleEv>:
    2048:	95 b3       	in	r25, 0x15	; 21
    204a:	84 e0       	ldi	r24, 0x04	; 4
    204c:	89 27       	eor	r24, r25
    204e:	85 bb       	out	0x15, r24	; 21
    2050:	08 95       	ret

00002052 <_ZN4PinSILh53ELh51ELh52ELh2EE8AsOutputEv>:
    2052:	a2 9a       	sbi	0x14, 2	; 20
    2054:	08 95       	ret

00002056 <_ZN4PinSILh53ELh51ELh52ELh2EE7AsInputEv>:
    2056:	a2 98       	cbi	0x14, 2	; 20
    2058:	08 95       	ret

0000205a <_ZN4PinSILh53ELh51ELh52ELh3EE9FastClearEv>:
    205a:	ab 98       	cbi	0x15, 3	; 21
    205c:	08 95       	ret

0000205e <_ZN4PinSILh53ELh51ELh52ELh3EE10FastToggleEv>:
    205e:	95 b3       	in	r25, 0x15	; 21
    2060:	88 e0       	ldi	r24, 0x08	; 8
    2062:	89 27       	eor	r24, r25
    2064:	85 bb       	out	0x15, r24	; 21
    2066:	08 95       	ret

00002068 <_ZN4PinSILh53ELh51ELh52ELh3EE12FastAsOutputEv>:
    2068:	a3 9a       	sbi	0x14, 3	; 20
    206a:	08 95       	ret

0000206c <_ZN4PinSILh53ELh51ELh52ELh3EE11FastAsInputEv>:
    206c:	a3 98       	cbi	0x14, 3	; 20
    206e:	08 95       	ret

00002070 <_ZN4PinSILh53ELh51ELh52ELh3EE7BoolSetEb>:
    2070:	66 23       	and	r22, r22
    2072:	41 f0       	breq	.+16     	; 0x2084 <_ZN4PinSILh53ELh51ELh52ELh3EE7BoolSetEb+0x14>
    2074:	dc 01       	movw	r26, r24
    2076:	ed 91       	ld	r30, X+
    2078:	fc 91       	ld	r31, X
    207a:	06 84       	ldd	r0, Z+14	; 0x0e
    207c:	f7 85       	ldd	r31, Z+15	; 0x0f
    207e:	e0 2d       	mov	r30, r0
    2080:	09 95       	icall
    2082:	08 95       	ret
    2084:	dc 01       	movw	r26, r24
    2086:	ed 91       	ld	r30, X+
    2088:	fc 91       	ld	r31, X
    208a:	00 88       	ldd	r0, Z+16	; 0x10
    208c:	f1 89       	ldd	r31, Z+17	; 0x11
    208e:	e0 2d       	mov	r30, r0
    2090:	09 95       	icall
    2092:	08 95       	ret

00002094 <_ZN4PinSILh53ELh51ELh52ELh3EE5CheckEv>:
    2094:	83 b3       	in	r24, 0x13	; 19
    2096:	83 fb       	bst	r24, 3
    2098:	88 27       	eor	r24, r24
    209a:	80 f9       	bld	r24, 0
    209c:	08 95       	ret

0000209e <_ZN4PinSILh53ELh51ELh52ELh3EE3SetEv>:
    209e:	ab 9a       	sbi	0x15, 3	; 21
    20a0:	08 95       	ret

000020a2 <_ZN4PinSILh53ELh51ELh52ELh3EE6ToggleEv>:
    20a2:	95 b3       	in	r25, 0x15	; 21
    20a4:	88 e0       	ldi	r24, 0x08	; 8
    20a6:	89 27       	eor	r24, r25
    20a8:	85 bb       	out	0x15, r24	; 21
    20aa:	08 95       	ret

000020ac <_ZN4PinSILh53ELh51ELh52ELh3EE8AsOutputEv>:
    20ac:	a3 9a       	sbi	0x14, 3	; 20
    20ae:	08 95       	ret

000020b0 <_ZN4PinSILh53ELh51ELh52ELh3EE7AsInputEv>:
    20b0:	a3 98       	cbi	0x14, 3	; 20
    20b2:	08 95       	ret

000020b4 <_ZN4PinSILh53ELh51ELh52ELh4EE9FastClearEv>:
    20b4:	ac 98       	cbi	0x15, 4	; 21
    20b6:	08 95       	ret

000020b8 <_ZN4PinSILh53ELh51ELh52ELh4EE10FastToggleEv>:
    20b8:	95 b3       	in	r25, 0x15	; 21
    20ba:	80 e1       	ldi	r24, 0x10	; 16
    20bc:	89 27       	eor	r24, r25
    20be:	85 bb       	out	0x15, r24	; 21
    20c0:	08 95       	ret

000020c2 <_ZN4PinSILh53ELh51ELh52ELh4EE12FastAsOutputEv>:
    20c2:	a4 9a       	sbi	0x14, 4	; 20
    20c4:	08 95       	ret

000020c6 <_ZN4PinSILh53ELh51ELh52ELh4EE11FastAsInputEv>:
    20c6:	a4 98       	cbi	0x14, 4	; 20
    20c8:	08 95       	ret

000020ca <_ZN4PinSILh53ELh51ELh52ELh4EE7BoolSetEb>:
    20ca:	66 23       	and	r22, r22
    20cc:	41 f0       	breq	.+16     	; 0x20de <_ZN4PinSILh53ELh51ELh52ELh4EE7BoolSetEb+0x14>
    20ce:	dc 01       	movw	r26, r24
    20d0:	ed 91       	ld	r30, X+
    20d2:	fc 91       	ld	r31, X
    20d4:	06 84       	ldd	r0, Z+14	; 0x0e
    20d6:	f7 85       	ldd	r31, Z+15	; 0x0f
    20d8:	e0 2d       	mov	r30, r0
    20da:	09 95       	icall
    20dc:	08 95       	ret
    20de:	dc 01       	movw	r26, r24
    20e0:	ed 91       	ld	r30, X+
    20e2:	fc 91       	ld	r31, X
    20e4:	00 88       	ldd	r0, Z+16	; 0x10
    20e6:	f1 89       	ldd	r31, Z+17	; 0x11
    20e8:	e0 2d       	mov	r30, r0
    20ea:	09 95       	icall
    20ec:	08 95       	ret

000020ee <_ZN4PinSILh53ELh51ELh52ELh4EE5CheckEv>:
    20ee:	83 b3       	in	r24, 0x13	; 19
    20f0:	82 95       	swap	r24
    20f2:	81 70       	andi	r24, 0x01	; 1
    20f4:	08 95       	ret

000020f6 <_ZN4PinSILh53ELh51ELh52ELh4EE3SetEv>:
    20f6:	ac 9a       	sbi	0x15, 4	; 21
    20f8:	08 95       	ret

000020fa <_ZN4PinSILh53ELh51ELh52ELh4EE6ToggleEv>:
    20fa:	95 b3       	in	r25, 0x15	; 21
    20fc:	80 e1       	ldi	r24, 0x10	; 16
    20fe:	89 27       	eor	r24, r25
    2100:	85 bb       	out	0x15, r24	; 21
    2102:	08 95       	ret

00002104 <_ZN4PinSILh53ELh51ELh52ELh4EE8AsOutputEv>:
    2104:	a4 9a       	sbi	0x14, 4	; 20
    2106:	08 95       	ret

00002108 <_ZN4PinSILh53ELh51ELh52ELh4EE7AsInputEv>:
    2108:	a4 98       	cbi	0x14, 4	; 20
    210a:	08 95       	ret

0000210c <_ZN4PinSILh53ELh51ELh52ELh5EE9FastClearEv>:
    210c:	ad 98       	cbi	0x15, 5	; 21
    210e:	08 95       	ret

00002110 <_ZN4PinSILh53ELh51ELh52ELh5EE10FastToggleEv>:
    2110:	95 b3       	in	r25, 0x15	; 21
    2112:	80 e2       	ldi	r24, 0x20	; 32
    2114:	89 27       	eor	r24, r25
    2116:	85 bb       	out	0x15, r24	; 21
    2118:	08 95       	ret

0000211a <_ZN4PinSILh53ELh51ELh52ELh5EE12FastAsOutputEv>:
    211a:	a5 9a       	sbi	0x14, 5	; 20
    211c:	08 95       	ret

0000211e <_ZN4PinSILh53ELh51ELh52ELh5EE11FastAsInputEv>:
    211e:	a5 98       	cbi	0x14, 5	; 20
    2120:	08 95       	ret

00002122 <_ZN4PinSILh53ELh51ELh52ELh5EE7BoolSetEb>:
    2122:	66 23       	and	r22, r22
    2124:	41 f0       	breq	.+16     	; 0x2136 <_ZN4PinSILh53ELh51ELh52ELh5EE7BoolSetEb+0x14>
    2126:	dc 01       	movw	r26, r24
    2128:	ed 91       	ld	r30, X+
    212a:	fc 91       	ld	r31, X
    212c:	06 84       	ldd	r0, Z+14	; 0x0e
    212e:	f7 85       	ldd	r31, Z+15	; 0x0f
    2130:	e0 2d       	mov	r30, r0
    2132:	09 95       	icall
    2134:	08 95       	ret
    2136:	dc 01       	movw	r26, r24
    2138:	ed 91       	ld	r30, X+
    213a:	fc 91       	ld	r31, X
    213c:	00 88       	ldd	r0, Z+16	; 0x10
    213e:	f1 89       	ldd	r31, Z+17	; 0x11
    2140:	e0 2d       	mov	r30, r0
    2142:	09 95       	icall
    2144:	08 95       	ret

00002146 <_ZN4PinSILh53ELh51ELh52ELh5EE5CheckEv>:
    2146:	83 b3       	in	r24, 0x13	; 19
    2148:	85 fb       	bst	r24, 5
    214a:	88 27       	eor	r24, r24
    214c:	80 f9       	bld	r24, 0
    214e:	08 95       	ret

00002150 <_ZN4PinSILh53ELh51ELh52ELh5EE3SetEv>:
    2150:	ad 9a       	sbi	0x15, 5	; 21
    2152:	08 95       	ret

00002154 <_ZN4PinSILh53ELh51ELh52ELh5EE6ToggleEv>:
    2154:	95 b3       	in	r25, 0x15	; 21
    2156:	80 e2       	ldi	r24, 0x20	; 32
    2158:	89 27       	eor	r24, r25
    215a:	85 bb       	out	0x15, r24	; 21
    215c:	08 95       	ret

0000215e <_ZN4PinSILh53ELh51ELh52ELh5EE8AsOutputEv>:
    215e:	a5 9a       	sbi	0x14, 5	; 20
    2160:	08 95       	ret

00002162 <_ZN4PinSILh53ELh51ELh52ELh5EE7AsInputEv>:
    2162:	a5 98       	cbi	0x14, 5	; 20
    2164:	08 95       	ret

00002166 <_ZN4PinSILh53ELh51ELh52ELh6EE7FastSetEv>:
    2166:	ae 9a       	sbi	0x15, 6	; 21
    2168:	08 95       	ret

0000216a <_ZN4PinSILh53ELh51ELh52ELh6EE9FastClearEv>:
    216a:	ae 98       	cbi	0x15, 6	; 21
    216c:	08 95       	ret

0000216e <_ZN4PinSILh53ELh51ELh52ELh6EE10FastToggleEv>:
    216e:	95 b3       	in	r25, 0x15	; 21
    2170:	80 e4       	ldi	r24, 0x40	; 64
    2172:	89 27       	eor	r24, r25
    2174:	85 bb       	out	0x15, r24	; 21
    2176:	08 95       	ret

00002178 <_ZN4PinSILh53ELh51ELh52ELh6EE12FastAsOutputEv>:
    2178:	a6 9a       	sbi	0x14, 6	; 20
    217a:	08 95       	ret

0000217c <_ZN4PinSILh53ELh51ELh52ELh6EE11FastAsInputEv>:
    217c:	a6 98       	cbi	0x14, 6	; 20
    217e:	08 95       	ret

00002180 <_ZN4PinSILh53ELh51ELh52ELh6EE7BoolSetEb>:
    2180:	66 23       	and	r22, r22
    2182:	41 f0       	breq	.+16     	; 0x2194 <_ZN4PinSILh53ELh51ELh52ELh6EE7BoolSetEb+0x14>
    2184:	dc 01       	movw	r26, r24
    2186:	ed 91       	ld	r30, X+
    2188:	fc 91       	ld	r31, X
    218a:	06 84       	ldd	r0, Z+14	; 0x0e
    218c:	f7 85       	ldd	r31, Z+15	; 0x0f
    218e:	e0 2d       	mov	r30, r0
    2190:	09 95       	icall
    2192:	08 95       	ret
    2194:	dc 01       	movw	r26, r24
    2196:	ed 91       	ld	r30, X+
    2198:	fc 91       	ld	r31, X
    219a:	00 88       	ldd	r0, Z+16	; 0x10
    219c:	f1 89       	ldd	r31, Z+17	; 0x11
    219e:	e0 2d       	mov	r30, r0
    21a0:	09 95       	icall
    21a2:	08 95       	ret

000021a4 <_ZN4PinSILh53ELh51ELh52ELh6EE5CheckEv>:
    21a4:	83 b3       	in	r24, 0x13	; 19
    21a6:	86 fb       	bst	r24, 6
    21a8:	88 27       	eor	r24, r24
    21aa:	80 f9       	bld	r24, 0
    21ac:	08 95       	ret

000021ae <_ZN4PinSILh53ELh51ELh52ELh6EE6ToggleEv>:
    21ae:	95 b3       	in	r25, 0x15	; 21
    21b0:	80 e4       	ldi	r24, 0x40	; 64
    21b2:	89 27       	eor	r24, r25
    21b4:	85 bb       	out	0x15, r24	; 21
    21b6:	08 95       	ret

000021b8 <_ZN4PinSILh53ELh51ELh52ELh6EE7AsInputEv>:
    21b8:	a6 98       	cbi	0x14, 6	; 20
    21ba:	08 95       	ret

000021bc <_ZN4PinSILh53ELh51ELh52ELh7EE7FastSetEv>:
    21bc:	af 9a       	sbi	0x15, 7	; 21
    21be:	08 95       	ret

000021c0 <_ZN4PinSILh53ELh51ELh52ELh7EE9FastClearEv>:
    21c0:	af 98       	cbi	0x15, 7	; 21
    21c2:	08 95       	ret

000021c4 <_ZN4PinSILh53ELh51ELh52ELh7EE10FastToggleEv>:
    21c4:	85 b3       	in	r24, 0x15	; 21
    21c6:	80 58       	subi	r24, 0x80	; 128
    21c8:	85 bb       	out	0x15, r24	; 21
    21ca:	08 95       	ret

000021cc <_ZN4PinSILh53ELh51ELh52ELh7EE12FastAsOutputEv>:
    21cc:	a7 9a       	sbi	0x14, 7	; 20
    21ce:	08 95       	ret

000021d0 <_ZN4PinSILh53ELh51ELh52ELh7EE11FastAsInputEv>:
    21d0:	a7 98       	cbi	0x14, 7	; 20
    21d2:	08 95       	ret

000021d4 <_ZN4PinSILh53ELh51ELh52ELh7EE7BoolSetEb>:
    21d4:	66 23       	and	r22, r22
    21d6:	41 f0       	breq	.+16     	; 0x21e8 <_ZN4PinSILh53ELh51ELh52ELh7EE7BoolSetEb+0x14>
    21d8:	dc 01       	movw	r26, r24
    21da:	ed 91       	ld	r30, X+
    21dc:	fc 91       	ld	r31, X
    21de:	06 84       	ldd	r0, Z+14	; 0x0e
    21e0:	f7 85       	ldd	r31, Z+15	; 0x0f
    21e2:	e0 2d       	mov	r30, r0
    21e4:	09 95       	icall
    21e6:	08 95       	ret
    21e8:	dc 01       	movw	r26, r24
    21ea:	ed 91       	ld	r30, X+
    21ec:	fc 91       	ld	r31, X
    21ee:	00 88       	ldd	r0, Z+16	; 0x10
    21f0:	f1 89       	ldd	r31, Z+17	; 0x11
    21f2:	e0 2d       	mov	r30, r0
    21f4:	09 95       	icall
    21f6:	08 95       	ret

000021f8 <_ZN4PinSILh53ELh51ELh52ELh7EE5CheckEv>:
    21f8:	81 e0       	ldi	r24, 0x01	; 1
    21fa:	9f 9b       	sbis	0x13, 7	; 19
    21fc:	80 e0       	ldi	r24, 0x00	; 0
    21fe:	08 95       	ret

00002200 <_ZN4PinSILh53ELh51ELh52ELh7EE6ToggleEv>:
    2200:	85 b3       	in	r24, 0x15	; 21
    2202:	80 58       	subi	r24, 0x80	; 128
    2204:	85 bb       	out	0x15, r24	; 21
    2206:	08 95       	ret

00002208 <_ZN4PinSILh53ELh51ELh52ELh7EE7AsInputEv>:
    2208:	a7 98       	cbi	0x14, 7	; 20
    220a:	08 95       	ret

0000220c <_ZN4PinSILh56ELh54ELh55ELh7EE7FastSetEv>:
    220c:	c7 9a       	sbi	0x18, 7	; 24
    220e:	08 95       	ret

00002210 <_ZN4PinSILh56ELh54ELh55ELh7EE9FastClearEv>:
    2210:	c7 98       	cbi	0x18, 7	; 24
    2212:	08 95       	ret

00002214 <_ZN4PinSILh56ELh54ELh55ELh7EE10FastToggleEv>:
    2214:	88 b3       	in	r24, 0x18	; 24
    2216:	80 58       	subi	r24, 0x80	; 128
    2218:	88 bb       	out	0x18, r24	; 24
    221a:	08 95       	ret

0000221c <_ZN4PinSILh56ELh54ELh55ELh7EE12FastAsOutputEv>:
    221c:	bf 9a       	sbi	0x17, 7	; 23
    221e:	08 95       	ret

00002220 <_ZN4PinSILh56ELh54ELh55ELh7EE11FastAsInputEv>:
    2220:	bf 98       	cbi	0x17, 7	; 23
    2222:	08 95       	ret

00002224 <_ZN4PinSILh56ELh54ELh55ELh7EE7BoolSetEb>:
    2224:	66 23       	and	r22, r22
    2226:	41 f0       	breq	.+16     	; 0x2238 <_ZN4PinSILh56ELh54ELh55ELh7EE7BoolSetEb+0x14>
    2228:	dc 01       	movw	r26, r24
    222a:	ed 91       	ld	r30, X+
    222c:	fc 91       	ld	r31, X
    222e:	06 84       	ldd	r0, Z+14	; 0x0e
    2230:	f7 85       	ldd	r31, Z+15	; 0x0f
    2232:	e0 2d       	mov	r30, r0
    2234:	09 95       	icall
    2236:	08 95       	ret
    2238:	dc 01       	movw	r26, r24
    223a:	ed 91       	ld	r30, X+
    223c:	fc 91       	ld	r31, X
    223e:	00 88       	ldd	r0, Z+16	; 0x10
    2240:	f1 89       	ldd	r31, Z+17	; 0x11
    2242:	e0 2d       	mov	r30, r0
    2244:	09 95       	icall
    2246:	08 95       	ret

00002248 <_ZN4PinSILh56ELh54ELh55ELh7EE5CheckEv>:
    2248:	81 e0       	ldi	r24, 0x01	; 1
    224a:	b7 9b       	sbis	0x16, 7	; 22
    224c:	80 e0       	ldi	r24, 0x00	; 0
    224e:	08 95       	ret

00002250 <_ZN4PinSILh56ELh54ELh55ELh7EE3SetEv>:
    2250:	c7 9a       	sbi	0x18, 7	; 24
    2252:	08 95       	ret

00002254 <_ZN4PinSILh56ELh54ELh55ELh7EE5ClearEv>:
    2254:	c7 98       	cbi	0x18, 7	; 24
    2256:	08 95       	ret

00002258 <_ZN4PinSILh56ELh54ELh55ELh7EE6ToggleEv>:
    2258:	88 b3       	in	r24, 0x18	; 24
    225a:	80 58       	subi	r24, 0x80	; 128
    225c:	88 bb       	out	0x18, r24	; 24
    225e:	08 95       	ret

00002260 <_ZN4PinSILh56ELh54ELh55ELh7EE8AsOutputEv>:
    2260:	bf 9a       	sbi	0x17, 7	; 23
    2262:	08 95       	ret

00002264 <_ZN4PinSILh56ELh54ELh55ELh7EE7AsInputEv>:
    2264:	bf 98       	cbi	0x17, 7	; 23
    2266:	08 95       	ret

00002268 <_ZN4PinSILh56ELh54ELh55ELh6EE7FastSetEv>:
    2268:	c6 9a       	sbi	0x18, 6	; 24
    226a:	08 95       	ret

0000226c <_ZN4PinSILh56ELh54ELh55ELh6EE9FastClearEv>:
    226c:	c6 98       	cbi	0x18, 6	; 24
    226e:	08 95       	ret

00002270 <_ZN4PinSILh56ELh54ELh55ELh6EE10FastToggleEv>:
    2270:	98 b3       	in	r25, 0x18	; 24
    2272:	80 e4       	ldi	r24, 0x40	; 64
    2274:	89 27       	eor	r24, r25
    2276:	88 bb       	out	0x18, r24	; 24
    2278:	08 95       	ret

0000227a <_ZN4PinSILh56ELh54ELh55ELh6EE12FastAsOutputEv>:
    227a:	be 9a       	sbi	0x17, 6	; 23
    227c:	08 95       	ret

0000227e <_ZN4PinSILh56ELh54ELh55ELh6EE11FastAsInputEv>:
    227e:	be 98       	cbi	0x17, 6	; 23
    2280:	08 95       	ret

00002282 <_ZN4PinSILh56ELh54ELh55ELh6EE7BoolSetEb>:
    2282:	66 23       	and	r22, r22
    2284:	41 f0       	breq	.+16     	; 0x2296 <_ZN4PinSILh56ELh54ELh55ELh6EE7BoolSetEb+0x14>
    2286:	dc 01       	movw	r26, r24
    2288:	ed 91       	ld	r30, X+
    228a:	fc 91       	ld	r31, X
    228c:	06 84       	ldd	r0, Z+14	; 0x0e
    228e:	f7 85       	ldd	r31, Z+15	; 0x0f
    2290:	e0 2d       	mov	r30, r0
    2292:	09 95       	icall
    2294:	08 95       	ret
    2296:	dc 01       	movw	r26, r24
    2298:	ed 91       	ld	r30, X+
    229a:	fc 91       	ld	r31, X
    229c:	00 88       	ldd	r0, Z+16	; 0x10
    229e:	f1 89       	ldd	r31, Z+17	; 0x11
    22a0:	e0 2d       	mov	r30, r0
    22a2:	09 95       	icall
    22a4:	08 95       	ret

000022a6 <_ZN4PinSILh56ELh54ELh55ELh6EE5CheckEv>:
    22a6:	86 b3       	in	r24, 0x16	; 22
    22a8:	86 fb       	bst	r24, 6
    22aa:	88 27       	eor	r24, r24
    22ac:	80 f9       	bld	r24, 0
    22ae:	08 95       	ret

000022b0 <_ZN4PinSILh56ELh54ELh55ELh6EE3SetEv>:
    22b0:	c6 9a       	sbi	0x18, 6	; 24
    22b2:	08 95       	ret

000022b4 <_ZN4PinSILh56ELh54ELh55ELh6EE5ClearEv>:
    22b4:	c6 98       	cbi	0x18, 6	; 24
    22b6:	08 95       	ret

000022b8 <_ZN4PinSILh56ELh54ELh55ELh6EE6ToggleEv>:
    22b8:	98 b3       	in	r25, 0x18	; 24
    22ba:	80 e4       	ldi	r24, 0x40	; 64
    22bc:	89 27       	eor	r24, r25
    22be:	88 bb       	out	0x18, r24	; 24
    22c0:	08 95       	ret

000022c2 <_ZN4PinSILh56ELh54ELh55ELh6EE8AsOutputEv>:
    22c2:	be 9a       	sbi	0x17, 6	; 23
    22c4:	08 95       	ret

000022c6 <_ZN4PinSILh56ELh54ELh55ELh6EE7AsInputEv>:
    22c6:	be 98       	cbi	0x17, 6	; 23
    22c8:	08 95       	ret

000022ca <_ZN4PinSILh56ELh54ELh55ELh5EE7FastSetEv>:
    22ca:	c5 9a       	sbi	0x18, 5	; 24
    22cc:	08 95       	ret

000022ce <_ZN4PinSILh56ELh54ELh55ELh5EE9FastClearEv>:
    22ce:	c5 98       	cbi	0x18, 5	; 24
    22d0:	08 95       	ret

000022d2 <_ZN4PinSILh56ELh54ELh55ELh5EE10FastToggleEv>:
    22d2:	98 b3       	in	r25, 0x18	; 24
    22d4:	80 e2       	ldi	r24, 0x20	; 32
    22d6:	89 27       	eor	r24, r25
    22d8:	88 bb       	out	0x18, r24	; 24
    22da:	08 95       	ret

000022dc <_ZN4PinSILh56ELh54ELh55ELh5EE12FastAsOutputEv>:
    22dc:	bd 9a       	sbi	0x17, 5	; 23
    22de:	08 95       	ret

000022e0 <_ZN4PinSILh56ELh54ELh55ELh5EE11FastAsInputEv>:
    22e0:	bd 98       	cbi	0x17, 5	; 23
    22e2:	08 95       	ret

000022e4 <_ZN4PinSILh56ELh54ELh55ELh5EE7BoolSetEb>:
    22e4:	66 23       	and	r22, r22
    22e6:	41 f0       	breq	.+16     	; 0x22f8 <_ZN4PinSILh56ELh54ELh55ELh5EE7BoolSetEb+0x14>
    22e8:	dc 01       	movw	r26, r24
    22ea:	ed 91       	ld	r30, X+
    22ec:	fc 91       	ld	r31, X
    22ee:	06 84       	ldd	r0, Z+14	; 0x0e
    22f0:	f7 85       	ldd	r31, Z+15	; 0x0f
    22f2:	e0 2d       	mov	r30, r0
    22f4:	09 95       	icall
    22f6:	08 95       	ret
    22f8:	dc 01       	movw	r26, r24
    22fa:	ed 91       	ld	r30, X+
    22fc:	fc 91       	ld	r31, X
    22fe:	00 88       	ldd	r0, Z+16	; 0x10
    2300:	f1 89       	ldd	r31, Z+17	; 0x11
    2302:	e0 2d       	mov	r30, r0
    2304:	09 95       	icall
    2306:	08 95       	ret

00002308 <_ZN4PinSILh56ELh54ELh55ELh5EE5CheckEv>:
    2308:	86 b3       	in	r24, 0x16	; 22
    230a:	85 fb       	bst	r24, 5
    230c:	88 27       	eor	r24, r24
    230e:	80 f9       	bld	r24, 0
    2310:	08 95       	ret

00002312 <_ZN4PinSILh56ELh54ELh55ELh5EE3SetEv>:
    2312:	c5 9a       	sbi	0x18, 5	; 24
    2314:	08 95       	ret

00002316 <_ZN4PinSILh56ELh54ELh55ELh5EE5ClearEv>:
    2316:	c5 98       	cbi	0x18, 5	; 24
    2318:	08 95       	ret

0000231a <_ZN4PinSILh56ELh54ELh55ELh5EE6ToggleEv>:
    231a:	98 b3       	in	r25, 0x18	; 24
    231c:	80 e2       	ldi	r24, 0x20	; 32
    231e:	89 27       	eor	r24, r25
    2320:	88 bb       	out	0x18, r24	; 24
    2322:	08 95       	ret

00002324 <_ZN4PinSILh56ELh54ELh55ELh5EE8AsOutputEv>:
    2324:	bd 9a       	sbi	0x17, 5	; 23
    2326:	08 95       	ret

00002328 <_ZN4PinSILh56ELh54ELh55ELh5EE7AsInputEv>:
    2328:	bd 98       	cbi	0x17, 5	; 23
    232a:	08 95       	ret

0000232c <_ZN4PinSILh56ELh54ELh55ELh4EE7FastSetEv>:
    232c:	c4 9a       	sbi	0x18, 4	; 24
    232e:	08 95       	ret

00002330 <_ZN4PinSILh56ELh54ELh55ELh4EE9FastClearEv>:
    2330:	c4 98       	cbi	0x18, 4	; 24
    2332:	08 95       	ret

00002334 <_ZN4PinSILh56ELh54ELh55ELh4EE10FastToggleEv>:
    2334:	98 b3       	in	r25, 0x18	; 24
    2336:	80 e1       	ldi	r24, 0x10	; 16
    2338:	89 27       	eor	r24, r25
    233a:	88 bb       	out	0x18, r24	; 24
    233c:	08 95       	ret

0000233e <_ZN4PinSILh56ELh54ELh55ELh4EE12FastAsOutputEv>:
    233e:	bc 9a       	sbi	0x17, 4	; 23
    2340:	08 95       	ret

00002342 <_ZN4PinSILh56ELh54ELh55ELh4EE11FastAsInputEv>:
    2342:	bc 98       	cbi	0x17, 4	; 23
    2344:	08 95       	ret

00002346 <_ZN4PinSILh56ELh54ELh55ELh4EE7BoolSetEb>:
    2346:	66 23       	and	r22, r22
    2348:	41 f0       	breq	.+16     	; 0x235a <_ZN4PinSILh56ELh54ELh55ELh4EE7BoolSetEb+0x14>
    234a:	dc 01       	movw	r26, r24
    234c:	ed 91       	ld	r30, X+
    234e:	fc 91       	ld	r31, X
    2350:	06 84       	ldd	r0, Z+14	; 0x0e
    2352:	f7 85       	ldd	r31, Z+15	; 0x0f
    2354:	e0 2d       	mov	r30, r0
    2356:	09 95       	icall
    2358:	08 95       	ret
    235a:	dc 01       	movw	r26, r24
    235c:	ed 91       	ld	r30, X+
    235e:	fc 91       	ld	r31, X
    2360:	00 88       	ldd	r0, Z+16	; 0x10
    2362:	f1 89       	ldd	r31, Z+17	; 0x11
    2364:	e0 2d       	mov	r30, r0
    2366:	09 95       	icall
    2368:	08 95       	ret

0000236a <_ZN4PinSILh56ELh54ELh55ELh4EE5CheckEv>:
    236a:	86 b3       	in	r24, 0x16	; 22
    236c:	82 95       	swap	r24
    236e:	81 70       	andi	r24, 0x01	; 1
    2370:	08 95       	ret

00002372 <_ZN4PinSILh56ELh54ELh55ELh4EE3SetEv>:
    2372:	c4 9a       	sbi	0x18, 4	; 24
    2374:	08 95       	ret

00002376 <_ZN4PinSILh56ELh54ELh55ELh4EE5ClearEv>:
    2376:	c4 98       	cbi	0x18, 4	; 24
    2378:	08 95       	ret

0000237a <_ZN4PinSILh56ELh54ELh55ELh4EE6ToggleEv>:
    237a:	98 b3       	in	r25, 0x18	; 24
    237c:	80 e1       	ldi	r24, 0x10	; 16
    237e:	89 27       	eor	r24, r25
    2380:	88 bb       	out	0x18, r24	; 24
    2382:	08 95       	ret

00002384 <_ZN4PinSILh56ELh54ELh55ELh4EE8AsOutputEv>:
    2384:	bc 9a       	sbi	0x17, 4	; 23
    2386:	08 95       	ret

00002388 <_ZN4PinSILh56ELh54ELh55ELh4EE7AsInputEv>:
    2388:	bc 98       	cbi	0x17, 4	; 23
    238a:	08 95       	ret

0000238c <_ZN4PinSILh56ELh54ELh55ELh3EE7FastSetEv>:
    238c:	c3 9a       	sbi	0x18, 3	; 24
    238e:	08 95       	ret

00002390 <_ZN4PinSILh56ELh54ELh55ELh3EE9FastClearEv>:
    2390:	c3 98       	cbi	0x18, 3	; 24
    2392:	08 95       	ret

00002394 <_ZN4PinSILh56ELh54ELh55ELh3EE10FastToggleEv>:
    2394:	98 b3       	in	r25, 0x18	; 24
    2396:	88 e0       	ldi	r24, 0x08	; 8
    2398:	89 27       	eor	r24, r25
    239a:	88 bb       	out	0x18, r24	; 24
    239c:	08 95       	ret

0000239e <_ZN4PinSILh56ELh54ELh55ELh3EE12FastAsOutputEv>:
    239e:	bb 9a       	sbi	0x17, 3	; 23
    23a0:	08 95       	ret

000023a2 <_ZN4PinSILh56ELh54ELh55ELh3EE11FastAsInputEv>:
    23a2:	bb 98       	cbi	0x17, 3	; 23
    23a4:	08 95       	ret

000023a6 <_ZN4PinSILh56ELh54ELh55ELh3EE7BoolSetEb>:
    23a6:	66 23       	and	r22, r22
    23a8:	41 f0       	breq	.+16     	; 0x23ba <_ZN4PinSILh56ELh54ELh55ELh3EE7BoolSetEb+0x14>
    23aa:	dc 01       	movw	r26, r24
    23ac:	ed 91       	ld	r30, X+
    23ae:	fc 91       	ld	r31, X
    23b0:	06 84       	ldd	r0, Z+14	; 0x0e
    23b2:	f7 85       	ldd	r31, Z+15	; 0x0f
    23b4:	e0 2d       	mov	r30, r0
    23b6:	09 95       	icall
    23b8:	08 95       	ret
    23ba:	dc 01       	movw	r26, r24
    23bc:	ed 91       	ld	r30, X+
    23be:	fc 91       	ld	r31, X
    23c0:	00 88       	ldd	r0, Z+16	; 0x10
    23c2:	f1 89       	ldd	r31, Z+17	; 0x11
    23c4:	e0 2d       	mov	r30, r0
    23c6:	09 95       	icall
    23c8:	08 95       	ret

000023ca <_ZN4PinSILh56ELh54ELh55ELh3EE5CheckEv>:
    23ca:	86 b3       	in	r24, 0x16	; 22
    23cc:	83 fb       	bst	r24, 3
    23ce:	88 27       	eor	r24, r24
    23d0:	80 f9       	bld	r24, 0
    23d2:	08 95       	ret

000023d4 <_ZN4PinSILh56ELh54ELh55ELh3EE3SetEv>:
    23d4:	c3 9a       	sbi	0x18, 3	; 24
    23d6:	08 95       	ret

000023d8 <_ZN4PinSILh56ELh54ELh55ELh3EE5ClearEv>:
    23d8:	c3 98       	cbi	0x18, 3	; 24
    23da:	08 95       	ret

000023dc <_ZN4PinSILh56ELh54ELh55ELh3EE6ToggleEv>:
    23dc:	98 b3       	in	r25, 0x18	; 24
    23de:	88 e0       	ldi	r24, 0x08	; 8
    23e0:	89 27       	eor	r24, r25
    23e2:	88 bb       	out	0x18, r24	; 24
    23e4:	08 95       	ret

000023e6 <_ZN4PinSILh56ELh54ELh55ELh3EE8AsOutputEv>:
    23e6:	bb 9a       	sbi	0x17, 3	; 23
    23e8:	08 95       	ret

000023ea <_ZN4PinSILh56ELh54ELh55ELh3EE7AsInputEv>:
    23ea:	bb 98       	cbi	0x17, 3	; 23
    23ec:	08 95       	ret

000023ee <_ZN4PinSILh56ELh54ELh55ELh2EE7FastSetEv>:
    23ee:	c2 9a       	sbi	0x18, 2	; 24
    23f0:	08 95       	ret

000023f2 <_ZN4PinSILh56ELh54ELh55ELh2EE9FastClearEv>:
    23f2:	c2 98       	cbi	0x18, 2	; 24
    23f4:	08 95       	ret

000023f6 <_ZN4PinSILh56ELh54ELh55ELh2EE10FastToggleEv>:
    23f6:	98 b3       	in	r25, 0x18	; 24
    23f8:	84 e0       	ldi	r24, 0x04	; 4
    23fa:	89 27       	eor	r24, r25
    23fc:	88 bb       	out	0x18, r24	; 24
    23fe:	08 95       	ret

00002400 <_ZN4PinSILh56ELh54ELh55ELh2EE12FastAsOutputEv>:
    2400:	ba 9a       	sbi	0x17, 2	; 23
    2402:	08 95       	ret

00002404 <_ZN4PinSILh56ELh54ELh55ELh2EE11FastAsInputEv>:
    2404:	ba 98       	cbi	0x17, 2	; 23
    2406:	08 95       	ret

00002408 <_ZN4PinSILh56ELh54ELh55ELh2EE7BoolSetEb>:
    2408:	66 23       	and	r22, r22
    240a:	41 f0       	breq	.+16     	; 0x241c <_ZN4PinSILh56ELh54ELh55ELh2EE7BoolSetEb+0x14>
    240c:	dc 01       	movw	r26, r24
    240e:	ed 91       	ld	r30, X+
    2410:	fc 91       	ld	r31, X
    2412:	06 84       	ldd	r0, Z+14	; 0x0e
    2414:	f7 85       	ldd	r31, Z+15	; 0x0f
    2416:	e0 2d       	mov	r30, r0
    2418:	09 95       	icall
    241a:	08 95       	ret
    241c:	dc 01       	movw	r26, r24
    241e:	ed 91       	ld	r30, X+
    2420:	fc 91       	ld	r31, X
    2422:	00 88       	ldd	r0, Z+16	; 0x10
    2424:	f1 89       	ldd	r31, Z+17	; 0x11
    2426:	e0 2d       	mov	r30, r0
    2428:	09 95       	icall
    242a:	08 95       	ret

0000242c <_ZN4PinSILh56ELh54ELh55ELh2EE5CheckEv>:
    242c:	86 b3       	in	r24, 0x16	; 22
    242e:	82 fb       	bst	r24, 2
    2430:	88 27       	eor	r24, r24
    2432:	80 f9       	bld	r24, 0
    2434:	08 95       	ret

00002436 <_ZN4PinSILh56ELh54ELh55ELh2EE3SetEv>:
    2436:	c2 9a       	sbi	0x18, 2	; 24
    2438:	08 95       	ret

0000243a <_ZN4PinSILh56ELh54ELh55ELh2EE5ClearEv>:
    243a:	c2 98       	cbi	0x18, 2	; 24
    243c:	08 95       	ret

0000243e <_ZN4PinSILh56ELh54ELh55ELh2EE6ToggleEv>:
    243e:	98 b3       	in	r25, 0x18	; 24
    2440:	84 e0       	ldi	r24, 0x04	; 4
    2442:	89 27       	eor	r24, r25
    2444:	88 bb       	out	0x18, r24	; 24
    2446:	08 95       	ret

00002448 <_ZN4PinSILh56ELh54ELh55ELh2EE8AsOutputEv>:
    2448:	ba 9a       	sbi	0x17, 2	; 23
    244a:	08 95       	ret

0000244c <_ZN4PinSILh56ELh54ELh55ELh2EE7AsInputEv>:
    244c:	ba 98       	cbi	0x17, 2	; 23
    244e:	08 95       	ret

00002450 <_ZN4PinSILh56ELh54ELh55ELh1EE7FastSetEv>:
    2450:	c1 9a       	sbi	0x18, 1	; 24
    2452:	08 95       	ret

00002454 <_ZN4PinSILh56ELh54ELh55ELh1EE9FastClearEv>:
    2454:	c1 98       	cbi	0x18, 1	; 24
    2456:	08 95       	ret

00002458 <_ZN4PinSILh56ELh54ELh55ELh1EE10FastToggleEv>:
    2458:	98 b3       	in	r25, 0x18	; 24
    245a:	82 e0       	ldi	r24, 0x02	; 2
    245c:	89 27       	eor	r24, r25
    245e:	88 bb       	out	0x18, r24	; 24
    2460:	08 95       	ret

00002462 <_ZN4PinSILh56ELh54ELh55ELh1EE12FastAsOutputEv>:
    2462:	b9 9a       	sbi	0x17, 1	; 23
    2464:	08 95       	ret

00002466 <_ZN4PinSILh56ELh54ELh55ELh1EE11FastAsInputEv>:
    2466:	b9 98       	cbi	0x17, 1	; 23
    2468:	08 95       	ret

0000246a <_ZN4PinSILh56ELh54ELh55ELh1EE7BoolSetEb>:
    246a:	66 23       	and	r22, r22
    246c:	41 f0       	breq	.+16     	; 0x247e <_ZN4PinSILh56ELh54ELh55ELh1EE7BoolSetEb+0x14>
    246e:	dc 01       	movw	r26, r24
    2470:	ed 91       	ld	r30, X+
    2472:	fc 91       	ld	r31, X
    2474:	06 84       	ldd	r0, Z+14	; 0x0e
    2476:	f7 85       	ldd	r31, Z+15	; 0x0f
    2478:	e0 2d       	mov	r30, r0
    247a:	09 95       	icall
    247c:	08 95       	ret
    247e:	dc 01       	movw	r26, r24
    2480:	ed 91       	ld	r30, X+
    2482:	fc 91       	ld	r31, X
    2484:	00 88       	ldd	r0, Z+16	; 0x10
    2486:	f1 89       	ldd	r31, Z+17	; 0x11
    2488:	e0 2d       	mov	r30, r0
    248a:	09 95       	icall
    248c:	08 95       	ret

0000248e <_ZN4PinSILh56ELh54ELh55ELh1EE5CheckEv>:
    248e:	86 b3       	in	r24, 0x16	; 22
    2490:	86 95       	lsr	r24
    2492:	81 70       	andi	r24, 0x01	; 1
    2494:	08 95       	ret

00002496 <_ZN4PinSILh56ELh54ELh55ELh1EE3SetEv>:
    2496:	c1 9a       	sbi	0x18, 1	; 24
    2498:	08 95       	ret

0000249a <_ZN4PinSILh56ELh54ELh55ELh1EE5ClearEv>:
    249a:	c1 98       	cbi	0x18, 1	; 24
    249c:	08 95       	ret

0000249e <_ZN4PinSILh56ELh54ELh55ELh1EE6ToggleEv>:
    249e:	98 b3       	in	r25, 0x18	; 24
    24a0:	82 e0       	ldi	r24, 0x02	; 2
    24a2:	89 27       	eor	r24, r25
    24a4:	88 bb       	out	0x18, r24	; 24
    24a6:	08 95       	ret

000024a8 <_ZN4PinSILh56ELh54ELh55ELh1EE8AsOutputEv>:
    24a8:	b9 9a       	sbi	0x17, 1	; 23
    24aa:	08 95       	ret

000024ac <_ZN4PinSILh56ELh54ELh55ELh1EE7AsInputEv>:
    24ac:	b9 98       	cbi	0x17, 1	; 23
    24ae:	08 95       	ret

000024b0 <_ZN4PinSILh56ELh54ELh55ELh0EE7FastSetEv>:
    24b0:	c0 9a       	sbi	0x18, 0	; 24
    24b2:	08 95       	ret

000024b4 <_ZN4PinSILh56ELh54ELh55ELh0EE9FastClearEv>:
    24b4:	c0 98       	cbi	0x18, 0	; 24
    24b6:	08 95       	ret

000024b8 <_ZN4PinSILh56ELh54ELh55ELh0EE10FastToggleEv>:
    24b8:	98 b3       	in	r25, 0x18	; 24
    24ba:	81 e0       	ldi	r24, 0x01	; 1
    24bc:	89 27       	eor	r24, r25
    24be:	88 bb       	out	0x18, r24	; 24
    24c0:	08 95       	ret

000024c2 <_ZN4PinSILh56ELh54ELh55ELh0EE12FastAsOutputEv>:
    24c2:	b8 9a       	sbi	0x17, 0	; 23
    24c4:	08 95       	ret

000024c6 <_ZN4PinSILh56ELh54ELh55ELh0EE11FastAsInputEv>:
    24c6:	b8 98       	cbi	0x17, 0	; 23
    24c8:	08 95       	ret

000024ca <_ZN4PinSILh56ELh54ELh55ELh0EE7BoolSetEb>:
    24ca:	66 23       	and	r22, r22
    24cc:	41 f0       	breq	.+16     	; 0x24de <_ZN4PinSILh56ELh54ELh55ELh0EE7BoolSetEb+0x14>
    24ce:	dc 01       	movw	r26, r24
    24d0:	ed 91       	ld	r30, X+
    24d2:	fc 91       	ld	r31, X
    24d4:	06 84       	ldd	r0, Z+14	; 0x0e
    24d6:	f7 85       	ldd	r31, Z+15	; 0x0f
    24d8:	e0 2d       	mov	r30, r0
    24da:	09 95       	icall
    24dc:	08 95       	ret
    24de:	dc 01       	movw	r26, r24
    24e0:	ed 91       	ld	r30, X+
    24e2:	fc 91       	ld	r31, X
    24e4:	00 88       	ldd	r0, Z+16	; 0x10
    24e6:	f1 89       	ldd	r31, Z+17	; 0x11
    24e8:	e0 2d       	mov	r30, r0
    24ea:	09 95       	icall
    24ec:	08 95       	ret

000024ee <_ZN4PinSILh56ELh54ELh55ELh0EE5CheckEv>:
    24ee:	86 b3       	in	r24, 0x16	; 22
    24f0:	81 70       	andi	r24, 0x01	; 1
    24f2:	08 95       	ret

000024f4 <_ZN4PinSILh56ELh54ELh55ELh0EE3SetEv>:
    24f4:	c0 9a       	sbi	0x18, 0	; 24
    24f6:	08 95       	ret

000024f8 <_ZN4PinSILh56ELh54ELh55ELh0EE5ClearEv>:
    24f8:	c0 98       	cbi	0x18, 0	; 24
    24fa:	08 95       	ret

000024fc <_ZN4PinSILh56ELh54ELh55ELh0EE6ToggleEv>:
    24fc:	98 b3       	in	r25, 0x18	; 24
    24fe:	81 e0       	ldi	r24, 0x01	; 1
    2500:	89 27       	eor	r24, r25
    2502:	88 bb       	out	0x18, r24	; 24
    2504:	08 95       	ret

00002506 <_ZN4PinSILh56ELh54ELh55ELh0EE8AsOutputEv>:
    2506:	b8 9a       	sbi	0x17, 0	; 23
    2508:	08 95       	ret

0000250a <_ZN4PinSILh56ELh54ELh55ELh0EE7AsInputEv>:
    250a:	b8 98       	cbi	0x17, 0	; 23
    250c:	08 95       	ret

0000250e <_ZN4PinSILh59ELh57ELh58ELh2EE7FastSetEv>:
    250e:	da 9a       	sbi	0x1b, 2	; 27
    2510:	08 95       	ret

00002512 <_ZN4PinSILh59ELh57ELh58ELh2EE9FastClearEv>:
    2512:	da 98       	cbi	0x1b, 2	; 27
    2514:	08 95       	ret

00002516 <_ZN4PinSILh59ELh57ELh58ELh2EE10FastToggleEv>:
    2516:	9b b3       	in	r25, 0x1b	; 27
    2518:	84 e0       	ldi	r24, 0x04	; 4
    251a:	89 27       	eor	r24, r25
    251c:	8b bb       	out	0x1b, r24	; 27
    251e:	08 95       	ret

00002520 <_ZN4PinSILh59ELh57ELh58ELh2EE12FastAsOutputEv>:
    2520:	d2 9a       	sbi	0x1a, 2	; 26
    2522:	08 95       	ret

00002524 <_ZN4PinSILh59ELh57ELh58ELh2EE11FastAsInputEv>:
    2524:	d2 98       	cbi	0x1a, 2	; 26
    2526:	08 95       	ret

00002528 <_ZN4PinSILh59ELh57ELh58ELh2EE7BoolSetEb>:
    2528:	66 23       	and	r22, r22
    252a:	41 f0       	breq	.+16     	; 0x253c <_ZN4PinSILh59ELh57ELh58ELh2EE7BoolSetEb+0x14>
    252c:	dc 01       	movw	r26, r24
    252e:	ed 91       	ld	r30, X+
    2530:	fc 91       	ld	r31, X
    2532:	06 84       	ldd	r0, Z+14	; 0x0e
    2534:	f7 85       	ldd	r31, Z+15	; 0x0f
    2536:	e0 2d       	mov	r30, r0
    2538:	09 95       	icall
    253a:	08 95       	ret
    253c:	dc 01       	movw	r26, r24
    253e:	ed 91       	ld	r30, X+
    2540:	fc 91       	ld	r31, X
    2542:	00 88       	ldd	r0, Z+16	; 0x10
    2544:	f1 89       	ldd	r31, Z+17	; 0x11
    2546:	e0 2d       	mov	r30, r0
    2548:	09 95       	icall
    254a:	08 95       	ret

0000254c <_ZN4PinSILh59ELh57ELh58ELh2EE5CheckEv>:
    254c:	89 b3       	in	r24, 0x19	; 25
    254e:	82 fb       	bst	r24, 2
    2550:	88 27       	eor	r24, r24
    2552:	80 f9       	bld	r24, 0
    2554:	08 95       	ret

00002556 <_ZN4PinSILh59ELh57ELh58ELh2EE3SetEv>:
    2556:	da 9a       	sbi	0x1b, 2	; 27
    2558:	08 95       	ret

0000255a <_ZN4PinSILh59ELh57ELh58ELh2EE5ClearEv>:
    255a:	da 98       	cbi	0x1b, 2	; 27
    255c:	08 95       	ret

0000255e <_ZN4PinSILh59ELh57ELh58ELh2EE6ToggleEv>:
    255e:	9b b3       	in	r25, 0x1b	; 27
    2560:	84 e0       	ldi	r24, 0x04	; 4
    2562:	89 27       	eor	r24, r25
    2564:	8b bb       	out	0x1b, r24	; 27
    2566:	08 95       	ret

00002568 <_ZN4PinSILh59ELh57ELh58ELh2EE8AsOutputEv>:
    2568:	d2 9a       	sbi	0x1a, 2	; 26
    256a:	08 95       	ret

0000256c <_ZN4PinSILh59ELh57ELh58ELh2EE7AsInputEv>:
    256c:	d2 98       	cbi	0x1a, 2	; 26
    256e:	08 95       	ret

00002570 <_ZN4PinSILh59ELh57ELh58ELh1EE7FastSetEv>:
    2570:	d9 9a       	sbi	0x1b, 1	; 27
    2572:	08 95       	ret

00002574 <_ZN4PinSILh59ELh57ELh58ELh1EE9FastClearEv>:
    2574:	d9 98       	cbi	0x1b, 1	; 27
    2576:	08 95       	ret

00002578 <_ZN4PinSILh59ELh57ELh58ELh1EE10FastToggleEv>:
    2578:	9b b3       	in	r25, 0x1b	; 27
    257a:	82 e0       	ldi	r24, 0x02	; 2
    257c:	89 27       	eor	r24, r25
    257e:	8b bb       	out	0x1b, r24	; 27
    2580:	08 95       	ret

00002582 <_ZN4PinSILh59ELh57ELh58ELh1EE12FastAsOutputEv>:
    2582:	d1 9a       	sbi	0x1a, 1	; 26
    2584:	08 95       	ret

00002586 <_ZN4PinSILh59ELh57ELh58ELh1EE11FastAsInputEv>:
    2586:	d1 98       	cbi	0x1a, 1	; 26
    2588:	08 95       	ret

0000258a <_ZN4PinSILh59ELh57ELh58ELh1EE7BoolSetEb>:
    258a:	66 23       	and	r22, r22
    258c:	41 f0       	breq	.+16     	; 0x259e <_ZN4PinSILh59ELh57ELh58ELh1EE7BoolSetEb+0x14>
    258e:	dc 01       	movw	r26, r24
    2590:	ed 91       	ld	r30, X+
    2592:	fc 91       	ld	r31, X
    2594:	06 84       	ldd	r0, Z+14	; 0x0e
    2596:	f7 85       	ldd	r31, Z+15	; 0x0f
    2598:	e0 2d       	mov	r30, r0
    259a:	09 95       	icall
    259c:	08 95       	ret
    259e:	dc 01       	movw	r26, r24
    25a0:	ed 91       	ld	r30, X+
    25a2:	fc 91       	ld	r31, X
    25a4:	00 88       	ldd	r0, Z+16	; 0x10
    25a6:	f1 89       	ldd	r31, Z+17	; 0x11
    25a8:	e0 2d       	mov	r30, r0
    25aa:	09 95       	icall
    25ac:	08 95       	ret

000025ae <_ZN4PinSILh59ELh57ELh58ELh1EE5CheckEv>:
    25ae:	89 b3       	in	r24, 0x19	; 25
    25b0:	86 95       	lsr	r24
    25b2:	81 70       	andi	r24, 0x01	; 1
    25b4:	08 95       	ret

000025b6 <_ZN4PinSILh59ELh57ELh58ELh1EE3SetEv>:
    25b6:	d9 9a       	sbi	0x1b, 1	; 27
    25b8:	08 95       	ret

000025ba <_ZN4PinSILh59ELh57ELh58ELh1EE5ClearEv>:
    25ba:	d9 98       	cbi	0x1b, 1	; 27
    25bc:	08 95       	ret

000025be <_ZN4PinSILh59ELh57ELh58ELh1EE6ToggleEv>:
    25be:	9b b3       	in	r25, 0x1b	; 27
    25c0:	82 e0       	ldi	r24, 0x02	; 2
    25c2:	89 27       	eor	r24, r25
    25c4:	8b bb       	out	0x1b, r24	; 27
    25c6:	08 95       	ret

000025c8 <_ZN4PinSILh59ELh57ELh58ELh1EE8AsOutputEv>:
    25c8:	d1 9a       	sbi	0x1a, 1	; 26
    25ca:	08 95       	ret

000025cc <_ZN4PinSILh59ELh57ELh58ELh1EE7AsInputEv>:
    25cc:	d1 98       	cbi	0x1a, 1	; 26
    25ce:	08 95       	ret

000025d0 <_ZN4PinSILh59ELh57ELh58ELh0EE7FastSetEv>:
    25d0:	d8 9a       	sbi	0x1b, 0	; 27
    25d2:	08 95       	ret

000025d4 <_ZN4PinSILh59ELh57ELh58ELh0EE9FastClearEv>:
    25d4:	d8 98       	cbi	0x1b, 0	; 27
    25d6:	08 95       	ret

000025d8 <_ZN4PinSILh59ELh57ELh58ELh0EE10FastToggleEv>:
    25d8:	9b b3       	in	r25, 0x1b	; 27
    25da:	81 e0       	ldi	r24, 0x01	; 1
    25dc:	89 27       	eor	r24, r25
    25de:	8b bb       	out	0x1b, r24	; 27
    25e0:	08 95       	ret

000025e2 <_ZN4PinSILh59ELh57ELh58ELh0EE12FastAsOutputEv>:
    25e2:	d0 9a       	sbi	0x1a, 0	; 26
    25e4:	08 95       	ret

000025e6 <_ZN4PinSILh59ELh57ELh58ELh0EE11FastAsInputEv>:
    25e6:	d0 98       	cbi	0x1a, 0	; 26
    25e8:	08 95       	ret

000025ea <_ZN4PinSILh59ELh57ELh58ELh0EE7BoolSetEb>:
    25ea:	66 23       	and	r22, r22
    25ec:	41 f0       	breq	.+16     	; 0x25fe <_ZN4PinSILh59ELh57ELh58ELh0EE7BoolSetEb+0x14>
    25ee:	dc 01       	movw	r26, r24
    25f0:	ed 91       	ld	r30, X+
    25f2:	fc 91       	ld	r31, X
    25f4:	06 84       	ldd	r0, Z+14	; 0x0e
    25f6:	f7 85       	ldd	r31, Z+15	; 0x0f
    25f8:	e0 2d       	mov	r30, r0
    25fa:	09 95       	icall
    25fc:	08 95       	ret
    25fe:	dc 01       	movw	r26, r24
    2600:	ed 91       	ld	r30, X+
    2602:	fc 91       	ld	r31, X
    2604:	00 88       	ldd	r0, Z+16	; 0x10
    2606:	f1 89       	ldd	r31, Z+17	; 0x11
    2608:	e0 2d       	mov	r30, r0
    260a:	09 95       	icall
    260c:	08 95       	ret

0000260e <_ZN4PinSILh59ELh57ELh58ELh0EE5CheckEv>:
    260e:	89 b3       	in	r24, 0x19	; 25
    2610:	81 70       	andi	r24, 0x01	; 1
    2612:	08 95       	ret

00002614 <_ZN4PinSILh59ELh57ELh58ELh0EE3SetEv>:
    2614:	d8 9a       	sbi	0x1b, 0	; 27
    2616:	08 95       	ret

00002618 <_ZN4PinSILh59ELh57ELh58ELh0EE5ClearEv>:
    2618:	d8 98       	cbi	0x1b, 0	; 27
    261a:	08 95       	ret

0000261c <_ZN4PinSILh59ELh57ELh58ELh0EE6ToggleEv>:
    261c:	9b b3       	in	r25, 0x1b	; 27
    261e:	81 e0       	ldi	r24, 0x01	; 1
    2620:	89 27       	eor	r24, r25
    2622:	8b bb       	out	0x1b, r24	; 27
    2624:	08 95       	ret

00002626 <_ZN4PinSILh59ELh57ELh58ELh0EE8AsOutputEv>:
    2626:	d0 9a       	sbi	0x1a, 0	; 26
    2628:	08 95       	ret

0000262a <_ZN4PinSILh59ELh57ELh58ELh0EE7AsInputEv>:
    262a:	d0 98       	cbi	0x1a, 0	; 26
    262c:	08 95       	ret

0000262e <_ZN4PinSILh50ELh48ELh49ELh5EED0Ev>:
    262e:	0e 94 8a 15 	call	0x2b14	; 0x2b14 <free>
    2632:	08 95       	ret

00002634 <_ZN4PinSILh53ELh51ELh52ELh0EED0Ev>:
    2634:	0e 94 8a 15 	call	0x2b14	; 0x2b14 <free>
    2638:	08 95       	ret

0000263a <_ZN4PinSILh53ELh51ELh52ELh1EED0Ev>:
    263a:	0e 94 8a 15 	call	0x2b14	; 0x2b14 <free>
    263e:	08 95       	ret

00002640 <_ZN4PinSILh53ELh51ELh52ELh2EED0Ev>:
    2640:	0e 94 8a 15 	call	0x2b14	; 0x2b14 <free>
    2644:	08 95       	ret

00002646 <_ZN4PinSILh53ELh51ELh52ELh3EED0Ev>:
    2646:	0e 94 8a 15 	call	0x2b14	; 0x2b14 <free>
    264a:	08 95       	ret

0000264c <_ZN4PinSILh53ELh51ELh52ELh4EED0Ev>:
    264c:	0e 94 8a 15 	call	0x2b14	; 0x2b14 <free>
    2650:	08 95       	ret

00002652 <_ZN4PinSILh53ELh51ELh52ELh5EED0Ev>:
    2652:	0e 94 8a 15 	call	0x2b14	; 0x2b14 <free>
    2656:	08 95       	ret

00002658 <_ZN4PinSILh53ELh51ELh52ELh6EED0Ev>:
    2658:	0e 94 8a 15 	call	0x2b14	; 0x2b14 <free>
    265c:	08 95       	ret

0000265e <_ZN4PinSILh53ELh51ELh52ELh7EED0Ev>:
    265e:	0e 94 8a 15 	call	0x2b14	; 0x2b14 <free>
    2662:	08 95       	ret

00002664 <_ZN4PinSILh56ELh54ELh55ELh7EED0Ev>:
    2664:	0e 94 8a 15 	call	0x2b14	; 0x2b14 <free>
    2668:	08 95       	ret

0000266a <_ZN4PinSILh56ELh54ELh55ELh6EED0Ev>:
    266a:	0e 94 8a 15 	call	0x2b14	; 0x2b14 <free>
    266e:	08 95       	ret

00002670 <_ZN4PinSILh56ELh54ELh55ELh5EED0Ev>:
    2670:	0e 94 8a 15 	call	0x2b14	; 0x2b14 <free>
    2674:	08 95       	ret

00002676 <_ZN4PinSILh56ELh54ELh55ELh4EED0Ev>:
    2676:	0e 94 8a 15 	call	0x2b14	; 0x2b14 <free>
    267a:	08 95       	ret

0000267c <_ZN4PinSILh56ELh54ELh55ELh3EED0Ev>:
    267c:	0e 94 8a 15 	call	0x2b14	; 0x2b14 <free>
    2680:	08 95       	ret

00002682 <_ZN4PinSILh56ELh54ELh55ELh2EED0Ev>:
    2682:	0e 94 8a 15 	call	0x2b14	; 0x2b14 <free>
    2686:	08 95       	ret

00002688 <_ZN4PinSILh56ELh54ELh55ELh1EED0Ev>:
    2688:	0e 94 8a 15 	call	0x2b14	; 0x2b14 <free>
    268c:	08 95       	ret

0000268e <_ZN4PinSILh56ELh54ELh55ELh0EED0Ev>:
    268e:	0e 94 8a 15 	call	0x2b14	; 0x2b14 <free>
    2692:	08 95       	ret

00002694 <_ZN4PinSILh59ELh57ELh58ELh2EED0Ev>:
    2694:	0e 94 8a 15 	call	0x2b14	; 0x2b14 <free>
    2698:	08 95       	ret

0000269a <_ZN4PinSILh59ELh57ELh58ELh1EED0Ev>:
    269a:	0e 94 8a 15 	call	0x2b14	; 0x2b14 <free>
    269e:	08 95       	ret

000026a0 <_ZN4PinSILh59ELh57ELh58ELh0EED0Ev>:
    26a0:	0e 94 8a 15 	call	0x2b14	; 0x2b14 <free>
    26a4:	08 95       	ret

000026a6 <__divsf3>:
    26a6:	0e 94 67 13 	call	0x26ce	; 0x26ce <__divsf3x>
    26aa:	0c 94 48 14 	jmp	0x2890	; 0x2890 <__fp_round>
    26ae:	0e 94 41 14 	call	0x2882	; 0x2882 <__fp_pscB>
    26b2:	58 f0       	brcs	.+22     	; 0x26ca <__divsf3+0x24>
    26b4:	0e 94 3a 14 	call	0x2874	; 0x2874 <__fp_pscA>
    26b8:	40 f0       	brcs	.+16     	; 0x26ca <__divsf3+0x24>
    26ba:	29 f4       	brne	.+10     	; 0x26c6 <__divsf3+0x20>
    26bc:	5f 3f       	cpi	r21, 0xFF	; 255
    26be:	29 f0       	breq	.+10     	; 0x26ca <__divsf3+0x24>
    26c0:	0c 94 31 14 	jmp	0x2862	; 0x2862 <__fp_inf>
    26c4:	51 11       	cpse	r21, r1
    26c6:	0c 94 7c 14 	jmp	0x28f8	; 0x28f8 <__fp_szero>
    26ca:	0c 94 37 14 	jmp	0x286e	; 0x286e <__fp_nan>

000026ce <__divsf3x>:
    26ce:	0e 94 59 14 	call	0x28b2	; 0x28b2 <__fp_split3>
    26d2:	68 f3       	brcs	.-38     	; 0x26ae <__divsf3+0x8>

000026d4 <__divsf3_pse>:
    26d4:	99 23       	and	r25, r25
    26d6:	b1 f3       	breq	.-20     	; 0x26c4 <__divsf3+0x1e>
    26d8:	55 23       	and	r21, r21
    26da:	91 f3       	breq	.-28     	; 0x26c0 <__divsf3+0x1a>
    26dc:	95 1b       	sub	r25, r21
    26de:	55 0b       	sbc	r21, r21
    26e0:	bb 27       	eor	r27, r27
    26e2:	aa 27       	eor	r26, r26
    26e4:	62 17       	cp	r22, r18
    26e6:	73 07       	cpc	r23, r19
    26e8:	84 07       	cpc	r24, r20
    26ea:	38 f0       	brcs	.+14     	; 0x26fa <__divsf3_pse+0x26>
    26ec:	9f 5f       	subi	r25, 0xFF	; 255
    26ee:	5f 4f       	sbci	r21, 0xFF	; 255
    26f0:	22 0f       	add	r18, r18
    26f2:	33 1f       	adc	r19, r19
    26f4:	44 1f       	adc	r20, r20
    26f6:	aa 1f       	adc	r26, r26
    26f8:	a9 f3       	breq	.-22     	; 0x26e4 <__divsf3_pse+0x10>
    26fa:	35 d0       	rcall	.+106    	; 0x2766 <__divsf3_pse+0x92>
    26fc:	0e 2e       	mov	r0, r30
    26fe:	3a f0       	brmi	.+14     	; 0x270e <__divsf3_pse+0x3a>
    2700:	e0 e8       	ldi	r30, 0x80	; 128
    2702:	32 d0       	rcall	.+100    	; 0x2768 <__divsf3_pse+0x94>
    2704:	91 50       	subi	r25, 0x01	; 1
    2706:	50 40       	sbci	r21, 0x00	; 0
    2708:	e6 95       	lsr	r30
    270a:	00 1c       	adc	r0, r0
    270c:	ca f7       	brpl	.-14     	; 0x2700 <__divsf3_pse+0x2c>
    270e:	2b d0       	rcall	.+86     	; 0x2766 <__divsf3_pse+0x92>
    2710:	fe 2f       	mov	r31, r30
    2712:	29 d0       	rcall	.+82     	; 0x2766 <__divsf3_pse+0x92>
    2714:	66 0f       	add	r22, r22
    2716:	77 1f       	adc	r23, r23
    2718:	88 1f       	adc	r24, r24
    271a:	bb 1f       	adc	r27, r27
    271c:	26 17       	cp	r18, r22
    271e:	37 07       	cpc	r19, r23
    2720:	48 07       	cpc	r20, r24
    2722:	ab 07       	cpc	r26, r27
    2724:	b0 e8       	ldi	r27, 0x80	; 128
    2726:	09 f0       	breq	.+2      	; 0x272a <__divsf3_pse+0x56>
    2728:	bb 0b       	sbc	r27, r27
    272a:	80 2d       	mov	r24, r0
    272c:	bf 01       	movw	r22, r30
    272e:	ff 27       	eor	r31, r31
    2730:	93 58       	subi	r25, 0x83	; 131
    2732:	5f 4f       	sbci	r21, 0xFF	; 255
    2734:	3a f0       	brmi	.+14     	; 0x2744 <__divsf3_pse+0x70>
    2736:	9e 3f       	cpi	r25, 0xFE	; 254
    2738:	51 05       	cpc	r21, r1
    273a:	78 f0       	brcs	.+30     	; 0x275a <__divsf3_pse+0x86>
    273c:	0c 94 31 14 	jmp	0x2862	; 0x2862 <__fp_inf>
    2740:	0c 94 7c 14 	jmp	0x28f8	; 0x28f8 <__fp_szero>
    2744:	5f 3f       	cpi	r21, 0xFF	; 255
    2746:	e4 f3       	brlt	.-8      	; 0x2740 <__divsf3_pse+0x6c>
    2748:	98 3e       	cpi	r25, 0xE8	; 232
    274a:	d4 f3       	brlt	.-12     	; 0x2740 <__divsf3_pse+0x6c>
    274c:	86 95       	lsr	r24
    274e:	77 95       	ror	r23
    2750:	67 95       	ror	r22
    2752:	b7 95       	ror	r27
    2754:	f7 95       	ror	r31
    2756:	9f 5f       	subi	r25, 0xFF	; 255
    2758:	c9 f7       	brne	.-14     	; 0x274c <__divsf3_pse+0x78>
    275a:	88 0f       	add	r24, r24
    275c:	91 1d       	adc	r25, r1
    275e:	96 95       	lsr	r25
    2760:	87 95       	ror	r24
    2762:	97 f9       	bld	r25, 7
    2764:	08 95       	ret
    2766:	e1 e0       	ldi	r30, 0x01	; 1
    2768:	66 0f       	add	r22, r22
    276a:	77 1f       	adc	r23, r23
    276c:	88 1f       	adc	r24, r24
    276e:	bb 1f       	adc	r27, r27
    2770:	62 17       	cp	r22, r18
    2772:	73 07       	cpc	r23, r19
    2774:	84 07       	cpc	r24, r20
    2776:	ba 07       	cpc	r27, r26
    2778:	20 f0       	brcs	.+8      	; 0x2782 <__divsf3_pse+0xae>
    277a:	62 1b       	sub	r22, r18
    277c:	73 0b       	sbc	r23, r19
    277e:	84 0b       	sbc	r24, r20
    2780:	ba 0b       	sbc	r27, r26
    2782:	ee 1f       	adc	r30, r30
    2784:	88 f7       	brcc	.-30     	; 0x2768 <__divsf3_pse+0x94>
    2786:	e0 95       	com	r30
    2788:	08 95       	ret

0000278a <__fixunssfsi>:
    278a:	0e 94 61 14 	call	0x28c2	; 0x28c2 <__fp_splitA>
    278e:	88 f0       	brcs	.+34     	; 0x27b2 <__fixunssfsi+0x28>
    2790:	9f 57       	subi	r25, 0x7F	; 127
    2792:	98 f0       	brcs	.+38     	; 0x27ba <__fixunssfsi+0x30>
    2794:	b9 2f       	mov	r27, r25
    2796:	99 27       	eor	r25, r25
    2798:	b7 51       	subi	r27, 0x17	; 23
    279a:	b0 f0       	brcs	.+44     	; 0x27c8 <__fixunssfsi+0x3e>
    279c:	e1 f0       	breq	.+56     	; 0x27d6 <__fixunssfsi+0x4c>
    279e:	66 0f       	add	r22, r22
    27a0:	77 1f       	adc	r23, r23
    27a2:	88 1f       	adc	r24, r24
    27a4:	99 1f       	adc	r25, r25
    27a6:	1a f0       	brmi	.+6      	; 0x27ae <__fixunssfsi+0x24>
    27a8:	ba 95       	dec	r27
    27aa:	c9 f7       	brne	.-14     	; 0x279e <__fixunssfsi+0x14>
    27ac:	14 c0       	rjmp	.+40     	; 0x27d6 <__fixunssfsi+0x4c>
    27ae:	b1 30       	cpi	r27, 0x01	; 1
    27b0:	91 f0       	breq	.+36     	; 0x27d6 <__fixunssfsi+0x4c>
    27b2:	0e 94 7b 14 	call	0x28f6	; 0x28f6 <__fp_zero>
    27b6:	b1 e0       	ldi	r27, 0x01	; 1
    27b8:	08 95       	ret
    27ba:	0c 94 7b 14 	jmp	0x28f6	; 0x28f6 <__fp_zero>
    27be:	67 2f       	mov	r22, r23
    27c0:	78 2f       	mov	r23, r24
    27c2:	88 27       	eor	r24, r24
    27c4:	b8 5f       	subi	r27, 0xF8	; 248
    27c6:	39 f0       	breq	.+14     	; 0x27d6 <__fixunssfsi+0x4c>
    27c8:	b9 3f       	cpi	r27, 0xF9	; 249
    27ca:	cc f3       	brlt	.-14     	; 0x27be <__fixunssfsi+0x34>
    27cc:	86 95       	lsr	r24
    27ce:	77 95       	ror	r23
    27d0:	67 95       	ror	r22
    27d2:	b3 95       	inc	r27
    27d4:	d9 f7       	brne	.-10     	; 0x27cc <__fixunssfsi+0x42>
    27d6:	3e f4       	brtc	.+14     	; 0x27e6 <__fixunssfsi+0x5c>
    27d8:	90 95       	com	r25
    27da:	80 95       	com	r24
    27dc:	70 95       	com	r23
    27de:	61 95       	neg	r22
    27e0:	7f 4f       	sbci	r23, 0xFF	; 255
    27e2:	8f 4f       	sbci	r24, 0xFF	; 255
    27e4:	9f 4f       	sbci	r25, 0xFF	; 255
    27e6:	08 95       	ret

000027e8 <__floatunsisf>:
    27e8:	e8 94       	clt
    27ea:	09 c0       	rjmp	.+18     	; 0x27fe <__floatsisf+0x12>

000027ec <__floatsisf>:
    27ec:	97 fb       	bst	r25, 7
    27ee:	3e f4       	brtc	.+14     	; 0x27fe <__floatsisf+0x12>
    27f0:	90 95       	com	r25
    27f2:	80 95       	com	r24
    27f4:	70 95       	com	r23
    27f6:	61 95       	neg	r22
    27f8:	7f 4f       	sbci	r23, 0xFF	; 255
    27fa:	8f 4f       	sbci	r24, 0xFF	; 255
    27fc:	9f 4f       	sbci	r25, 0xFF	; 255
    27fe:	99 23       	and	r25, r25
    2800:	a9 f0       	breq	.+42     	; 0x282c <__floatsisf+0x40>
    2802:	f9 2f       	mov	r31, r25
    2804:	96 e9       	ldi	r25, 0x96	; 150
    2806:	bb 27       	eor	r27, r27
    2808:	93 95       	inc	r25
    280a:	f6 95       	lsr	r31
    280c:	87 95       	ror	r24
    280e:	77 95       	ror	r23
    2810:	67 95       	ror	r22
    2812:	b7 95       	ror	r27
    2814:	f1 11       	cpse	r31, r1
    2816:	f8 cf       	rjmp	.-16     	; 0x2808 <__floatsisf+0x1c>
    2818:	fa f4       	brpl	.+62     	; 0x2858 <__floatsisf+0x6c>
    281a:	bb 0f       	add	r27, r27
    281c:	11 f4       	brne	.+4      	; 0x2822 <__floatsisf+0x36>
    281e:	60 ff       	sbrs	r22, 0
    2820:	1b c0       	rjmp	.+54     	; 0x2858 <__floatsisf+0x6c>
    2822:	6f 5f       	subi	r22, 0xFF	; 255
    2824:	7f 4f       	sbci	r23, 0xFF	; 255
    2826:	8f 4f       	sbci	r24, 0xFF	; 255
    2828:	9f 4f       	sbci	r25, 0xFF	; 255
    282a:	16 c0       	rjmp	.+44     	; 0x2858 <__floatsisf+0x6c>
    282c:	88 23       	and	r24, r24
    282e:	11 f0       	breq	.+4      	; 0x2834 <__floatsisf+0x48>
    2830:	96 e9       	ldi	r25, 0x96	; 150
    2832:	11 c0       	rjmp	.+34     	; 0x2856 <__floatsisf+0x6a>
    2834:	77 23       	and	r23, r23
    2836:	21 f0       	breq	.+8      	; 0x2840 <__floatsisf+0x54>
    2838:	9e e8       	ldi	r25, 0x8E	; 142
    283a:	87 2f       	mov	r24, r23
    283c:	76 2f       	mov	r23, r22
    283e:	05 c0       	rjmp	.+10     	; 0x284a <__floatsisf+0x5e>
    2840:	66 23       	and	r22, r22
    2842:	71 f0       	breq	.+28     	; 0x2860 <__floatsisf+0x74>
    2844:	96 e8       	ldi	r25, 0x86	; 134
    2846:	86 2f       	mov	r24, r22
    2848:	70 e0       	ldi	r23, 0x00	; 0
    284a:	60 e0       	ldi	r22, 0x00	; 0
    284c:	2a f0       	brmi	.+10     	; 0x2858 <__floatsisf+0x6c>
    284e:	9a 95       	dec	r25
    2850:	66 0f       	add	r22, r22
    2852:	77 1f       	adc	r23, r23
    2854:	88 1f       	adc	r24, r24
    2856:	da f7       	brpl	.-10     	; 0x284e <__floatsisf+0x62>
    2858:	88 0f       	add	r24, r24
    285a:	96 95       	lsr	r25
    285c:	87 95       	ror	r24
    285e:	97 f9       	bld	r25, 7
    2860:	08 95       	ret

00002862 <__fp_inf>:
    2862:	97 f9       	bld	r25, 7
    2864:	9f 67       	ori	r25, 0x7F	; 127
    2866:	80 e8       	ldi	r24, 0x80	; 128
    2868:	70 e0       	ldi	r23, 0x00	; 0
    286a:	60 e0       	ldi	r22, 0x00	; 0
    286c:	08 95       	ret

0000286e <__fp_nan>:
    286e:	9f ef       	ldi	r25, 0xFF	; 255
    2870:	80 ec       	ldi	r24, 0xC0	; 192
    2872:	08 95       	ret

00002874 <__fp_pscA>:
    2874:	00 24       	eor	r0, r0
    2876:	0a 94       	dec	r0
    2878:	16 16       	cp	r1, r22
    287a:	17 06       	cpc	r1, r23
    287c:	18 06       	cpc	r1, r24
    287e:	09 06       	cpc	r0, r25
    2880:	08 95       	ret

00002882 <__fp_pscB>:
    2882:	00 24       	eor	r0, r0
    2884:	0a 94       	dec	r0
    2886:	12 16       	cp	r1, r18
    2888:	13 06       	cpc	r1, r19
    288a:	14 06       	cpc	r1, r20
    288c:	05 06       	cpc	r0, r21
    288e:	08 95       	ret

00002890 <__fp_round>:
    2890:	09 2e       	mov	r0, r25
    2892:	03 94       	inc	r0
    2894:	00 0c       	add	r0, r0
    2896:	11 f4       	brne	.+4      	; 0x289c <__fp_round+0xc>
    2898:	88 23       	and	r24, r24
    289a:	52 f0       	brmi	.+20     	; 0x28b0 <__fp_round+0x20>
    289c:	bb 0f       	add	r27, r27
    289e:	40 f4       	brcc	.+16     	; 0x28b0 <__fp_round+0x20>
    28a0:	bf 2b       	or	r27, r31
    28a2:	11 f4       	brne	.+4      	; 0x28a8 <__fp_round+0x18>
    28a4:	60 ff       	sbrs	r22, 0
    28a6:	04 c0       	rjmp	.+8      	; 0x28b0 <__fp_round+0x20>
    28a8:	6f 5f       	subi	r22, 0xFF	; 255
    28aa:	7f 4f       	sbci	r23, 0xFF	; 255
    28ac:	8f 4f       	sbci	r24, 0xFF	; 255
    28ae:	9f 4f       	sbci	r25, 0xFF	; 255
    28b0:	08 95       	ret

000028b2 <__fp_split3>:
    28b2:	57 fd       	sbrc	r21, 7
    28b4:	90 58       	subi	r25, 0x80	; 128
    28b6:	44 0f       	add	r20, r20
    28b8:	55 1f       	adc	r21, r21
    28ba:	59 f0       	breq	.+22     	; 0x28d2 <__fp_splitA+0x10>
    28bc:	5f 3f       	cpi	r21, 0xFF	; 255
    28be:	71 f0       	breq	.+28     	; 0x28dc <__fp_splitA+0x1a>
    28c0:	47 95       	ror	r20

000028c2 <__fp_splitA>:
    28c2:	88 0f       	add	r24, r24
    28c4:	97 fb       	bst	r25, 7
    28c6:	99 1f       	adc	r25, r25
    28c8:	61 f0       	breq	.+24     	; 0x28e2 <__fp_splitA+0x20>
    28ca:	9f 3f       	cpi	r25, 0xFF	; 255
    28cc:	79 f0       	breq	.+30     	; 0x28ec <__fp_splitA+0x2a>
    28ce:	87 95       	ror	r24
    28d0:	08 95       	ret
    28d2:	12 16       	cp	r1, r18
    28d4:	13 06       	cpc	r1, r19
    28d6:	14 06       	cpc	r1, r20
    28d8:	55 1f       	adc	r21, r21
    28da:	f2 cf       	rjmp	.-28     	; 0x28c0 <__fp_split3+0xe>
    28dc:	46 95       	lsr	r20
    28de:	f1 df       	rcall	.-30     	; 0x28c2 <__fp_splitA>
    28e0:	08 c0       	rjmp	.+16     	; 0x28f2 <__fp_splitA+0x30>
    28e2:	16 16       	cp	r1, r22
    28e4:	17 06       	cpc	r1, r23
    28e6:	18 06       	cpc	r1, r24
    28e8:	99 1f       	adc	r25, r25
    28ea:	f1 cf       	rjmp	.-30     	; 0x28ce <__fp_splitA+0xc>
    28ec:	86 95       	lsr	r24
    28ee:	71 05       	cpc	r23, r1
    28f0:	61 05       	cpc	r22, r1
    28f2:	08 94       	sec
    28f4:	08 95       	ret

000028f6 <__fp_zero>:
    28f6:	e8 94       	clt

000028f8 <__fp_szero>:
    28f8:	bb 27       	eor	r27, r27
    28fa:	66 27       	eor	r22, r22
    28fc:	77 27       	eor	r23, r23
    28fe:	cb 01       	movw	r24, r22
    2900:	97 f9       	bld	r25, 7
    2902:	08 95       	ret

00002904 <__mulsf3>:
    2904:	0e 94 95 14 	call	0x292a	; 0x292a <__mulsf3x>
    2908:	0c 94 48 14 	jmp	0x2890	; 0x2890 <__fp_round>
    290c:	0e 94 3a 14 	call	0x2874	; 0x2874 <__fp_pscA>
    2910:	38 f0       	brcs	.+14     	; 0x2920 <__mulsf3+0x1c>
    2912:	0e 94 41 14 	call	0x2882	; 0x2882 <__fp_pscB>
    2916:	20 f0       	brcs	.+8      	; 0x2920 <__mulsf3+0x1c>
    2918:	95 23       	and	r25, r21
    291a:	11 f0       	breq	.+4      	; 0x2920 <__mulsf3+0x1c>
    291c:	0c 94 31 14 	jmp	0x2862	; 0x2862 <__fp_inf>
    2920:	0c 94 37 14 	jmp	0x286e	; 0x286e <__fp_nan>
    2924:	11 24       	eor	r1, r1
    2926:	0c 94 7c 14 	jmp	0x28f8	; 0x28f8 <__fp_szero>

0000292a <__mulsf3x>:
    292a:	0e 94 59 14 	call	0x28b2	; 0x28b2 <__fp_split3>
    292e:	70 f3       	brcs	.-36     	; 0x290c <__mulsf3+0x8>

00002930 <__mulsf3_pse>:
    2930:	95 9f       	mul	r25, r21
    2932:	c1 f3       	breq	.-16     	; 0x2924 <__mulsf3+0x20>
    2934:	95 0f       	add	r25, r21
    2936:	50 e0       	ldi	r21, 0x00	; 0
    2938:	55 1f       	adc	r21, r21
    293a:	62 9f       	mul	r22, r18
    293c:	f0 01       	movw	r30, r0
    293e:	72 9f       	mul	r23, r18
    2940:	bb 27       	eor	r27, r27
    2942:	f0 0d       	add	r31, r0
    2944:	b1 1d       	adc	r27, r1
    2946:	63 9f       	mul	r22, r19
    2948:	aa 27       	eor	r26, r26
    294a:	f0 0d       	add	r31, r0
    294c:	b1 1d       	adc	r27, r1
    294e:	aa 1f       	adc	r26, r26
    2950:	64 9f       	mul	r22, r20
    2952:	66 27       	eor	r22, r22
    2954:	b0 0d       	add	r27, r0
    2956:	a1 1d       	adc	r26, r1
    2958:	66 1f       	adc	r22, r22
    295a:	82 9f       	mul	r24, r18
    295c:	22 27       	eor	r18, r18
    295e:	b0 0d       	add	r27, r0
    2960:	a1 1d       	adc	r26, r1
    2962:	62 1f       	adc	r22, r18
    2964:	73 9f       	mul	r23, r19
    2966:	b0 0d       	add	r27, r0
    2968:	a1 1d       	adc	r26, r1
    296a:	62 1f       	adc	r22, r18
    296c:	83 9f       	mul	r24, r19
    296e:	a0 0d       	add	r26, r0
    2970:	61 1d       	adc	r22, r1
    2972:	22 1f       	adc	r18, r18
    2974:	74 9f       	mul	r23, r20
    2976:	33 27       	eor	r19, r19
    2978:	a0 0d       	add	r26, r0
    297a:	61 1d       	adc	r22, r1
    297c:	23 1f       	adc	r18, r19
    297e:	84 9f       	mul	r24, r20
    2980:	60 0d       	add	r22, r0
    2982:	21 1d       	adc	r18, r1
    2984:	82 2f       	mov	r24, r18
    2986:	76 2f       	mov	r23, r22
    2988:	6a 2f       	mov	r22, r26
    298a:	11 24       	eor	r1, r1
    298c:	9f 57       	subi	r25, 0x7F	; 127
    298e:	50 40       	sbci	r21, 0x00	; 0
    2990:	9a f0       	brmi	.+38     	; 0x29b8 <__mulsf3_pse+0x88>
    2992:	f1 f0       	breq	.+60     	; 0x29d0 <__mulsf3_pse+0xa0>
    2994:	88 23       	and	r24, r24
    2996:	4a f0       	brmi	.+18     	; 0x29aa <__mulsf3_pse+0x7a>
    2998:	ee 0f       	add	r30, r30
    299a:	ff 1f       	adc	r31, r31
    299c:	bb 1f       	adc	r27, r27
    299e:	66 1f       	adc	r22, r22
    29a0:	77 1f       	adc	r23, r23
    29a2:	88 1f       	adc	r24, r24
    29a4:	91 50       	subi	r25, 0x01	; 1
    29a6:	50 40       	sbci	r21, 0x00	; 0
    29a8:	a9 f7       	brne	.-22     	; 0x2994 <__mulsf3_pse+0x64>
    29aa:	9e 3f       	cpi	r25, 0xFE	; 254
    29ac:	51 05       	cpc	r21, r1
    29ae:	80 f0       	brcs	.+32     	; 0x29d0 <__mulsf3_pse+0xa0>
    29b0:	0c 94 31 14 	jmp	0x2862	; 0x2862 <__fp_inf>
    29b4:	0c 94 7c 14 	jmp	0x28f8	; 0x28f8 <__fp_szero>
    29b8:	5f 3f       	cpi	r21, 0xFF	; 255
    29ba:	e4 f3       	brlt	.-8      	; 0x29b4 <__mulsf3_pse+0x84>
    29bc:	98 3e       	cpi	r25, 0xE8	; 232
    29be:	d4 f3       	brlt	.-12     	; 0x29b4 <__mulsf3_pse+0x84>
    29c0:	86 95       	lsr	r24
    29c2:	77 95       	ror	r23
    29c4:	67 95       	ror	r22
    29c6:	b7 95       	ror	r27
    29c8:	f7 95       	ror	r31
    29ca:	e7 95       	ror	r30
    29cc:	9f 5f       	subi	r25, 0xFF	; 255
    29ce:	c1 f7       	brne	.-16     	; 0x29c0 <__mulsf3_pse+0x90>
    29d0:	fe 2b       	or	r31, r30
    29d2:	88 0f       	add	r24, r24
    29d4:	91 1d       	adc	r25, r1
    29d6:	96 95       	lsr	r25
    29d8:	87 95       	ror	r24
    29da:	97 f9       	bld	r25, 7
    29dc:	08 95       	ret

000029de <__tablejump2__>:
    29de:	ee 0f       	add	r30, r30
    29e0:	ff 1f       	adc	r31, r31
    29e2:	05 90       	lpm	r0, Z+
    29e4:	f4 91       	lpm	r31, Z
    29e6:	e0 2d       	mov	r30, r0
    29e8:	09 94       	ijmp

000029ea <malloc>:
    29ea:	cf 93       	push	r28
    29ec:	df 93       	push	r29
    29ee:	82 30       	cpi	r24, 0x02	; 2
    29f0:	91 05       	cpc	r25, r1
    29f2:	10 f4       	brcc	.+4      	; 0x29f8 <malloc+0xe>
    29f4:	82 e0       	ldi	r24, 0x02	; 2
    29f6:	90 e0       	ldi	r25, 0x00	; 0
    29f8:	e0 91 72 03 	lds	r30, 0x0372	; 0x800372 <__flp>
    29fc:	f0 91 73 03 	lds	r31, 0x0373	; 0x800373 <__flp+0x1>
    2a00:	20 e0       	ldi	r18, 0x00	; 0
    2a02:	30 e0       	ldi	r19, 0x00	; 0
    2a04:	c0 e0       	ldi	r28, 0x00	; 0
    2a06:	d0 e0       	ldi	r29, 0x00	; 0
    2a08:	30 97       	sbiw	r30, 0x00	; 0
    2a0a:	11 f1       	breq	.+68     	; 0x2a50 <malloc+0x66>
    2a0c:	40 81       	ld	r20, Z
    2a0e:	51 81       	ldd	r21, Z+1	; 0x01
    2a10:	48 17       	cp	r20, r24
    2a12:	59 07       	cpc	r21, r25
    2a14:	c0 f0       	brcs	.+48     	; 0x2a46 <malloc+0x5c>
    2a16:	48 17       	cp	r20, r24
    2a18:	59 07       	cpc	r21, r25
    2a1a:	61 f4       	brne	.+24     	; 0x2a34 <malloc+0x4a>
    2a1c:	82 81       	ldd	r24, Z+2	; 0x02
    2a1e:	93 81       	ldd	r25, Z+3	; 0x03
    2a20:	20 97       	sbiw	r28, 0x00	; 0
    2a22:	19 f0       	breq	.+6      	; 0x2a2a <malloc+0x40>
    2a24:	9b 83       	std	Y+3, r25	; 0x03
    2a26:	8a 83       	std	Y+2, r24	; 0x02
    2a28:	2b c0       	rjmp	.+86     	; 0x2a80 <malloc+0x96>
    2a2a:	90 93 73 03 	sts	0x0373, r25	; 0x800373 <__flp+0x1>
    2a2e:	80 93 72 03 	sts	0x0372, r24	; 0x800372 <__flp>
    2a32:	26 c0       	rjmp	.+76     	; 0x2a80 <malloc+0x96>
    2a34:	21 15       	cp	r18, r1
    2a36:	31 05       	cpc	r19, r1
    2a38:	19 f0       	breq	.+6      	; 0x2a40 <malloc+0x56>
    2a3a:	42 17       	cp	r20, r18
    2a3c:	53 07       	cpc	r21, r19
    2a3e:	18 f4       	brcc	.+6      	; 0x2a46 <malloc+0x5c>
    2a40:	9a 01       	movw	r18, r20
    2a42:	be 01       	movw	r22, r28
    2a44:	df 01       	movw	r26, r30
    2a46:	ef 01       	movw	r28, r30
    2a48:	02 80       	ldd	r0, Z+2	; 0x02
    2a4a:	f3 81       	ldd	r31, Z+3	; 0x03
    2a4c:	e0 2d       	mov	r30, r0
    2a4e:	dc cf       	rjmp	.-72     	; 0x2a08 <malloc+0x1e>
    2a50:	21 15       	cp	r18, r1
    2a52:	31 05       	cpc	r19, r1
    2a54:	09 f1       	breq	.+66     	; 0x2a98 <malloc+0xae>
    2a56:	28 1b       	sub	r18, r24
    2a58:	39 0b       	sbc	r19, r25
    2a5a:	24 30       	cpi	r18, 0x04	; 4
    2a5c:	31 05       	cpc	r19, r1
    2a5e:	90 f4       	brcc	.+36     	; 0x2a84 <malloc+0x9a>
    2a60:	12 96       	adiw	r26, 0x02	; 2
    2a62:	8d 91       	ld	r24, X+
    2a64:	9c 91       	ld	r25, X
    2a66:	13 97       	sbiw	r26, 0x03	; 3
    2a68:	61 15       	cp	r22, r1
    2a6a:	71 05       	cpc	r23, r1
    2a6c:	21 f0       	breq	.+8      	; 0x2a76 <malloc+0x8c>
    2a6e:	fb 01       	movw	r30, r22
    2a70:	93 83       	std	Z+3, r25	; 0x03
    2a72:	82 83       	std	Z+2, r24	; 0x02
    2a74:	04 c0       	rjmp	.+8      	; 0x2a7e <malloc+0x94>
    2a76:	90 93 73 03 	sts	0x0373, r25	; 0x800373 <__flp+0x1>
    2a7a:	80 93 72 03 	sts	0x0372, r24	; 0x800372 <__flp>
    2a7e:	fd 01       	movw	r30, r26
    2a80:	32 96       	adiw	r30, 0x02	; 2
    2a82:	44 c0       	rjmp	.+136    	; 0x2b0c <malloc+0x122>
    2a84:	fd 01       	movw	r30, r26
    2a86:	e2 0f       	add	r30, r18
    2a88:	f3 1f       	adc	r31, r19
    2a8a:	81 93       	st	Z+, r24
    2a8c:	91 93       	st	Z+, r25
    2a8e:	22 50       	subi	r18, 0x02	; 2
    2a90:	31 09       	sbc	r19, r1
    2a92:	2d 93       	st	X+, r18
    2a94:	3c 93       	st	X, r19
    2a96:	3a c0       	rjmp	.+116    	; 0x2b0c <malloc+0x122>
    2a98:	20 91 70 03 	lds	r18, 0x0370	; 0x800370 <__brkval>
    2a9c:	30 91 71 03 	lds	r19, 0x0371	; 0x800371 <__brkval+0x1>
    2aa0:	23 2b       	or	r18, r19
    2aa2:	41 f4       	brne	.+16     	; 0x2ab4 <malloc+0xca>
    2aa4:	20 91 8a 00 	lds	r18, 0x008A	; 0x80008a <__malloc_heap_start>
    2aa8:	30 91 8b 00 	lds	r19, 0x008B	; 0x80008b <__malloc_heap_start+0x1>
    2aac:	30 93 71 03 	sts	0x0371, r19	; 0x800371 <__brkval+0x1>
    2ab0:	20 93 70 03 	sts	0x0370, r18	; 0x800370 <__brkval>
    2ab4:	20 91 88 00 	lds	r18, 0x0088	; 0x800088 <__malloc_heap_end>
    2ab8:	30 91 89 00 	lds	r19, 0x0089	; 0x800089 <__malloc_heap_end+0x1>
    2abc:	21 15       	cp	r18, r1
    2abe:	31 05       	cpc	r19, r1
    2ac0:	41 f4       	brne	.+16     	; 0x2ad2 <malloc+0xe8>
    2ac2:	2d b7       	in	r18, 0x3d	; 61
    2ac4:	3e b7       	in	r19, 0x3e	; 62
    2ac6:	40 91 8c 00 	lds	r20, 0x008C	; 0x80008c <__malloc_margin>
    2aca:	50 91 8d 00 	lds	r21, 0x008D	; 0x80008d <__malloc_margin+0x1>
    2ace:	24 1b       	sub	r18, r20
    2ad0:	35 0b       	sbc	r19, r21
    2ad2:	e0 91 70 03 	lds	r30, 0x0370	; 0x800370 <__brkval>
    2ad6:	f0 91 71 03 	lds	r31, 0x0371	; 0x800371 <__brkval+0x1>
    2ada:	e2 17       	cp	r30, r18
    2adc:	f3 07       	cpc	r31, r19
    2ade:	a0 f4       	brcc	.+40     	; 0x2b08 <malloc+0x11e>
    2ae0:	2e 1b       	sub	r18, r30
    2ae2:	3f 0b       	sbc	r19, r31
    2ae4:	28 17       	cp	r18, r24
    2ae6:	39 07       	cpc	r19, r25
    2ae8:	78 f0       	brcs	.+30     	; 0x2b08 <malloc+0x11e>
    2aea:	ac 01       	movw	r20, r24
    2aec:	4e 5f       	subi	r20, 0xFE	; 254
    2aee:	5f 4f       	sbci	r21, 0xFF	; 255
    2af0:	24 17       	cp	r18, r20
    2af2:	35 07       	cpc	r19, r21
    2af4:	48 f0       	brcs	.+18     	; 0x2b08 <malloc+0x11e>
    2af6:	4e 0f       	add	r20, r30
    2af8:	5f 1f       	adc	r21, r31
    2afa:	50 93 71 03 	sts	0x0371, r21	; 0x800371 <__brkval+0x1>
    2afe:	40 93 70 03 	sts	0x0370, r20	; 0x800370 <__brkval>
    2b02:	81 93       	st	Z+, r24
    2b04:	91 93       	st	Z+, r25
    2b06:	02 c0       	rjmp	.+4      	; 0x2b0c <malloc+0x122>
    2b08:	e0 e0       	ldi	r30, 0x00	; 0
    2b0a:	f0 e0       	ldi	r31, 0x00	; 0
    2b0c:	cf 01       	movw	r24, r30
    2b0e:	df 91       	pop	r29
    2b10:	cf 91       	pop	r28
    2b12:	08 95       	ret

00002b14 <free>:
    2b14:	0f 93       	push	r16
    2b16:	1f 93       	push	r17
    2b18:	cf 93       	push	r28
    2b1a:	df 93       	push	r29
    2b1c:	00 97       	sbiw	r24, 0x00	; 0
    2b1e:	09 f4       	brne	.+2      	; 0x2b22 <free+0xe>
    2b20:	8c c0       	rjmp	.+280    	; 0x2c3a <free+0x126>
    2b22:	fc 01       	movw	r30, r24
    2b24:	32 97       	sbiw	r30, 0x02	; 2
    2b26:	13 82       	std	Z+3, r1	; 0x03
    2b28:	12 82       	std	Z+2, r1	; 0x02
    2b2a:	00 91 72 03 	lds	r16, 0x0372	; 0x800372 <__flp>
    2b2e:	10 91 73 03 	lds	r17, 0x0373	; 0x800373 <__flp+0x1>
    2b32:	01 15       	cp	r16, r1
    2b34:	11 05       	cpc	r17, r1
    2b36:	81 f4       	brne	.+32     	; 0x2b58 <free+0x44>
    2b38:	20 81       	ld	r18, Z
    2b3a:	31 81       	ldd	r19, Z+1	; 0x01
    2b3c:	82 0f       	add	r24, r18
    2b3e:	93 1f       	adc	r25, r19
    2b40:	20 91 70 03 	lds	r18, 0x0370	; 0x800370 <__brkval>
    2b44:	30 91 71 03 	lds	r19, 0x0371	; 0x800371 <__brkval+0x1>
    2b48:	28 17       	cp	r18, r24
    2b4a:	39 07       	cpc	r19, r25
    2b4c:	79 f5       	brne	.+94     	; 0x2bac <free+0x98>
    2b4e:	f0 93 71 03 	sts	0x0371, r31	; 0x800371 <__brkval+0x1>
    2b52:	e0 93 70 03 	sts	0x0370, r30	; 0x800370 <__brkval>
    2b56:	71 c0       	rjmp	.+226    	; 0x2c3a <free+0x126>
    2b58:	d8 01       	movw	r26, r16
    2b5a:	40 e0       	ldi	r20, 0x00	; 0
    2b5c:	50 e0       	ldi	r21, 0x00	; 0
    2b5e:	ae 17       	cp	r26, r30
    2b60:	bf 07       	cpc	r27, r31
    2b62:	50 f4       	brcc	.+20     	; 0x2b78 <free+0x64>
    2b64:	12 96       	adiw	r26, 0x02	; 2
    2b66:	2d 91       	ld	r18, X+
    2b68:	3c 91       	ld	r19, X
    2b6a:	13 97       	sbiw	r26, 0x03	; 3
    2b6c:	ad 01       	movw	r20, r26
    2b6e:	21 15       	cp	r18, r1
    2b70:	31 05       	cpc	r19, r1
    2b72:	09 f1       	breq	.+66     	; 0x2bb6 <free+0xa2>
    2b74:	d9 01       	movw	r26, r18
    2b76:	f3 cf       	rjmp	.-26     	; 0x2b5e <free+0x4a>
    2b78:	9d 01       	movw	r18, r26
    2b7a:	da 01       	movw	r26, r20
    2b7c:	33 83       	std	Z+3, r19	; 0x03
    2b7e:	22 83       	std	Z+2, r18	; 0x02
    2b80:	60 81       	ld	r22, Z
    2b82:	71 81       	ldd	r23, Z+1	; 0x01
    2b84:	86 0f       	add	r24, r22
    2b86:	97 1f       	adc	r25, r23
    2b88:	82 17       	cp	r24, r18
    2b8a:	93 07       	cpc	r25, r19
    2b8c:	69 f4       	brne	.+26     	; 0x2ba8 <free+0x94>
    2b8e:	ec 01       	movw	r28, r24
    2b90:	28 81       	ld	r18, Y
    2b92:	39 81       	ldd	r19, Y+1	; 0x01
    2b94:	26 0f       	add	r18, r22
    2b96:	37 1f       	adc	r19, r23
    2b98:	2e 5f       	subi	r18, 0xFE	; 254
    2b9a:	3f 4f       	sbci	r19, 0xFF	; 255
    2b9c:	31 83       	std	Z+1, r19	; 0x01
    2b9e:	20 83       	st	Z, r18
    2ba0:	8a 81       	ldd	r24, Y+2	; 0x02
    2ba2:	9b 81       	ldd	r25, Y+3	; 0x03
    2ba4:	93 83       	std	Z+3, r25	; 0x03
    2ba6:	82 83       	std	Z+2, r24	; 0x02
    2ba8:	45 2b       	or	r20, r21
    2baa:	29 f4       	brne	.+10     	; 0x2bb6 <free+0xa2>
    2bac:	f0 93 73 03 	sts	0x0373, r31	; 0x800373 <__flp+0x1>
    2bb0:	e0 93 72 03 	sts	0x0372, r30	; 0x800372 <__flp>
    2bb4:	42 c0       	rjmp	.+132    	; 0x2c3a <free+0x126>
    2bb6:	13 96       	adiw	r26, 0x03	; 3
    2bb8:	fc 93       	st	X, r31
    2bba:	ee 93       	st	-X, r30
    2bbc:	12 97       	sbiw	r26, 0x02	; 2
    2bbe:	ed 01       	movw	r28, r26
    2bc0:	49 91       	ld	r20, Y+
    2bc2:	59 91       	ld	r21, Y+
    2bc4:	9e 01       	movw	r18, r28
    2bc6:	24 0f       	add	r18, r20
    2bc8:	35 1f       	adc	r19, r21
    2bca:	e2 17       	cp	r30, r18
    2bcc:	f3 07       	cpc	r31, r19
    2bce:	71 f4       	brne	.+28     	; 0x2bec <free+0xd8>
    2bd0:	80 81       	ld	r24, Z
    2bd2:	91 81       	ldd	r25, Z+1	; 0x01
    2bd4:	84 0f       	add	r24, r20
    2bd6:	95 1f       	adc	r25, r21
    2bd8:	02 96       	adiw	r24, 0x02	; 2
    2bda:	11 96       	adiw	r26, 0x01	; 1
    2bdc:	9c 93       	st	X, r25
    2bde:	8e 93       	st	-X, r24
    2be0:	82 81       	ldd	r24, Z+2	; 0x02
    2be2:	93 81       	ldd	r25, Z+3	; 0x03
    2be4:	13 96       	adiw	r26, 0x03	; 3
    2be6:	9c 93       	st	X, r25
    2be8:	8e 93       	st	-X, r24
    2bea:	12 97       	sbiw	r26, 0x02	; 2
    2bec:	e0 e0       	ldi	r30, 0x00	; 0
    2bee:	f0 e0       	ldi	r31, 0x00	; 0
    2bf0:	d8 01       	movw	r26, r16
    2bf2:	12 96       	adiw	r26, 0x02	; 2
    2bf4:	8d 91       	ld	r24, X+
    2bf6:	9c 91       	ld	r25, X
    2bf8:	13 97       	sbiw	r26, 0x03	; 3
    2bfa:	00 97       	sbiw	r24, 0x00	; 0
    2bfc:	19 f0       	breq	.+6      	; 0x2c04 <free+0xf0>
    2bfe:	f8 01       	movw	r30, r16
    2c00:	8c 01       	movw	r16, r24
    2c02:	f6 cf       	rjmp	.-20     	; 0x2bf0 <free+0xdc>
    2c04:	8d 91       	ld	r24, X+
    2c06:	9c 91       	ld	r25, X
    2c08:	98 01       	movw	r18, r16
    2c0a:	2e 5f       	subi	r18, 0xFE	; 254
    2c0c:	3f 4f       	sbci	r19, 0xFF	; 255
    2c0e:	82 0f       	add	r24, r18
    2c10:	93 1f       	adc	r25, r19
    2c12:	20 91 70 03 	lds	r18, 0x0370	; 0x800370 <__brkval>
    2c16:	30 91 71 03 	lds	r19, 0x0371	; 0x800371 <__brkval+0x1>
    2c1a:	28 17       	cp	r18, r24
    2c1c:	39 07       	cpc	r19, r25
    2c1e:	69 f4       	brne	.+26     	; 0x2c3a <free+0x126>
    2c20:	30 97       	sbiw	r30, 0x00	; 0
    2c22:	29 f4       	brne	.+10     	; 0x2c2e <free+0x11a>
    2c24:	10 92 73 03 	sts	0x0373, r1	; 0x800373 <__flp+0x1>
    2c28:	10 92 72 03 	sts	0x0372, r1	; 0x800372 <__flp>
    2c2c:	02 c0       	rjmp	.+4      	; 0x2c32 <free+0x11e>
    2c2e:	13 82       	std	Z+3, r1	; 0x03
    2c30:	12 82       	std	Z+2, r1	; 0x02
    2c32:	10 93 71 03 	sts	0x0371, r17	; 0x800371 <__brkval+0x1>
    2c36:	00 93 70 03 	sts	0x0370, r16	; 0x800370 <__brkval>
    2c3a:	df 91       	pop	r29
    2c3c:	cf 91       	pop	r28
    2c3e:	1f 91       	pop	r17
    2c40:	0f 91       	pop	r16
    2c42:	08 95       	ret

00002c44 <eeprom_read_block>:
    2c44:	dc 01       	movw	r26, r24
    2c46:	cb 01       	movw	r24, r22

00002c48 <eeprom_read_blraw>:
    2c48:	fc 01       	movw	r30, r24
    2c4a:	e1 99       	sbic	0x1c, 1	; 28
    2c4c:	fe cf       	rjmp	.-4      	; 0x2c4a <eeprom_read_blraw+0x2>
    2c4e:	06 c0       	rjmp	.+12     	; 0x2c5c <eeprom_read_blraw+0x14>
    2c50:	ff bb       	out	0x1f, r31	; 31
    2c52:	ee bb       	out	0x1e, r30	; 30
    2c54:	e0 9a       	sbi	0x1c, 0	; 28
    2c56:	31 96       	adiw	r30, 0x01	; 1
    2c58:	0d b2       	in	r0, 0x1d	; 29
    2c5a:	0d 92       	st	X+, r0
    2c5c:	41 50       	subi	r20, 0x01	; 1
    2c5e:	50 40       	sbci	r21, 0x00	; 0
    2c60:	b8 f7       	brcc	.-18     	; 0x2c50 <eeprom_read_blraw+0x8>
    2c62:	08 95       	ret

00002c64 <eeprom_read_byte>:
    2c64:	e1 99       	sbic	0x1c, 1	; 28
    2c66:	fe cf       	rjmp	.-4      	; 0x2c64 <eeprom_read_byte>
    2c68:	9f bb       	out	0x1f, r25	; 31
    2c6a:	8e bb       	out	0x1e, r24	; 30
    2c6c:	e0 9a       	sbi	0x1c, 0	; 28
    2c6e:	99 27       	eor	r25, r25
    2c70:	8d b3       	in	r24, 0x1d	; 29
    2c72:	08 95       	ret

00002c74 <__do_global_dtors>:
    2c74:	10 e0       	ldi	r17, 0x00	; 0
    2c76:	cb e2       	ldi	r28, 0x2B	; 43
    2c78:	d0 e0       	ldi	r29, 0x00	; 0
    2c7a:	04 c0       	rjmp	.+8      	; 0x2c84 <__do_global_dtors+0x10>
    2c7c:	fe 01       	movw	r30, r28
    2c7e:	0e 94 ef 14 	call	0x29de	; 0x29de <__tablejump2__>
    2c82:	21 96       	adiw	r28, 0x01	; 1
    2c84:	cc 32       	cpi	r28, 0x2C	; 44
    2c86:	d1 07       	cpc	r29, r17
    2c88:	c9 f7       	brne	.-14     	; 0x2c7c <__do_global_dtors+0x8>
    2c8a:	f8 94       	cli

00002c8c <__stop_program>:
    2c8c:	ff cf       	rjmp	.-2      	; 0x2c8c <__stop_program>
