
WheelWrapper.elf:     file format elf32-avr

Sections:
Idx Name          Size      VMA       LMA       File off  Algn
  0 .text         00003474  00000000  00000000  000000b4  2**1
                  CONTENTS, ALLOC, LOAD, READONLY, CODE
  1 .data         00000204  00800060  00003474  00003528  2**0
                  CONTENTS, ALLOC, LOAD, DATA
  2 .bss          00000077  00800264  00800264  0000372c  2**0
                  ALLOC
  3 .eeprom       000001df  00810000  00810000  0000372c  2**0
                  CONTENTS, ALLOC, LOAD, READONLY, DATA
  4 .comment      00000030  00000000  00000000  0000390b  2**0
                  CONTENTS, READONLY
  5 .note.gnu.avr.deviceinfo 0000003c  00000000  00000000  0000393c  2**2
                  CONTENTS, READONLY
  6 .debug_info   0000052e  00000000  00000000  00003978  2**0
                  CONTENTS, READONLY, DEBUGGING
  7 .debug_abbrev 000004e7  00000000  00000000  00003ea6  2**0
                  CONTENTS, READONLY, DEBUGGING
  8 .debug_line   0000001a  00000000  00000000  0000438d  2**0
                  CONTENTS, READONLY, DEBUGGING
  9 .debug_str    000001af  00000000  00000000  000043a7  2**0
                  CONTENTS, READONLY, DEBUGGING

Disassembly of section .text:

00000000 <__vectors>:
       0:	0c 94 3a 00 	jmp	0x74	; 0x74 <__dtors_end>
       4:	0c 94 85 01 	jmp	0x30a	; 0x30a <__vector_1>
       8:	0c 94 62 00 	jmp	0xc4	; 0xc4 <__bad_interrupt>
       c:	0c 94 62 00 	jmp	0xc4	; 0xc4 <__bad_interrupt>
      10:	0c 94 62 00 	jmp	0xc4	; 0xc4 <__bad_interrupt>
      14:	0c 94 62 00 	jmp	0xc4	; 0xc4 <__bad_interrupt>
      18:	0c 94 62 00 	jmp	0xc4	; 0xc4 <__bad_interrupt>
      1c:	0c 94 62 00 	jmp	0xc4	; 0xc4 <__bad_interrupt>
      20:	0c 94 62 00 	jmp	0xc4	; 0xc4 <__bad_interrupt>
      24:	0c 94 62 00 	jmp	0xc4	; 0xc4 <__bad_interrupt>
      28:	0c 94 62 00 	jmp	0xc4	; 0xc4 <__bad_interrupt>
      2c:	0c 94 62 00 	jmp	0xc4	; 0xc4 <__bad_interrupt>
      30:	0c 94 62 00 	jmp	0xc4	; 0xc4 <__bad_interrupt>
      34:	0c 94 62 00 	jmp	0xc4	; 0xc4 <__bad_interrupt>
      38:	0c 94 62 00 	jmp	0xc4	; 0xc4 <__bad_interrupt>
      3c:	0c 94 62 00 	jmp	0xc4	; 0xc4 <__bad_interrupt>
      40:	0c 94 62 00 	jmp	0xc4	; 0xc4 <__bad_interrupt>
      44:	0c 94 62 00 	jmp	0xc4	; 0xc4 <__bad_interrupt>
      48:	0c 94 62 00 	jmp	0xc4	; 0xc4 <__bad_interrupt>
      4c:	0c 94 3d 01 	jmp	0x27a	; 0x27a <__vector_19>
      50:	0c 94 62 00 	jmp	0xc4	; 0xc4 <__bad_interrupt>
      54:	11 01       	movw	r2, r2
      56:	15 01       	movw	r2, r10
      58:	19 01       	movw	r2, r18
      5a:	1d 01       	movw	r2, r26
      5c:	0b 01       	movw	r0, r22
      5e:	0e 01       	movw	r0, r28
      60:	20 01       	movw	r4, r0
      62:	d4 01       	movw	r26, r8
      64:	d8 01       	movw	r26, r16
      66:	dc 01       	movw	r26, r24
      68:	e0 01       	movw	r28, r0
      6a:	ce 01       	movw	r24, r28
      6c:	d1 01       	movw	r26, r2
      6e:	e3 01       	movw	r28, r6

00000070 <__ctors_start>:
      70:	ac 16       	cp	r10, r28

00000072 <__ctors_end>:
      72:	45 17       	cp	r20, r21

00000074 <__dtors_end>:
      74:	11 24       	eor	r1, r1
      76:	1f be       	out	0x3f, r1	; 63
      78:	cf e5       	ldi	r28, 0x5F	; 95
      7a:	d4 e0       	ldi	r29, 0x04	; 4
      7c:	de bf       	out	0x3e, r29	; 62
      7e:	cd bf       	out	0x3d, r28	; 61

00000080 <__do_copy_data>:
      80:	12 e0       	ldi	r17, 0x02	; 2
      82:	a0 e6       	ldi	r26, 0x60	; 96
      84:	b0 e0       	ldi	r27, 0x00	; 0
      86:	e4 e7       	ldi	r30, 0x74	; 116
      88:	f4 e3       	ldi	r31, 0x34	; 52
      8a:	02 c0       	rjmp	.+4      	; 0x90 <__do_copy_data+0x10>
      8c:	05 90       	lpm	r0, Z+
      8e:	0d 92       	st	X+, r0
      90:	a4 36       	cpi	r26, 0x64	; 100
      92:	b1 07       	cpc	r27, r17
      94:	d9 f7       	brne	.-10     	; 0x8c <__do_copy_data+0xc>

00000096 <__do_clear_bss>:
      96:	22 e0       	ldi	r18, 0x02	; 2
      98:	a4 e6       	ldi	r26, 0x64	; 100
      9a:	b2 e0       	ldi	r27, 0x02	; 2
      9c:	01 c0       	rjmp	.+2      	; 0xa0 <.do_clear_bss_start>

0000009e <.do_clear_bss_loop>:
      9e:	1d 92       	st	X+, r1

000000a0 <.do_clear_bss_start>:
      a0:	ab 3d       	cpi	r26, 0xDB	; 219
      a2:	b2 07       	cpc	r27, r18
      a4:	e1 f7       	brne	.-8      	; 0x9e <.do_clear_bss_loop>

000000a6 <__do_global_ctors>:
      a6:	10 e0       	ldi	r17, 0x00	; 0
      a8:	c9 e3       	ldi	r28, 0x39	; 57
      aa:	d0 e0       	ldi	r29, 0x00	; 0
      ac:	04 c0       	rjmp	.+8      	; 0xb6 <__do_global_ctors+0x10>
      ae:	21 97       	sbiw	r28, 0x01	; 1
      b0:	fe 01       	movw	r30, r28
      b2:	0e 94 e2 18 	call	0x31c4	; 0x31c4 <__tablejump2__>
      b6:	c8 33       	cpi	r28, 0x38	; 56
      b8:	d1 07       	cpc	r29, r17
      ba:	c9 f7       	brne	.-14     	; 0xae <__do_global_ctors+0x8>
      bc:	0e 94 36 16 	call	0x2c6c	; 0x2c6c <main>
      c0:	0c 94 2d 1a 	jmp	0x345a	; 0x345a <__do_global_dtors>

000000c4 <__bad_interrupt>:
      c4:	0c 94 00 00 	jmp	0	; 0x0 <__vectors>

000000c8 <_Z19DoFirstKeyboardByteP4Task>:
      c8:	0f 93       	push	r16
      ca:	1f 93       	push	r17
      cc:	cf 93       	push	r28
      ce:	80 91 7d 02 	lds	r24, 0x027D	; 0x80027d <wheelButtons+0x2>
      d2:	90 91 7e 02 	lds	r25, 0x027E	; 0x80027e <wheelButtons+0x3>
      d6:	dc 01       	movw	r26, r24
      d8:	ed 91       	ld	r30, X+
      da:	fc 91       	ld	r31, X
      dc:	06 84       	ldd	r0, Z+14	; 0x0e
      de:	f7 85       	ldd	r31, Z+15	; 0x0f
      e0:	e0 2d       	mov	r30, r0
      e2:	09 95       	icall
      e4:	00 00       	nop
      e6:	80 91 7d 02 	lds	r24, 0x027D	; 0x80027d <wheelButtons+0x2>
      ea:	90 91 7e 02 	lds	r25, 0x027E	; 0x80027e <wheelButtons+0x3>
      ee:	dc 01       	movw	r26, r24
      f0:	ed 91       	ld	r30, X+
      f2:	fc 91       	ld	r31, X
      f4:	00 88       	ldd	r0, Z+16	; 0x10
      f6:	f1 89       	ldd	r31, Z+17	; 0x11
      f8:	e0 2d       	mov	r30, r0
      fa:	09 95       	icall
      fc:	0f e0       	ldi	r16, 0x0F	; 15
      fe:	10 e0       	ldi	r17, 0x00	; 0
     100:	c0 e0       	ldi	r28, 0x00	; 0
     102:	80 91 7b 02 	lds	r24, 0x027B	; 0x80027b <wheelButtons>
     106:	90 91 7c 02 	lds	r25, 0x027C	; 0x80027c <wheelButtons+0x1>
     10a:	dc 01       	movw	r26, r24
     10c:	ed 91       	ld	r30, X+
     10e:	fc 91       	ld	r31, X
     110:	00 88       	ldd	r0, Z+16	; 0x10
     112:	f1 89       	ldd	r31, Z+17	; 0x11
     114:	e0 2d       	mov	r30, r0
     116:	09 95       	icall
     118:	cc 0f       	add	r28, r28
     11a:	80 91 7f 02 	lds	r24, 0x027F	; 0x80027f <wheelButtons+0x4>
     11e:	90 91 80 02 	lds	r25, 0x0280	; 0x800280 <wheelButtons+0x5>
     122:	dc 01       	movw	r26, r24
     124:	ed 91       	ld	r30, X+
     126:	fc 91       	ld	r31, X
     128:	04 84       	ldd	r0, Z+12	; 0x0c
     12a:	f5 85       	ldd	r31, Z+13	; 0x0d
     12c:	e0 2d       	mov	r30, r0
     12e:	09 95       	icall
     130:	81 11       	cpse	r24, r1
     132:	01 c0       	rjmp	.+2      	; 0x136 <_Z19DoFirstKeyboardByteP4Task+0x6e>
     134:	cf 5f       	subi	r28, 0xFF	; 255
     136:	80 91 7b 02 	lds	r24, 0x027B	; 0x80027b <wheelButtons>
     13a:	90 91 7c 02 	lds	r25, 0x027C	; 0x80027c <wheelButtons+0x1>
     13e:	dc 01       	movw	r26, r24
     140:	ed 91       	ld	r30, X+
     142:	fc 91       	ld	r31, X
     144:	06 84       	ldd	r0, Z+14	; 0x0e
     146:	f7 85       	ldd	r31, Z+15	; 0x0f
     148:	e0 2d       	mov	r30, r0
     14a:	09 95       	icall
     14c:	01 50       	subi	r16, 0x01	; 1
     14e:	11 09       	sbc	r17, r1
     150:	c1 f6       	brne	.-80     	; 0x102 <_Z19DoFirstKeyboardByteP4Task+0x3a>
     152:	c0 93 67 02 	sts	0x0267, r28	; 0x800267 <__data_end+0x3>
     156:	cf 91       	pop	r28
     158:	1f 91       	pop	r17
     15a:	0f 91       	pop	r16
     15c:	08 95       	ret

0000015e <_Z20DoSecondKeyboardByteP4Task>:
     15e:	0f 93       	push	r16
     160:	1f 93       	push	r17
     162:	cf 93       	push	r28
     164:	08 e0       	ldi	r16, 0x08	; 8
     166:	10 e0       	ldi	r17, 0x00	; 0
     168:	c0 e0       	ldi	r28, 0x00	; 0
     16a:	80 91 7b 02 	lds	r24, 0x027B	; 0x80027b <wheelButtons>
     16e:	90 91 7c 02 	lds	r25, 0x027C	; 0x80027c <wheelButtons+0x1>
     172:	dc 01       	movw	r26, r24
     174:	ed 91       	ld	r30, X+
     176:	fc 91       	ld	r31, X
     178:	00 88       	ldd	r0, Z+16	; 0x10
     17a:	f1 89       	ldd	r31, Z+17	; 0x11
     17c:	e0 2d       	mov	r30, r0
     17e:	09 95       	icall
     180:	cc 0f       	add	r28, r28
     182:	80 91 7f 02 	lds	r24, 0x027F	; 0x80027f <wheelButtons+0x4>
     186:	90 91 80 02 	lds	r25, 0x0280	; 0x800280 <wheelButtons+0x5>
     18a:	dc 01       	movw	r26, r24
     18c:	ed 91       	ld	r30, X+
     18e:	fc 91       	ld	r31, X
     190:	04 84       	ldd	r0, Z+12	; 0x0c
     192:	f5 85       	ldd	r31, Z+13	; 0x0d
     194:	e0 2d       	mov	r30, r0
     196:	09 95       	icall
     198:	81 11       	cpse	r24, r1
     19a:	01 c0       	rjmp	.+2      	; 0x19e <_Z20DoSecondKeyboardByteP4Task+0x40>
     19c:	cf 5f       	subi	r28, 0xFF	; 255
     19e:	80 91 7b 02 	lds	r24, 0x027B	; 0x80027b <wheelButtons>
     1a2:	90 91 7c 02 	lds	r25, 0x027C	; 0x80027c <wheelButtons+0x1>
     1a6:	dc 01       	movw	r26, r24
     1a8:	ed 91       	ld	r30, X+
     1aa:	fc 91       	ld	r31, X
     1ac:	06 84       	ldd	r0, Z+14	; 0x0e
     1ae:	f7 85       	ldd	r31, Z+15	; 0x0f
     1b0:	e0 2d       	mov	r30, r0
     1b2:	09 95       	icall
     1b4:	01 50       	subi	r16, 0x01	; 1
     1b6:	11 09       	sbc	r17, r1
     1b8:	c1 f6       	brne	.-80     	; 0x16a <_Z20DoSecondKeyboardByteP4Task+0xc>
     1ba:	c0 93 68 02 	sts	0x0268, r28	; 0x800268 <__data_end+0x4>
     1be:	cf 91       	pop	r28
     1c0:	1f 91       	pop	r17
     1c2:	0f 91       	pop	r16
     1c4:	08 95       	ret

000001c6 <_Z10DoDataTaskP4Task>:
     1c6:	40 b3       	in	r20, 0x10	; 16
     1c8:	80 b3       	in	r24, 0x10	; 16
     1ca:	90 b3       	in	r25, 0x10	; 16
     1cc:	43 fb       	bst	r20, 3
     1ce:	ee 27       	eor	r30, r30
     1d0:	e0 f9       	bld	r30, 0
     1d2:	f0 e0       	ldi	r31, 0x00	; 0
     1d4:	ee 0f       	add	r30, r30
     1d6:	ff 1f       	adc	r31, r31
     1d8:	ee 0f       	add	r30, r30
     1da:	ff 1f       	adc	r31, r31
     1dc:	84 fb       	bst	r24, 4
     1de:	22 27       	eor	r18, r18
     1e0:	20 f9       	bld	r18, 0
     1e2:	30 e0       	ldi	r19, 0x00	; 0
     1e4:	22 0f       	add	r18, r18
     1e6:	33 1f       	adc	r19, r19
     1e8:	2e 2b       	or	r18, r30
     1ea:	96 fb       	bst	r25, 6
     1ec:	99 27       	eor	r25, r25
     1ee:	90 f9       	bld	r25, 0
     1f0:	e2 2f       	mov	r30, r18
     1f2:	e9 2b       	or	r30, r25
     1f4:	e0 93 6c 02 	sts	0x026C, r30	; 0x80026c <debugVar>
     1f8:	8e 2f       	mov	r24, r30
     1fa:	90 e0       	ldi	r25, 0x00	; 0
     1fc:	fc 01       	movw	r30, r24
     1fe:	31 97       	sbiw	r30, 0x01	; 1
     200:	e7 30       	cpi	r30, 0x07	; 7
     202:	f1 05       	cpc	r31, r1
     204:	20 f0       	brcs	.+8      	; 0x20e <_Z10DoDataTaskP4Task+0x48>
     206:	80 91 83 02 	lds	r24, 0x0283	; 0x800283 <AS5048AChip>
     20a:	85 bb       	out	0x15, r24	; 21
     20c:	08 95       	ret
     20e:	e6 5d       	subi	r30, 0xD6	; 214
     210:	ff 4f       	sbci	r31, 0xFF	; 255
     212:	0c 94 e2 18 	jmp	0x31c4	; 0x31c4 <__tablejump2__>
     216:	81 ef       	ldi	r24, 0xF1	; 241
     218:	85 bb       	out	0x15, r24	; 21
     21a:	08 95       	ret
     21c:	89 e9       	ldi	r24, 0x99	; 153
     21e:	85 bb       	out	0x15, r24	; 21
     220:	08 95       	ret
     222:	80 91 84 02 	lds	r24, 0x0284	; 0x800284 <AS5048AChip+0x1>
     226:	85 bb       	out	0x15, r24	; 21
     228:	08 95       	ret
     22a:	80 91 66 02 	lds	r24, 0x0266	; 0x800266 <__data_end+0x2>
     22e:	85 bb       	out	0x15, r24	; 21
     230:	08 95       	ret
     232:	80 91 67 02 	lds	r24, 0x0267	; 0x800267 <__data_end+0x3>
     236:	85 bb       	out	0x15, r24	; 21
     238:	08 95       	ret
     23a:	80 ef       	ldi	r24, 0xF0	; 240
     23c:	85 bb       	out	0x15, r24	; 21
     23e:	08 95       	ret
     240:	80 91 64 02 	lds	r24, 0x0264	; 0x800264 <__data_end>
     244:	70 91 65 02 	lds	r23, 0x0265	; 0x800265 <__data_end+0x1>
     248:	60 91 66 02 	lds	r22, 0x0266	; 0x800266 <__data_end+0x2>
     24c:	50 91 67 02 	lds	r21, 0x0267	; 0x800267 <__data_end+0x3>
     250:	40 91 68 02 	lds	r20, 0x0268	; 0x800268 <__data_end+0x4>
     254:	30 91 69 02 	lds	r19, 0x0269	; 0x800269 <__data_end+0x5>
     258:	20 91 6a 02 	lds	r18, 0x026A	; 0x80026a <__data_end+0x6>
     25c:	90 91 6b 02 	lds	r25, 0x026B	; 0x80026b <__data_end+0x7>
     260:	87 27       	eor	r24, r23
     262:	86 27       	eor	r24, r22
     264:	85 27       	eor	r24, r21
     266:	84 27       	eor	r24, r20
     268:	83 27       	eor	r24, r19
     26a:	82 27       	eor	r24, r18
     26c:	89 27       	eor	r24, r25
     26e:	85 bb       	out	0x15, r24	; 21
     270:	08 95       	ret

00000272 <_Znwj>:
     272:	0c 94 e8 18 	jmp	0x31d0	; 0x31d0 <malloc>

00000276 <_ZdlPv>:
     276:	0c 94 7d 19 	jmp	0x32fa	; 0x32fa <free>

0000027a <__vector_19>:
     27a:	1f 92       	push	r1
     27c:	0f 92       	push	r0
     27e:	0f b6       	in	r0, 0x3f	; 63
     280:	0f 92       	push	r0
     282:	11 24       	eor	r1, r1
     284:	2f 93       	push	r18
     286:	3f 93       	push	r19
     288:	4f 93       	push	r20
     28a:	5f 93       	push	r21
     28c:	6f 93       	push	r22
     28e:	7f 93       	push	r23
     290:	8f 93       	push	r24
     292:	9f 93       	push	r25
     294:	af 93       	push	r26
     296:	bf 93       	push	r27
     298:	ef 93       	push	r30
     29a:	ff 93       	push	r31
     29c:	90 91 d6 02 	lds	r25, 0x02D6	; 0x8002d6 <_ZL11Taskmanager+0x10>
     2a0:	e9 2f       	mov	r30, r25
     2a2:	f0 e0       	ldi	r31, 0x00	; 0
     2a4:	ee 0f       	add	r30, r30
     2a6:	ff 1f       	adc	r31, r31
     2a8:	ea 53       	subi	r30, 0x3A	; 58
     2aa:	fd 4f       	sbci	r31, 0xFD	; 253
     2ac:	a0 81       	ld	r26, Z
     2ae:	b1 81       	ldd	r27, Z+1	; 0x01
     2b0:	10 97       	sbiw	r26, 0x00	; 0
     2b2:	41 f0       	breq	.+16     	; 0x2c4 <__vector_19+0x4a>
     2b4:	12 96       	adiw	r26, 0x02	; 2
     2b6:	ed 91       	ld	r30, X+
     2b8:	fc 91       	ld	r31, X
     2ba:	13 97       	sbiw	r26, 0x03	; 3
     2bc:	cd 01       	movw	r24, r26
     2be:	09 95       	icall
     2c0:	90 91 d6 02 	lds	r25, 0x02D6	; 0x8002d6 <_ZL11Taskmanager+0x10>
     2c4:	9f 5f       	subi	r25, 0xFF	; 255
     2c6:	98 30       	cpi	r25, 0x08	; 8
     2c8:	98 f0       	brcs	.+38     	; 0x2f0 <__vector_19+0x76>
     2ca:	10 92 d6 02 	sts	0x02D6, r1	; 0x8002d6 <_ZL11Taskmanager+0x10>
     2ce:	ff 91       	pop	r31
     2d0:	ef 91       	pop	r30
     2d2:	bf 91       	pop	r27
     2d4:	af 91       	pop	r26
     2d6:	9f 91       	pop	r25
     2d8:	8f 91       	pop	r24
     2da:	7f 91       	pop	r23
     2dc:	6f 91       	pop	r22
     2de:	5f 91       	pop	r21
     2e0:	4f 91       	pop	r20
     2e2:	3f 91       	pop	r19
     2e4:	2f 91       	pop	r18
     2e6:	0f 90       	pop	r0
     2e8:	0f be       	out	0x3f, r0	; 63
     2ea:	0f 90       	pop	r0
     2ec:	1f 90       	pop	r1
     2ee:	18 95       	reti
     2f0:	90 93 d6 02 	sts	0x02D6, r25	; 0x8002d6 <_ZL11Taskmanager+0x10>
     2f4:	ec cf       	rjmp	.-40     	; 0x2ce <__vector_19+0x54>

000002f6 <_Z10Initializev>:
     2f6:	8f ef       	ldi	r24, 0xFF	; 255
     2f8:	84 bb       	out	0x14, r24	; 20
     2fa:	15 ba       	out	0x15, r1	; 21
     2fc:	11 ba       	out	0x11, r1	; 17
     2fe:	12 ba       	out	0x12, r1	; 18
     300:	80 e4       	ldi	r24, 0x40	; 64
     302:	8b bf       	out	0x3b, r24	; 59
     304:	83 e0       	ldi	r24, 0x03	; 3
     306:	85 bf       	out	0x35, r24	; 53
     308:	08 95       	ret

0000030a <__vector_1>:
     30a:	1f 92       	push	r1
     30c:	0f 92       	push	r0
     30e:	0f b6       	in	r0, 0x3f	; 63
     310:	0f 92       	push	r0
     312:	11 24       	eor	r1, r1
     314:	2f 93       	push	r18
     316:	3f 93       	push	r19
     318:	4f 93       	push	r20
     31a:	5f 93       	push	r21
     31c:	6f 93       	push	r22
     31e:	7f 93       	push	r23
     320:	8f 93       	push	r24
     322:	9f 93       	push	r25
     324:	af 93       	push	r26
     326:	bf 93       	push	r27
     328:	ef 93       	push	r30
     32a:	ff 93       	push	r31
     32c:	40 b3       	in	r20, 0x10	; 16
     32e:	80 b3       	in	r24, 0x10	; 16
     330:	90 b3       	in	r25, 0x10	; 16
     332:	43 fb       	bst	r20, 3
     334:	ee 27       	eor	r30, r30
     336:	e0 f9       	bld	r30, 0
     338:	f0 e0       	ldi	r31, 0x00	; 0
     33a:	ee 0f       	add	r30, r30
     33c:	ff 1f       	adc	r31, r31
     33e:	ee 0f       	add	r30, r30
     340:	ff 1f       	adc	r31, r31
     342:	84 fb       	bst	r24, 4
     344:	22 27       	eor	r18, r18
     346:	20 f9       	bld	r18, 0
     348:	30 e0       	ldi	r19, 0x00	; 0
     34a:	22 0f       	add	r18, r18
     34c:	33 1f       	adc	r19, r19
     34e:	2e 2b       	or	r18, r30
     350:	96 fb       	bst	r25, 6
     352:	99 27       	eor	r25, r25
     354:	90 f9       	bld	r25, 0
     356:	e2 2f       	mov	r30, r18
     358:	e9 2b       	or	r30, r25
     35a:	e0 93 6c 02 	sts	0x026C, r30	; 0x80026c <debugVar>
     35e:	8e 2f       	mov	r24, r30
     360:	90 e0       	ldi	r25, 0x00	; 0
     362:	fc 01       	movw	r30, r24
     364:	31 97       	sbiw	r30, 0x01	; 1
     366:	e7 30       	cpi	r30, 0x07	; 7
     368:	f1 05       	cpc	r31, r1
     36a:	a0 f0       	brcs	.+40     	; 0x394 <__vector_1+0x8a>
     36c:	80 91 83 02 	lds	r24, 0x0283	; 0x800283 <AS5048AChip>
     370:	85 bb       	out	0x15, r24	; 21
     372:	ff 91       	pop	r31
     374:	ef 91       	pop	r30
     376:	bf 91       	pop	r27
     378:	af 91       	pop	r26
     37a:	9f 91       	pop	r25
     37c:	8f 91       	pop	r24
     37e:	7f 91       	pop	r23
     380:	6f 91       	pop	r22
     382:	5f 91       	pop	r21
     384:	4f 91       	pop	r20
     386:	3f 91       	pop	r19
     388:	2f 91       	pop	r18
     38a:	0f 90       	pop	r0
     38c:	0f be       	out	0x3f, r0	; 63
     38e:	0f 90       	pop	r0
     390:	1f 90       	pop	r1
     392:	18 95       	reti
     394:	ef 5c       	subi	r30, 0xCF	; 207
     396:	ff 4f       	sbci	r31, 0xFF	; 255
     398:	0c 94 e2 18 	jmp	0x31c4	; 0x31c4 <__tablejump2__>
     39c:	81 ef       	ldi	r24, 0xF1	; 241
     39e:	85 bb       	out	0x15, r24	; 21
     3a0:	e8 cf       	rjmp	.-48     	; 0x372 <__vector_1+0x68>
     3a2:	89 e9       	ldi	r24, 0x99	; 153
     3a4:	85 bb       	out	0x15, r24	; 21
     3a6:	e5 cf       	rjmp	.-54     	; 0x372 <__vector_1+0x68>
     3a8:	80 91 84 02 	lds	r24, 0x0284	; 0x800284 <AS5048AChip+0x1>
     3ac:	85 bb       	out	0x15, r24	; 21
     3ae:	e1 cf       	rjmp	.-62     	; 0x372 <__vector_1+0x68>
     3b0:	80 91 66 02 	lds	r24, 0x0266	; 0x800266 <__data_end+0x2>
     3b4:	85 bb       	out	0x15, r24	; 21
     3b6:	dd cf       	rjmp	.-70     	; 0x372 <__vector_1+0x68>
     3b8:	80 91 67 02 	lds	r24, 0x0267	; 0x800267 <__data_end+0x3>
     3bc:	85 bb       	out	0x15, r24	; 21
     3be:	d9 cf       	rjmp	.-78     	; 0x372 <__vector_1+0x68>
     3c0:	80 ef       	ldi	r24, 0xF0	; 240
     3c2:	85 bb       	out	0x15, r24	; 21
     3c4:	d6 cf       	rjmp	.-84     	; 0x372 <__vector_1+0x68>
     3c6:	80 91 64 02 	lds	r24, 0x0264	; 0x800264 <__data_end>
     3ca:	70 91 65 02 	lds	r23, 0x0265	; 0x800265 <__data_end+0x1>
     3ce:	60 91 66 02 	lds	r22, 0x0266	; 0x800266 <__data_end+0x2>
     3d2:	50 91 67 02 	lds	r21, 0x0267	; 0x800267 <__data_end+0x3>
     3d6:	40 91 68 02 	lds	r20, 0x0268	; 0x800268 <__data_end+0x4>
     3da:	30 91 69 02 	lds	r19, 0x0269	; 0x800269 <__data_end+0x5>
     3de:	20 91 6a 02 	lds	r18, 0x026A	; 0x80026a <__data_end+0x6>
     3e2:	90 91 6b 02 	lds	r25, 0x026B	; 0x80026b <__data_end+0x7>
     3e6:	87 27       	eor	r24, r23
     3e8:	86 27       	eor	r24, r22
     3ea:	85 27       	eor	r24, r21
     3ec:	84 27       	eor	r24, r20
     3ee:	83 27       	eor	r24, r19
     3f0:	82 27       	eor	r24, r18
     3f2:	89 27       	eor	r24, r25
     3f4:	85 bb       	out	0x15, r24	; 21
     3f6:	bd cf       	rjmp	.-134    	; 0x372 <__vector_1+0x68>

000003f8 <_Z18NextCalibrateStagev>:
     3f8:	80 91 6d 02 	lds	r24, 0x026D	; 0x80026d <calibrateStage>
     3fc:	90 91 6e 02 	lds	r25, 0x026E	; 0x80026e <calibrateStage+0x1>
     400:	81 30       	cpi	r24, 0x01	; 1
     402:	91 05       	cpc	r25, r1
     404:	39 f1       	breq	.+78     	; 0x454 <__LOCK_REGION_LENGTH__+0x54>
     406:	cc f0       	brlt	.+50     	; 0x43a <__LOCK_REGION_LENGTH__+0x3a>
     408:	82 30       	cpi	r24, 0x02	; 2
     40a:	91 05       	cpc	r25, r1
     40c:	39 f0       	breq	.+14     	; 0x41c <__LOCK_REGION_LENGTH__+0x1c>
     40e:	03 97       	sbiw	r24, 0x03	; 3
     410:	71 f5       	brne	.+92     	; 0x46e <__stack+0xf>
     412:	10 92 6e 02 	sts	0x026E, r1	; 0x80026e <calibrateStage+0x1>
     416:	10 92 6d 02 	sts	0x026D, r1	; 0x80026d <calibrateStage>
     41a:	08 95       	ret
     41c:	83 e0       	ldi	r24, 0x03	; 3
     41e:	90 e0       	ldi	r25, 0x00	; 0
     420:	90 93 6e 02 	sts	0x026E, r25	; 0x80026e <calibrateStage+0x1>
     424:	80 93 6d 02 	sts	0x026D, r24	; 0x80026d <calibrateStage>
     428:	80 91 83 02 	lds	r24, 0x0283	; 0x800283 <AS5048AChip>
     42c:	90 91 84 02 	lds	r25, 0x0284	; 0x800284 <AS5048AChip+0x1>
     430:	90 93 c5 02 	sts	0x02C5, r25	; 0x8002c5 <_ZL11RotateLimit+0x1>
     434:	80 93 c4 02 	sts	0x02C4, r24	; 0x8002c4 <_ZL11RotateLimit>
     438:	08 95       	ret
     43a:	89 2b       	or	r24, r25
     43c:	c9 f4       	brne	.+50     	; 0x470 <__stack+0x11>
     43e:	81 e0       	ldi	r24, 0x01	; 1
     440:	90 e0       	ldi	r25, 0x00	; 0
     442:	90 93 6e 02 	sts	0x026E, r25	; 0x80026e <calibrateStage+0x1>
     446:	80 93 6d 02 	sts	0x026D, r24	; 0x80026d <calibrateStage>
     44a:	8f ef       	ldi	r24, 0xFF	; 255
     44c:	93 e0       	ldi	r25, 0x03	; 3
     44e:	97 bd       	out	0x27, r25	; 39
     450:	86 bd       	out	0x26, r24	; 38
     452:	08 95       	ret
     454:	10 92 87 02 	sts	0x0287, r1	; 0x800287 <AS5048AChip+0x4>
     458:	80 91 85 02 	lds	r24, 0x0285	; 0x800285 <AS5048AChip+0x2>
     45c:	80 93 88 02 	sts	0x0288, r24	; 0x800288 <AS5048AChip+0x5>
     460:	82 e0       	ldi	r24, 0x02	; 2
     462:	90 e0       	ldi	r25, 0x00	; 0
     464:	90 93 6e 02 	sts	0x026E, r25	; 0x80026e <calibrateStage+0x1>
     468:	80 93 6d 02 	sts	0x026D, r24	; 0x80026d <calibrateStage>
     46c:	08 95       	ret
     46e:	08 95       	ret
     470:	08 95       	ret

00000472 <_Z13RegisterTasksv>:
     472:	84 e6       	ldi	r24, 0x64	; 100
     474:	90 e0       	ldi	r25, 0x00	; 0
     476:	90 93 7a 02 	sts	0x027A, r25	; 0x80027a <getFirstKeyboardByte+0x3>
     47a:	80 93 79 02 	sts	0x0279, r24	; 0x800279 <getFirstKeyboardByte+0x2>
     47e:	8f ea       	ldi	r24, 0xAF	; 175
     480:	90 e0       	ldi	r25, 0x00	; 0
     482:	90 93 76 02 	sts	0x0276, r25	; 0x800276 <getSecondKeyboardByte+0x3>
     486:	80 93 75 02 	sts	0x0275, r24	; 0x800275 <getSecondKeyboardByte+0x2>
     48a:	83 ee       	ldi	r24, 0xE3	; 227
     48c:	90 e0       	ldi	r25, 0x00	; 0
     48e:	90 93 72 02 	sts	0x0272, r25	; 0x800272 <setDataTask+0x3>
     492:	80 93 71 02 	sts	0x0271, r24	; 0x800271 <setDataTask+0x2>
     496:	80 91 c6 02 	lds	r24, 0x02C6	; 0x8002c6 <_ZL11Taskmanager>
     49a:	90 91 c7 02 	lds	r25, 0x02C7	; 0x8002c7 <_ZL11Taskmanager+0x1>
     49e:	89 2b       	or	r24, r25
     4a0:	09 f4       	brne	.+2      	; 0x4a4 <_Z13RegisterTasksv+0x32>
     4a2:	6e c0       	rjmp	.+220    	; 0x580 <_Z13RegisterTasksv+0x10e>
     4a4:	80 91 c8 02 	lds	r24, 0x02C8	; 0x8002c8 <_ZL11Taskmanager+0x2>
     4a8:	90 91 c9 02 	lds	r25, 0x02C9	; 0x8002c9 <_ZL11Taskmanager+0x3>
     4ac:	00 97       	sbiw	r24, 0x00	; 0
     4ae:	09 f4       	brne	.+2      	; 0x4b2 <_Z13RegisterTasksv+0x40>
     4b0:	81 c0       	rjmp	.+258    	; 0x5b4 <_Z13RegisterTasksv+0x142>
     4b2:	20 91 ca 02 	lds	r18, 0x02CA	; 0x8002ca <_ZL11Taskmanager+0x4>
     4b6:	30 91 cb 02 	lds	r19, 0x02CB	; 0x8002cb <_ZL11Taskmanager+0x5>
     4ba:	23 2b       	or	r18, r19
     4bc:	09 f4       	brne	.+2      	; 0x4c0 <_Z13RegisterTasksv+0x4e>
     4be:	83 c0       	rjmp	.+262    	; 0x5c6 <_Z13RegisterTasksv+0x154>
     4c0:	20 91 cc 02 	lds	r18, 0x02CC	; 0x8002cc <_ZL11Taskmanager+0x6>
     4c4:	30 91 cd 02 	lds	r19, 0x02CD	; 0x8002cd <_ZL11Taskmanager+0x7>
     4c8:	23 2b       	or	r18, r19
     4ca:	09 f4       	brne	.+2      	; 0x4ce <_Z13RegisterTasksv+0x5c>
     4cc:	7f c0       	rjmp	.+254    	; 0x5cc <_Z13RegisterTasksv+0x15a>
     4ce:	20 91 ce 02 	lds	r18, 0x02CE	; 0x8002ce <_ZL11Taskmanager+0x8>
     4d2:	30 91 cf 02 	lds	r19, 0x02CF	; 0x8002cf <_ZL11Taskmanager+0x9>
     4d6:	23 2b       	or	r18, r19
     4d8:	09 f4       	brne	.+2      	; 0x4dc <_Z13RegisterTasksv+0x6a>
     4da:	84 c0       	rjmp	.+264    	; 0x5e4 <_Z13RegisterTasksv+0x172>
     4dc:	20 91 d0 02 	lds	r18, 0x02D0	; 0x8002d0 <_ZL11Taskmanager+0xa>
     4e0:	30 91 d1 02 	lds	r19, 0x02D1	; 0x8002d1 <_ZL11Taskmanager+0xb>
     4e4:	23 2b       	or	r18, r19
     4e6:	09 f4       	brne	.+2      	; 0x4ea <_Z13RegisterTasksv+0x78>
     4e8:	80 c0       	rjmp	.+256    	; 0x5ea <_Z13RegisterTasksv+0x178>
     4ea:	20 91 d2 02 	lds	r18, 0x02D2	; 0x8002d2 <_ZL11Taskmanager+0xc>
     4ee:	30 91 d3 02 	lds	r19, 0x02D3	; 0x8002d3 <_ZL11Taskmanager+0xd>
     4f2:	23 2b       	or	r18, r19
     4f4:	09 f4       	brne	.+2      	; 0x4f8 <_Z13RegisterTasksv+0x86>
     4f6:	82 c0       	rjmp	.+260    	; 0x5fc <_Z13RegisterTasksv+0x18a>
     4f8:	20 91 d4 02 	lds	r18, 0x02D4	; 0x8002d4 <_ZL11Taskmanager+0xe>
     4fc:	30 91 d5 02 	lds	r19, 0x02D5	; 0x8002d5 <_ZL11Taskmanager+0xf>
     500:	23 2b       	or	r18, r19
     502:	09 f4       	brne	.+2      	; 0x506 <_Z13RegisterTasksv+0x94>
     504:	7e c0       	rjmp	.+252    	; 0x602 <_Z13RegisterTasksv+0x190>
     506:	89 2b       	or	r24, r25
     508:	09 f4       	brne	.+2      	; 0x50c <_Z13RegisterTasksv+0x9a>
     50a:	57 c0       	rjmp	.+174    	; 0x5ba <_Z13RegisterTasksv+0x148>
     50c:	80 91 ca 02 	lds	r24, 0x02CA	; 0x8002ca <_ZL11Taskmanager+0x4>
     510:	90 91 cb 02 	lds	r25, 0x02CB	; 0x8002cb <_ZL11Taskmanager+0x5>
     514:	89 2b       	or	r24, r25
     516:	09 f4       	brne	.+2      	; 0x51a <_Z13RegisterTasksv+0xa8>
     518:	53 c0       	rjmp	.+166    	; 0x5c0 <_Z13RegisterTasksv+0x14e>
     51a:	80 91 cc 02 	lds	r24, 0x02CC	; 0x8002cc <_ZL11Taskmanager+0x6>
     51e:	90 91 cd 02 	lds	r25, 0x02CD	; 0x8002cd <_ZL11Taskmanager+0x7>
     522:	89 2b       	or	r24, r25
     524:	09 f4       	brne	.+2      	; 0x528 <_Z13RegisterTasksv+0xb6>
     526:	55 c0       	rjmp	.+170    	; 0x5d2 <_Z13RegisterTasksv+0x160>
     528:	80 91 ce 02 	lds	r24, 0x02CE	; 0x8002ce <_ZL11Taskmanager+0x8>
     52c:	90 91 cf 02 	lds	r25, 0x02CF	; 0x8002cf <_ZL11Taskmanager+0x9>
     530:	89 2b       	or	r24, r25
     532:	09 f4       	brne	.+2      	; 0x536 <_Z13RegisterTasksv+0xc4>
     534:	54 c0       	rjmp	.+168    	; 0x5de <_Z13RegisterTasksv+0x16c>
     536:	80 91 d0 02 	lds	r24, 0x02D0	; 0x8002d0 <_ZL11Taskmanager+0xa>
     53a:	90 91 d1 02 	lds	r25, 0x02D1	; 0x8002d1 <_ZL11Taskmanager+0xb>
     53e:	89 2b       	or	r24, r25
     540:	09 f4       	brne	.+2      	; 0x544 <_Z13RegisterTasksv+0xd2>
     542:	56 c0       	rjmp	.+172    	; 0x5f0 <_Z13RegisterTasksv+0x17e>
     544:	80 91 d2 02 	lds	r24, 0x02D2	; 0x8002d2 <_ZL11Taskmanager+0xc>
     548:	90 91 d3 02 	lds	r25, 0x02D3	; 0x8002d3 <_ZL11Taskmanager+0xd>
     54c:	89 2b       	or	r24, r25
     54e:	09 f4       	brne	.+2      	; 0x552 <_Z13RegisterTasksv+0xe0>
     550:	52 c0       	rjmp	.+164    	; 0x5f6 <_Z13RegisterTasksv+0x184>
     552:	80 91 d4 02 	lds	r24, 0x02D4	; 0x8002d4 <_ZL11Taskmanager+0xe>
     556:	90 91 d5 02 	lds	r25, 0x02D5	; 0x8002d5 <_ZL11Taskmanager+0xf>
     55a:	89 2b       	or	r24, r25
     55c:	09 f0       	breq	.+2      	; 0x560 <_Z13RegisterTasksv+0xee>
     55e:	08 95       	ret
     560:	87 e0       	ldi	r24, 0x07	; 7
     562:	90 e0       	ldi	r25, 0x00	; 0
     564:	fc 01       	movw	r30, r24
     566:	ee 0f       	add	r30, r30
     568:	ff 1f       	adc	r31, r31
     56a:	ea 53       	subi	r30, 0x3A	; 58
     56c:	fd 4f       	sbci	r31, 0xFD	; 253
     56e:	23 e7       	ldi	r18, 0x73	; 115
     570:	32 e0       	ldi	r19, 0x02	; 2
     572:	31 83       	std	Z+1, r19	; 0x01
     574:	20 83       	st	Z, r18
     576:	90 93 74 02 	sts	0x0274, r25	; 0x800274 <getSecondKeyboardByte+0x1>
     57a:	80 93 73 02 	sts	0x0273, r24	; 0x800273 <getSecondKeyboardByte>
     57e:	08 95       	ret
     580:	80 e0       	ldi	r24, 0x00	; 0
     582:	90 e0       	ldi	r25, 0x00	; 0
     584:	fc 01       	movw	r30, r24
     586:	ee 0f       	add	r30, r30
     588:	ff 1f       	adc	r31, r31
     58a:	ea 53       	subi	r30, 0x3A	; 58
     58c:	fd 4f       	sbci	r31, 0xFD	; 253
     58e:	27 e7       	ldi	r18, 0x77	; 119
     590:	32 e0       	ldi	r19, 0x02	; 2
     592:	31 83       	std	Z+1, r19	; 0x01
     594:	20 83       	st	Z, r18
     596:	90 93 78 02 	sts	0x0278, r25	; 0x800278 <getFirstKeyboardByte+0x1>
     59a:	80 93 77 02 	sts	0x0277, r24	; 0x800277 <getFirstKeyboardByte>
     59e:	80 91 c6 02 	lds	r24, 0x02C6	; 0x8002c6 <_ZL11Taskmanager>
     5a2:	90 91 c7 02 	lds	r25, 0x02C7	; 0x8002c7 <_ZL11Taskmanager+0x1>
     5a6:	89 2b       	or	r24, r25
     5a8:	b9 f0       	breq	.+46     	; 0x5d8 <_Z13RegisterTasksv+0x166>
     5aa:	80 91 c8 02 	lds	r24, 0x02C8	; 0x8002c8 <_ZL11Taskmanager+0x2>
     5ae:	90 91 c9 02 	lds	r25, 0x02C9	; 0x8002c9 <_ZL11Taskmanager+0x3>
     5b2:	a9 cf       	rjmp	.-174    	; 0x506 <_Z13RegisterTasksv+0x94>
     5b4:	81 e0       	ldi	r24, 0x01	; 1
     5b6:	90 e0       	ldi	r25, 0x00	; 0
     5b8:	e5 cf       	rjmp	.-54     	; 0x584 <_Z13RegisterTasksv+0x112>
     5ba:	81 e0       	ldi	r24, 0x01	; 1
     5bc:	90 e0       	ldi	r25, 0x00	; 0
     5be:	d2 cf       	rjmp	.-92     	; 0x564 <_Z13RegisterTasksv+0xf2>
     5c0:	82 e0       	ldi	r24, 0x02	; 2
     5c2:	90 e0       	ldi	r25, 0x00	; 0
     5c4:	cf cf       	rjmp	.-98     	; 0x564 <_Z13RegisterTasksv+0xf2>
     5c6:	82 e0       	ldi	r24, 0x02	; 2
     5c8:	90 e0       	ldi	r25, 0x00	; 0
     5ca:	dc cf       	rjmp	.-72     	; 0x584 <_Z13RegisterTasksv+0x112>
     5cc:	83 e0       	ldi	r24, 0x03	; 3
     5ce:	90 e0       	ldi	r25, 0x00	; 0
     5d0:	d9 cf       	rjmp	.-78     	; 0x584 <_Z13RegisterTasksv+0x112>
     5d2:	83 e0       	ldi	r24, 0x03	; 3
     5d4:	90 e0       	ldi	r25, 0x00	; 0
     5d6:	c6 cf       	rjmp	.-116    	; 0x564 <_Z13RegisterTasksv+0xf2>
     5d8:	80 e0       	ldi	r24, 0x00	; 0
     5da:	90 e0       	ldi	r25, 0x00	; 0
     5dc:	c3 cf       	rjmp	.-122    	; 0x564 <_Z13RegisterTasksv+0xf2>
     5de:	84 e0       	ldi	r24, 0x04	; 4
     5e0:	90 e0       	ldi	r25, 0x00	; 0
     5e2:	c0 cf       	rjmp	.-128    	; 0x564 <_Z13RegisterTasksv+0xf2>
     5e4:	84 e0       	ldi	r24, 0x04	; 4
     5e6:	90 e0       	ldi	r25, 0x00	; 0
     5e8:	cd cf       	rjmp	.-102    	; 0x584 <_Z13RegisterTasksv+0x112>
     5ea:	85 e0       	ldi	r24, 0x05	; 5
     5ec:	90 e0       	ldi	r25, 0x00	; 0
     5ee:	ca cf       	rjmp	.-108    	; 0x584 <_Z13RegisterTasksv+0x112>
     5f0:	85 e0       	ldi	r24, 0x05	; 5
     5f2:	90 e0       	ldi	r25, 0x00	; 0
     5f4:	b7 cf       	rjmp	.-146    	; 0x564 <_Z13RegisterTasksv+0xf2>
     5f6:	86 e0       	ldi	r24, 0x06	; 6
     5f8:	90 e0       	ldi	r25, 0x00	; 0
     5fa:	b4 cf       	rjmp	.-152    	; 0x564 <_Z13RegisterTasksv+0xf2>
     5fc:	86 e0       	ldi	r24, 0x06	; 6
     5fe:	90 e0       	ldi	r25, 0x00	; 0
     600:	c1 cf       	rjmp	.-126    	; 0x584 <_Z13RegisterTasksv+0x112>
     602:	87 e0       	ldi	r24, 0x07	; 7
     604:	90 e0       	ldi	r25, 0x00	; 0
     606:	be cf       	rjmp	.-132    	; 0x584 <_Z13RegisterTasksv+0x112>

00000608 <_Z10ComputePWMv>:
     608:	8f 92       	push	r8
     60a:	9f 92       	push	r9
     60c:	af 92       	push	r10
     60e:	bf 92       	push	r11
     610:	cf 92       	push	r12
     612:	df 92       	push	r13
     614:	ef 92       	push	r14
     616:	ff 92       	push	r15
     618:	0f 93       	push	r16
     61a:	1f 93       	push	r17
     61c:	cf 93       	push	r28
     61e:	df 93       	push	r29
     620:	80 91 8b 02 	lds	r24, 0x028B	; 0x80028b <AS5048AChip+0x8>
     624:	90 91 8c 02 	lds	r25, 0x028C	; 0x80028c <AS5048AChip+0x9>
     628:	dc 01       	movw	r26, r24
     62a:	ed 91       	ld	r30, X+
     62c:	fc 91       	ld	r31, X
     62e:	00 88       	ldd	r0, Z+16	; 0x10
     630:	f1 89       	ldd	r31, Z+17	; 0x11
     632:	e0 2d       	mov	r30, r0
     634:	09 95       	icall
     636:	80 91 85 02 	lds	r24, 0x0285	; 0x800285 <AS5048AChip+0x2>
     63a:	80 93 86 02 	sts	0x0286, r24	; 0x800286 <AS5048AChip+0x3>
     63e:	8f ef       	ldi	r24, 0xFF	; 255
     640:	8f b9       	out	0x0f, r24	; 15
     642:	77 9b       	sbis	0x0e, 7	; 14
     644:	fe cf       	rjmp	.-4      	; 0x642 <_Z10ComputePWMv+0x3a>
     646:	8f b1       	in	r24, 0x0f	; 15
     648:	90 e0       	ldi	r25, 0x00	; 0
     64a:	88 0f       	add	r24, r24
     64c:	99 1f       	adc	r25, r25
     64e:	88 0f       	add	r24, r24
     650:	99 1f       	adc	r25, r25
     652:	88 0f       	add	r24, r24
     654:	99 1f       	adc	r25, r25
     656:	80 93 85 02 	sts	0x0285, r24	; 0x800285 <AS5048AChip+0x2>
     65a:	8f ef       	ldi	r24, 0xFF	; 255
     65c:	8f b9       	out	0x0f, r24	; 15
     65e:	77 9b       	sbis	0x0e, 7	; 14
     660:	fe cf       	rjmp	.-4      	; 0x65e <_Z10ComputePWMv+0x56>
     662:	8f b1       	in	r24, 0x0f	; 15
     664:	90 e0       	ldi	r25, 0x00	; 0
     666:	95 95       	asr	r25
     668:	87 95       	ror	r24
     66a:	95 95       	asr	r25
     66c:	87 95       	ror	r24
     66e:	95 95       	asr	r25
     670:	87 95       	ror	r24
     672:	95 95       	asr	r25
     674:	87 95       	ror	r24
     676:	95 95       	asr	r25
     678:	87 95       	ror	r24
     67a:	20 91 85 02 	lds	r18, 0x0285	; 0x800285 <AS5048AChip+0x2>
     67e:	82 2b       	or	r24, r18
     680:	80 93 85 02 	sts	0x0285, r24	; 0x800285 <AS5048AChip+0x2>
     684:	80 91 8b 02 	lds	r24, 0x028B	; 0x80028b <AS5048AChip+0x8>
     688:	90 91 8c 02 	lds	r25, 0x028C	; 0x80028c <AS5048AChip+0x9>
     68c:	dc 01       	movw	r26, r24
     68e:	ed 91       	ld	r30, X+
     690:	fc 91       	ld	r31, X
     692:	06 84       	ldd	r0, Z+14	; 0x0e
     694:	f7 85       	ldd	r31, Z+15	; 0x0f
     696:	e0 2d       	mov	r30, r0
     698:	09 95       	icall
     69a:	90 91 86 02 	lds	r25, 0x0286	; 0x800286 <AS5048AChip+0x3>
     69e:	60 91 85 02 	lds	r22, 0x0285	; 0x800285 <AS5048AChip+0x2>
     6a2:	80 91 87 02 	lds	r24, 0x0287	; 0x800287 <AS5048AChip+0x4>
     6a6:	91 3c       	cpi	r25, 0xC1	; 193
     6a8:	18 f0       	brcs	.+6      	; 0x6b0 <_Z10ComputePWMv+0xa8>
     6aa:	6f 33       	cpi	r22, 0x3F	; 63
     6ac:	08 f4       	brcc	.+2      	; 0x6b0 <_Z10ComputePWMv+0xa8>
     6ae:	4e c0       	rjmp	.+156    	; 0x74c <_Z10ComputePWMv+0x144>
     6b0:	61 3c       	cpi	r22, 0xC1	; 193
     6b2:	28 f0       	brcs	.+10     	; 0x6be <_Z10ComputePWMv+0xb6>
     6b4:	9f 33       	cpi	r25, 0x3F	; 63
     6b6:	18 f4       	brcc	.+6      	; 0x6be <_Z10ComputePWMv+0xb6>
     6b8:	81 50       	subi	r24, 0x01	; 1
     6ba:	80 93 87 02 	sts	0x0287, r24	; 0x800287 <AS5048AChip+0x4>
     6be:	70 e0       	ldi	r23, 0x00	; 0
     6c0:	78 2b       	or	r23, r24
     6c2:	80 91 88 02 	lds	r24, 0x0288	; 0x800288 <AS5048AChip+0x5>
     6c6:	eb 01       	movw	r28, r22
     6c8:	c8 1b       	sub	r28, r24
     6ca:	d1 09       	sbc	r29, r1
     6cc:	d0 93 84 02 	sts	0x0284, r29	; 0x800284 <AS5048AChip+0x1>
     6d0:	c0 93 83 02 	sts	0x0283, r28	; 0x800283 <AS5048AChip>
     6d4:	80 91 c4 02 	lds	r24, 0x02C4	; 0x8002c4 <_ZL11RotateLimit>
     6d8:	90 91 c5 02 	lds	r25, 0x02C5	; 0x8002c5 <_ZL11RotateLimit+0x1>
     6dc:	8c 17       	cp	r24, r28
     6de:	9d 07       	cpc	r25, r29
     6e0:	40 f1       	brcs	.+80     	; 0x732 <_Z10ComputePWMv+0x12a>
     6e2:	66 b5       	in	r22, 0x26	; 38
     6e4:	77 b5       	in	r23, 0x27	; 39
     6e6:	00 91 c4 02 	lds	r16, 0x02C4	; 0x8002c4 <_ZL11RotateLimit>
     6ea:	10 91 c5 02 	lds	r17, 0x02C5	; 0x8002c5 <_ZL11RotateLimit+0x1>
     6ee:	80 e0       	ldi	r24, 0x00	; 0
     6f0:	90 e0       	ldi	r25, 0x00	; 0
     6f2:	0e 94 e7 17 	call	0x2fce	; 0x2fce <__floatunsisf>
     6f6:	6b 01       	movw	r12, r22
     6f8:	7c 01       	movw	r14, r24
     6fa:	be 01       	movw	r22, r28
     6fc:	80 e0       	ldi	r24, 0x00	; 0
     6fe:	90 e0       	ldi	r25, 0x00	; 0
     700:	0e 94 e7 17 	call	0x2fce	; 0x2fce <__floatunsisf>
     704:	4b 01       	movw	r8, r22
     706:	5c 01       	movw	r10, r24
     708:	b8 01       	movw	r22, r16
     70a:	80 e0       	ldi	r24, 0x00	; 0
     70c:	90 e0       	ldi	r25, 0x00	; 0
     70e:	0e 94 e7 17 	call	0x2fce	; 0x2fce <__floatunsisf>
     712:	9b 01       	movw	r18, r22
     714:	ac 01       	movw	r20, r24
     716:	c5 01       	movw	r24, r10
     718:	b4 01       	movw	r22, r8
     71a:	0e 94 46 17 	call	0x2e8c	; 0x2e8c <__divsf3>
     71e:	9b 01       	movw	r18, r22
     720:	ac 01       	movw	r20, r24
     722:	c7 01       	movw	r24, r14
     724:	b6 01       	movw	r22, r12
     726:	0e 94 75 18 	call	0x30ea	; 0x30ea <__mulsf3>
     72a:	0e 94 b8 17 	call	0x2f70	; 0x2f70 <__fixunssfsi>
     72e:	7b bd       	out	0x2b, r23	; 43
     730:	6a bd       	out	0x2a, r22	; 42
     732:	df 91       	pop	r29
     734:	cf 91       	pop	r28
     736:	1f 91       	pop	r17
     738:	0f 91       	pop	r16
     73a:	ff 90       	pop	r15
     73c:	ef 90       	pop	r14
     73e:	df 90       	pop	r13
     740:	cf 90       	pop	r12
     742:	bf 90       	pop	r11
     744:	af 90       	pop	r10
     746:	9f 90       	pop	r9
     748:	8f 90       	pop	r8
     74a:	08 95       	ret
     74c:	8f 5f       	subi	r24, 0xFF	; 255
     74e:	80 93 87 02 	sts	0x0287, r24	; 0x800287 <AS5048AChip+0x4>
     752:	b5 cf       	rjmp	.-150    	; 0x6be <_Z10ComputePWMv+0xb6>

00000754 <_Z15InitializePortsv>:
     754:	8f ef       	ldi	r24, 0xFF	; 255
     756:	8a bb       	out	0x1a, r24	; 26
     758:	84 bb       	out	0x14, r24	; 20
     75a:	81 bb       	out	0x11, r24	; 17
     75c:	87 bb       	out	0x17, r24	; 23
     75e:	88 bb       	out	0x18, r24	; 24
     760:	85 bb       	out	0x15, r24	; 21
     762:	82 bb       	out	0x12, r24	; 18
     764:	08 95       	ret

00000766 <_Z17InitializeProgramv>:
     766:	cf 93       	push	r28
     768:	8f ef       	ldi	r24, 0xFF	; 255
     76a:	8a bb       	out	0x1a, r24	; 26
     76c:	84 bb       	out	0x14, r24	; 20
     76e:	81 bb       	out	0x11, r24	; 17
     770:	87 bb       	out	0x17, r24	; 23
     772:	88 bb       	out	0x18, r24	; 24
     774:	85 bb       	out	0x15, r24	; 21
     776:	82 bb       	out	0x12, r24	; 18
     778:	80 91 99 02 	lds	r24, 0x0299	; 0x800299 <debugDisplay+0x6>
     77c:	90 91 9a 02 	lds	r25, 0x029A	; 0x80029a <debugDisplay+0x7>
     780:	dc 01       	movw	r26, r24
     782:	ed 91       	ld	r30, X+
     784:	fc 91       	ld	r31, X
     786:	00 88       	ldd	r0, Z+16	; 0x10
     788:	f1 89       	ldd	r31, Z+17	; 0x11
     78a:	e0 2d       	mov	r30, r0
     78c:	09 95       	icall
     78e:	80 91 95 02 	lds	r24, 0x0295	; 0x800295 <debugDisplay+0x2>
     792:	90 91 96 02 	lds	r25, 0x0296	; 0x800296 <debugDisplay+0x3>
     796:	dc 01       	movw	r26, r24
     798:	ed 91       	ld	r30, X+
     79a:	fc 91       	ld	r31, X
     79c:	04 88       	ldd	r0, Z+20	; 0x14
     79e:	f5 89       	ldd	r31, Z+21	; 0x15
     7a0:	e0 2d       	mov	r30, r0
     7a2:	09 95       	icall
     7a4:	80 91 93 02 	lds	r24, 0x0293	; 0x800293 <debugDisplay>
     7a8:	90 91 94 02 	lds	r25, 0x0294	; 0x800294 <debugDisplay+0x1>
     7ac:	dc 01       	movw	r26, r24
     7ae:	ed 91       	ld	r30, X+
     7b0:	fc 91       	ld	r31, X
     7b2:	04 88       	ldd	r0, Z+20	; 0x14
     7b4:	f5 89       	ldd	r31, Z+21	; 0x15
     7b6:	e0 2d       	mov	r30, r0
     7b8:	09 95       	icall
     7ba:	80 91 99 02 	lds	r24, 0x0299	; 0x800299 <debugDisplay+0x6>
     7be:	90 91 9a 02 	lds	r25, 0x029A	; 0x80029a <debugDisplay+0x7>
     7c2:	dc 01       	movw	r26, r24
     7c4:	ed 91       	ld	r30, X+
     7c6:	fc 91       	ld	r31, X
     7c8:	04 88       	ldd	r0, Z+20	; 0x14
     7ca:	f5 89       	ldd	r31, Z+21	; 0x15
     7cc:	e0 2d       	mov	r30, r0
     7ce:	09 95       	icall
     7d0:	80 91 9d 02 	lds	r24, 0x029D	; 0x80029d <debugDisplay+0xa>
     7d4:	90 91 9e 02 	lds	r25, 0x029E	; 0x80029e <debugDisplay+0xb>
     7d8:	dc 01       	movw	r26, r24
     7da:	ed 91       	ld	r30, X+
     7dc:	fc 91       	ld	r31, X
     7de:	06 88       	ldd	r0, Z+22	; 0x16
     7e0:	f7 89       	ldd	r31, Z+23	; 0x17
     7e2:	e0 2d       	mov	r30, r0
     7e4:	09 95       	icall
     7e6:	80 91 97 02 	lds	r24, 0x0297	; 0x800297 <debugDisplay+0x4>
     7ea:	90 91 98 02 	lds	r25, 0x0298	; 0x800298 <debugDisplay+0x5>
     7ee:	dc 01       	movw	r26, r24
     7f0:	ed 91       	ld	r30, X+
     7f2:	fc 91       	ld	r31, X
     7f4:	04 88       	ldd	r0, Z+20	; 0x14
     7f6:	f5 89       	ldd	r31, Z+21	; 0x15
     7f8:	e0 2d       	mov	r30, r0
     7fa:	09 95       	icall
     7fc:	80 91 9b 02 	lds	r24, 0x029B	; 0x80029b <debugDisplay+0x8>
     800:	90 91 9c 02 	lds	r25, 0x029C	; 0x80029c <debugDisplay+0x9>
     804:	dc 01       	movw	r26, r24
     806:	ed 91       	ld	r30, X+
     808:	fc 91       	ld	r31, X
     80a:	04 88       	ldd	r0, Z+20	; 0x14
     80c:	f5 89       	ldd	r31, Z+21	; 0x15
     80e:	e0 2d       	mov	r30, r0
     810:	09 95       	icall
     812:	80 91 9f 02 	lds	r24, 0x029F	; 0x80029f <debugDisplay+0xc>
     816:	90 91 a0 02 	lds	r25, 0x02A0	; 0x8002a0 <debugDisplay+0xd>
     81a:	dc 01       	movw	r26, r24
     81c:	ed 91       	ld	r30, X+
     81e:	fc 91       	ld	r31, X
     820:	04 88       	ldd	r0, Z+20	; 0x14
     822:	f5 89       	ldd	r31, Z+21	; 0x15
     824:	e0 2d       	mov	r30, r0
     826:	09 95       	icall
     828:	80 91 99 02 	lds	r24, 0x0299	; 0x800299 <debugDisplay+0x6>
     82c:	90 91 9a 02 	lds	r25, 0x029A	; 0x80029a <debugDisplay+0x7>
     830:	dc 01       	movw	r26, r24
     832:	ed 91       	ld	r30, X+
     834:	fc 91       	ld	r31, X
     836:	00 88       	ldd	r0, Z+16	; 0x10
     838:	f1 89       	ldd	r31, Z+17	; 0x11
     83a:	e0 2d       	mov	r30, r0
     83c:	09 95       	icall
     83e:	80 91 95 02 	lds	r24, 0x0295	; 0x800295 <debugDisplay+0x2>
     842:	90 91 96 02 	lds	r25, 0x0296	; 0x800296 <debugDisplay+0x3>
     846:	dc 01       	movw	r26, r24
     848:	ed 91       	ld	r30, X+
     84a:	fc 91       	ld	r31, X
     84c:	06 84       	ldd	r0, Z+14	; 0x0e
     84e:	f7 85       	ldd	r31, Z+15	; 0x0f
     850:	e0 2d       	mov	r30, r0
     852:	09 95       	icall
     854:	83 ed       	ldi	r24, 0xD3	; 211
     856:	90 e3       	ldi	r25, 0x30	; 48
     858:	01 97       	sbiw	r24, 0x01	; 1
     85a:	f1 f7       	brne	.-4      	; 0x858 <_Z17InitializeProgramv+0xf2>
     85c:	00 c0       	rjmp	.+0      	; 0x85e <_Z17InitializeProgramv+0xf8>
     85e:	00 00       	nop
     860:	80 91 95 02 	lds	r24, 0x0295	; 0x800295 <debugDisplay+0x2>
     864:	90 91 96 02 	lds	r25, 0x0296	; 0x800296 <debugDisplay+0x3>
     868:	dc 01       	movw	r26, r24
     86a:	ed 91       	ld	r30, X+
     86c:	fc 91       	ld	r31, X
     86e:	00 88       	ldd	r0, Z+16	; 0x10
     870:	f1 89       	ldd	r31, Z+17	; 0x11
     872:	e0 2d       	mov	r30, r0
     874:	09 95       	icall
     876:	83 ed       	ldi	r24, 0xD3	; 211
     878:	90 e3       	ldi	r25, 0x30	; 48
     87a:	01 97       	sbiw	r24, 0x01	; 1
     87c:	f1 f7       	brne	.-4      	; 0x87a <_Z17InitializeProgramv+0x114>
     87e:	00 c0       	rjmp	.+0      	; 0x880 <_Z17InitializeProgramv+0x11a>
     880:	00 00       	nop
     882:	80 91 95 02 	lds	r24, 0x0295	; 0x800295 <debugDisplay+0x2>
     886:	90 91 96 02 	lds	r25, 0x0296	; 0x800296 <debugDisplay+0x3>
     88a:	dc 01       	movw	r26, r24
     88c:	ed 91       	ld	r30, X+
     88e:	fc 91       	ld	r31, X
     890:	06 84       	ldd	r0, Z+14	; 0x0e
     892:	f7 85       	ldd	r31, Z+15	; 0x0f
     894:	e0 2d       	mov	r30, r0
     896:	09 95       	icall
     898:	1d b8       	out	0x0d, r1	; 13
     89a:	6c 9a       	sbi	0x0d, 4	; 13
     89c:	6e 9a       	sbi	0x0d, 6	; 13
     89e:	8e b1       	in	r24, 0x0e	; 14
     8a0:	8e b9       	out	0x0e, r24	; 14
     8a2:	80 91 93 02 	lds	r24, 0x0293	; 0x800293 <debugDisplay>
     8a6:	90 91 94 02 	lds	r25, 0x0294	; 0x800294 <debugDisplay+0x1>
     8aa:	dc 01       	movw	r26, r24
     8ac:	ed 91       	ld	r30, X+
     8ae:	fc 91       	ld	r31, X
     8b0:	00 88       	ldd	r0, Z+16	; 0x10
     8b2:	f1 89       	ldd	r31, Z+17	; 0x11
     8b4:	e0 2d       	mov	r30, r0
     8b6:	09 95       	icall
     8b8:	80 91 a9 02 	lds	r24, 0x02A9	; 0x8002a9 <debugDisplay+0x16>
     8bc:	8f b9       	out	0x0f, r24	; 15
     8be:	77 9b       	sbis	0x0e, 7	; 14
     8c0:	fe cf       	rjmp	.-4      	; 0x8be <_Z17InitializeProgramv+0x158>
     8c2:	80 91 b0 02 	lds	r24, 0x02B0	; 0x8002b0 <debugDisplay+0x1d>
     8c6:	8f b9       	out	0x0f, r24	; 15
     8c8:	77 9b       	sbis	0x0e, 7	; 14
     8ca:	fe cf       	rjmp	.-4      	; 0x8c8 <_Z17InitializeProgramv+0x162>
     8cc:	8f e3       	ldi	r24, 0x3F	; 63
     8ce:	8f b9       	out	0x0f, r24	; 15
     8d0:	77 9b       	sbis	0x0e, 7	; 14
     8d2:	fe cf       	rjmp	.-4      	; 0x8d0 <_Z17InitializeProgramv+0x16a>
     8d4:	80 91 b3 02 	lds	r24, 0x02B3	; 0x8002b3 <debugDisplay+0x20>
     8d8:	8f b9       	out	0x0f, r24	; 15
     8da:	77 9b       	sbis	0x0e, 7	; 14
     8dc:	fe cf       	rjmp	.-4      	; 0x8da <_Z17InitializeProgramv+0x174>
     8de:	80 91 b6 02 	lds	r24, 0x02B6	; 0x8002b6 <debugDisplay+0x23>
     8e2:	8f b9       	out	0x0f, r24	; 15
     8e4:	77 9b       	sbis	0x0e, 7	; 14
     8e6:	fe cf       	rjmp	.-4      	; 0x8e4 <_Z17InitializeProgramv+0x17e>
     8e8:	80 91 b1 02 	lds	r24, 0x02B1	; 0x8002b1 <debugDisplay+0x1e>
     8ec:	82 60       	ori	r24, 0x02	; 2
     8ee:	8f b9       	out	0x0f, r24	; 15
     8f0:	77 9b       	sbis	0x0e, 7	; 14
     8f2:	fe cf       	rjmp	.-4      	; 0x8f0 <_Z17InitializeProgramv+0x18a>
     8f4:	80 91 b2 02 	lds	r24, 0x02B2	; 0x8002b2 <debugDisplay+0x1f>
     8f8:	8f b9       	out	0x0f, r24	; 15
     8fa:	77 9b       	sbis	0x0e, 7	; 14
     8fc:	fe cf       	rjmp	.-4      	; 0x8fa <_Z17InitializeProgramv+0x194>
     8fe:	80 91 b9 02 	lds	r24, 0x02B9	; 0x8002b9 <debugDisplay+0x26>
     902:	81 60       	ori	r24, 0x01	; 1
     904:	8f b9       	out	0x0f, r24	; 15
     906:	77 9b       	sbis	0x0e, 7	; 14
     908:	fe cf       	rjmp	.-4      	; 0x906 <_Z17InitializeProgramv+0x1a0>
     90a:	80 91 a7 02 	lds	r24, 0x02A7	; 0x8002a7 <debugDisplay+0x14>
     90e:	8f b9       	out	0x0f, r24	; 15
     910:	77 9b       	sbis	0x0e, 7	; 14
     912:	fe cf       	rjmp	.-4      	; 0x910 <_Z17InitializeProgramv+0x1aa>
     914:	80 91 ba 02 	lds	r24, 0x02BA	; 0x8002ba <debugDisplay+0x27>
     918:	8f b9       	out	0x0f, r24	; 15
     91a:	77 9b       	sbis	0x0e, 7	; 14
     91c:	fe cf       	rjmp	.-4      	; 0x91a <_Z17InitializeProgramv+0x1b4>
     91e:	80 91 b4 02 	lds	r24, 0x02B4	; 0x8002b4 <debugDisplay+0x21>
     922:	8f b9       	out	0x0f, r24	; 15
     924:	77 9b       	sbis	0x0e, 7	; 14
     926:	fe cf       	rjmp	.-4      	; 0x924 <_Z17InitializeProgramv+0x1be>
     928:	1f b8       	out	0x0f, r1	; 15
     92a:	77 9b       	sbis	0x0e, 7	; 14
     92c:	fe cf       	rjmp	.-4      	; 0x92a <_Z17InitializeProgramv+0x1c4>
     92e:	80 91 bb 02 	lds	r24, 0x02BB	; 0x8002bb <debugDisplay+0x28>
     932:	8f b9       	out	0x0f, r24	; 15
     934:	77 9b       	sbis	0x0e, 7	; 14
     936:	fe cf       	rjmp	.-4      	; 0x934 <_Z17InitializeProgramv+0x1ce>
     938:	81 e3       	ldi	r24, 0x31	; 49
     93a:	8f b9       	out	0x0f, r24	; 15
     93c:	77 9b       	sbis	0x0e, 7	; 14
     93e:	fe cf       	rjmp	.-4      	; 0x93c <_Z17InitializeProgramv+0x1d6>
     940:	83 ec       	ldi	r24, 0xC3	; 195
     942:	99 e0       	ldi	r25, 0x09	; 9
     944:	01 97       	sbiw	r24, 0x01	; 1
     946:	f1 f7       	brne	.-4      	; 0x944 <_Z17InitializeProgramv+0x1de>
     948:	00 c0       	rjmp	.+0      	; 0x94a <_Z17InitializeProgramv+0x1e4>
     94a:	00 00       	nop
     94c:	80 91 b8 02 	lds	r24, 0x02B8	; 0x8002b8 <debugDisplay+0x25>
     950:	8f b9       	out	0x0f, r24	; 15
     952:	77 9b       	sbis	0x0e, 7	; 14
     954:	fe cf       	rjmp	.-4      	; 0x952 <_Z17InitializeProgramv+0x1ec>
     956:	80 91 ab 02 	lds	r24, 0x02AB	; 0x8002ab <debugDisplay+0x18>
     95a:	8f b9       	out	0x0f, r24	; 15
     95c:	77 9b       	sbis	0x0e, 7	; 14
     95e:	fe cf       	rjmp	.-4      	; 0x95c <_Z17InitializeProgramv+0x1f6>
     960:	1f b8       	out	0x0f, r1	; 15
     962:	77 9b       	sbis	0x0e, 7	; 14
     964:	fe cf       	rjmp	.-4      	; 0x962 <_Z17InitializeProgramv+0x1fc>
     966:	80 91 ae 02 	lds	r24, 0x02AE	; 0x8002ae <debugDisplay+0x1b>
     96a:	8f b9       	out	0x0f, r24	; 15
     96c:	77 9b       	sbis	0x0e, 7	; 14
     96e:	fe cf       	rjmp	.-4      	; 0x96c <_Z17InitializeProgramv+0x206>
     970:	80 91 a3 02 	lds	r24, 0x02A3	; 0x8002a3 <debugDisplay+0x10>
     974:	8f b9       	out	0x0f, r24	; 15
     976:	77 9b       	sbis	0x0e, 7	; 14
     978:	fe cf       	rjmp	.-4      	; 0x976 <_Z17InitializeProgramv+0x210>
     97a:	80 91 af 02 	lds	r24, 0x02AF	; 0x8002af <debugDisplay+0x1c>
     97e:	8f b9       	out	0x0f, r24	; 15
     980:	77 9b       	sbis	0x0e, 7	; 14
     982:	fe cf       	rjmp	.-4      	; 0x980 <_Z17InitializeProgramv+0x21a>
     984:	8f e1       	ldi	r24, 0x1F	; 31
     986:	8f b9       	out	0x0f, r24	; 15
     988:	77 9b       	sbis	0x0e, 7	; 14
     98a:	fe cf       	rjmp	.-4      	; 0x988 <_Z17InitializeProgramv+0x222>
     98c:	80 91 ac 02 	lds	r24, 0x02AC	; 0x8002ac <debugDisplay+0x19>
     990:	8f b9       	out	0x0f, r24	; 15
     992:	77 9b       	sbis	0x0e, 7	; 14
     994:	fe cf       	rjmp	.-4      	; 0x992 <_Z17InitializeProgramv+0x22c>
     996:	82 e1       	ldi	r24, 0x12	; 18
     998:	8f b9       	out	0x0f, r24	; 15
     99a:	77 9b       	sbis	0x0e, 7	; 14
     99c:	fe cf       	rjmp	.-4      	; 0x99a <_Z17InitializeProgramv+0x234>
     99e:	80 91 ad 02 	lds	r24, 0x02AD	; 0x8002ad <debugDisplay+0x1a>
     9a2:	8f b9       	out	0x0f, r24	; 15
     9a4:	77 9b       	sbis	0x0e, 7	; 14
     9a6:	fe cf       	rjmp	.-4      	; 0x9a4 <_Z17InitializeProgramv+0x23e>
     9a8:	80 e4       	ldi	r24, 0x40	; 64
     9aa:	8f b9       	out	0x0f, r24	; 15
     9ac:	77 9b       	sbis	0x0e, 7	; 14
     9ae:	fe cf       	rjmp	.-4      	; 0x9ac <_Z17InitializeProgramv+0x246>
     9b0:	80 91 a4 02 	lds	r24, 0x02A4	; 0x8002a4 <debugDisplay+0x11>
     9b4:	8f b9       	out	0x0f, r24	; 15
     9b6:	77 9b       	sbis	0x0e, 7	; 14
     9b8:	fe cf       	rjmp	.-4      	; 0x9b6 <_Z17InitializeProgramv+0x250>
     9ba:	8f ef       	ldi	r24, 0xFF	; 255
     9bc:	8f b9       	out	0x0f, r24	; 15
     9be:	77 9b       	sbis	0x0e, 7	; 14
     9c0:	fe cf       	rjmp	.-4      	; 0x9be <_Z17InitializeProgramv+0x258>
     9c2:	80 91 a5 02 	lds	r24, 0x02A5	; 0x8002a5 <debugDisplay+0x12>
     9c6:	8f b9       	out	0x0f, r24	; 15
     9c8:	77 9b       	sbis	0x0e, 7	; 14
     9ca:	fe cf       	rjmp	.-4      	; 0x9c8 <_Z17InitializeProgramv+0x262>
     9cc:	80 91 a7 02 	lds	r24, 0x02A7	; 0x8002a7 <debugDisplay+0x14>
     9d0:	8f b9       	out	0x0f, r24	; 15
     9d2:	77 9b       	sbis	0x0e, 7	; 14
     9d4:	fe cf       	rjmp	.-4      	; 0x9d2 <_Z17InitializeProgramv+0x26c>
     9d6:	80 91 aa 02 	lds	r24, 0x02AA	; 0x8002aa <debugDisplay+0x17>
     9da:	8f b9       	out	0x0f, r24	; 15
     9dc:	77 9b       	sbis	0x0e, 7	; 14
     9de:	fe cf       	rjmp	.-4      	; 0x9dc <_Z17InitializeProgramv+0x276>
     9e0:	c0 eb       	ldi	r28, 0xB0	; 176
     9e2:	80 91 93 02 	lds	r24, 0x0293	; 0x800293 <debugDisplay>
     9e6:	90 91 94 02 	lds	r25, 0x0294	; 0x800294 <debugDisplay+0x1>
     9ea:	dc 01       	movw	r26, r24
     9ec:	ed 91       	ld	r30, X+
     9ee:	fc 91       	ld	r31, X
     9f0:	00 88       	ldd	r0, Z+16	; 0x10
     9f2:	f1 89       	ldd	r31, Z+17	; 0x11
     9f4:	e0 2d       	mov	r30, r0
     9f6:	09 95       	icall
     9f8:	80 91 b1 02 	lds	r24, 0x02B1	; 0x8002b1 <debugDisplay+0x1e>
     9fc:	8f b9       	out	0x0f, r24	; 15
     9fe:	77 9b       	sbis	0x0e, 7	; 14
     a00:	fe cf       	rjmp	.-4      	; 0x9fe <_Z17InitializeProgramv+0x298>
     a02:	cf b9       	out	0x0f, r28	; 15
     a04:	77 9b       	sbis	0x0e, 7	; 14
     a06:	fe cf       	rjmp	.-4      	; 0xa04 <_Z17InitializeProgramv+0x29e>
     a08:	80 91 b2 02 	lds	r24, 0x02B2	; 0x8002b2 <debugDisplay+0x1f>
     a0c:	8f b9       	out	0x0f, r24	; 15
     a0e:	77 9b       	sbis	0x0e, 7	; 14
     a10:	fe cf       	rjmp	.-4      	; 0xa0e <_Z17InitializeProgramv+0x2a8>
     a12:	80 91 93 02 	lds	r24, 0x0293	; 0x800293 <debugDisplay>
     a16:	90 91 94 02 	lds	r25, 0x0294	; 0x800294 <debugDisplay+0x1>
     a1a:	dc 01       	movw	r26, r24
     a1c:	ed 91       	ld	r30, X+
     a1e:	fc 91       	ld	r31, X
     a20:	06 84       	ldd	r0, Z+14	; 0x0e
     a22:	f7 85       	ldd	r31, Z+15	; 0x0f
     a24:	e0 2d       	mov	r30, r0
     a26:	09 95       	icall
     a28:	80 e8       	ldi	r24, 0x80	; 128
     a2a:	90 e0       	ldi	r25, 0x00	; 0
     a2c:	1f b8       	out	0x0f, r1	; 15
     a2e:	77 9b       	sbis	0x0e, 7	; 14
     a30:	fe cf       	rjmp	.-4      	; 0xa2e <_Z17InitializeProgramv+0x2c8>
     a32:	01 97       	sbiw	r24, 0x01	; 1
     a34:	d9 f7       	brne	.-10     	; 0xa2c <_Z17InitializeProgramv+0x2c6>
     a36:	80 91 93 02 	lds	r24, 0x0293	; 0x800293 <debugDisplay>
     a3a:	90 91 94 02 	lds	r25, 0x0294	; 0x800294 <debugDisplay+0x1>
     a3e:	dc 01       	movw	r26, r24
     a40:	ed 91       	ld	r30, X+
     a42:	fc 91       	ld	r31, X
     a44:	00 88       	ldd	r0, Z+16	; 0x10
     a46:	f1 89       	ldd	r31, Z+17	; 0x11
     a48:	e0 2d       	mov	r30, r0
     a4a:	09 95       	icall
     a4c:	cf 5f       	subi	r28, 0xFF	; 255
     a4e:	c8 3b       	cpi	r28, 0xB8	; 184
     a50:	41 f6       	brne	.-112    	; 0x9e2 <_Z17InitializeProgramv+0x27c>
     a52:	80 91 99 02 	lds	r24, 0x0299	; 0x800299 <debugDisplay+0x6>
     a56:	90 91 9a 02 	lds	r25, 0x029A	; 0x80029a <debugDisplay+0x7>
     a5a:	dc 01       	movw	r26, r24
     a5c:	ed 91       	ld	r30, X+
     a5e:	fc 91       	ld	r31, X
     a60:	06 84       	ldd	r0, Z+14	; 0x0e
     a62:	f7 85       	ldd	r31, Z+15	; 0x0f
     a64:	e0 2d       	mov	r30, r0
     a66:	09 95       	icall
     a68:	80 91 8b 02 	lds	r24, 0x028B	; 0x80028b <AS5048AChip+0x8>
     a6c:	90 91 8c 02 	lds	r25, 0x028C	; 0x80028c <AS5048AChip+0x9>
     a70:	dc 01       	movw	r26, r24
     a72:	ed 91       	ld	r30, X+
     a74:	fc 91       	ld	r31, X
     a76:	04 88       	ldd	r0, Z+20	; 0x14
     a78:	f5 89       	ldd	r31, Z+21	; 0x15
     a7a:	e0 2d       	mov	r30, r0
     a7c:	09 95       	icall
     a7e:	80 91 8f 02 	lds	r24, 0x028F	; 0x80028f <AS5048AChip+0xc>
     a82:	90 91 90 02 	lds	r25, 0x0290	; 0x800290 <AS5048AChip+0xd>
     a86:	dc 01       	movw	r26, r24
     a88:	ed 91       	ld	r30, X+
     a8a:	fc 91       	ld	r31, X
     a8c:	06 88       	ldd	r0, Z+22	; 0x16
     a8e:	f7 89       	ldd	r31, Z+23	; 0x17
     a90:	e0 2d       	mov	r30, r0
     a92:	09 95       	icall
     a94:	80 91 89 02 	lds	r24, 0x0289	; 0x800289 <AS5048AChip+0x6>
     a98:	90 91 8a 02 	lds	r25, 0x028A	; 0x80028a <AS5048AChip+0x7>
     a9c:	dc 01       	movw	r26, r24
     a9e:	ed 91       	ld	r30, X+
     aa0:	fc 91       	ld	r31, X
     aa2:	04 88       	ldd	r0, Z+20	; 0x14
     aa4:	f5 89       	ldd	r31, Z+21	; 0x15
     aa6:	e0 2d       	mov	r30, r0
     aa8:	09 95       	icall
     aaa:	80 91 8d 02 	lds	r24, 0x028D	; 0x80028d <AS5048AChip+0xa>
     aae:	90 91 8e 02 	lds	r25, 0x028E	; 0x80028e <AS5048AChip+0xb>
     ab2:	dc 01       	movw	r26, r24
     ab4:	ed 91       	ld	r30, X+
     ab6:	fc 91       	ld	r31, X
     ab8:	04 88       	ldd	r0, Z+20	; 0x14
     aba:	f5 89       	ldd	r31, Z+21	; 0x15
     abc:	e0 2d       	mov	r30, r0
     abe:	09 95       	icall
     ac0:	80 91 91 02 	lds	r24, 0x0291	; 0x800291 <AS5048AChip+0xe>
     ac4:	90 91 92 02 	lds	r25, 0x0292	; 0x800292 <AS5048AChip+0xf>
     ac8:	dc 01       	movw	r26, r24
     aca:	ed 91       	ld	r30, X+
     acc:	fc 91       	ld	r31, X
     ace:	04 88       	ldd	r0, Z+20	; 0x14
     ad0:	f5 89       	ldd	r31, Z+21	; 0x15
     ad2:	e0 2d       	mov	r30, r0
     ad4:	09 95       	icall
     ad6:	80 91 8b 02 	lds	r24, 0x028B	; 0x80028b <AS5048AChip+0x8>
     ada:	90 91 8c 02 	lds	r25, 0x028C	; 0x80028c <AS5048AChip+0x9>
     ade:	dc 01       	movw	r26, r24
     ae0:	ed 91       	ld	r30, X+
     ae2:	fc 91       	ld	r31, X
     ae4:	06 84       	ldd	r0, Z+14	; 0x0e
     ae6:	f7 85       	ldd	r31, Z+15	; 0x0f
     ae8:	e0 2d       	mov	r30, r0
     aea:	09 95       	icall
     aec:	1d b8       	out	0x0d, r1	; 13
     aee:	6c 9a       	sbi	0x0d, 4	; 13
     af0:	6e 9a       	sbi	0x0d, 6	; 13
     af2:	8e b1       	in	r24, 0x0e	; 14
     af4:	8e b9       	out	0x0e, r24	; 14
     af6:	80 91 8b 02 	lds	r24, 0x028B	; 0x80028b <AS5048AChip+0x8>
     afa:	90 91 8c 02 	lds	r25, 0x028C	; 0x80028c <AS5048AChip+0x9>
     afe:	dc 01       	movw	r26, r24
     b00:	ed 91       	ld	r30, X+
     b02:	fc 91       	ld	r31, X
     b04:	00 88       	ldd	r0, Z+16	; 0x10
     b06:	f1 89       	ldd	r31, Z+17	; 0x11
     b08:	e0 2d       	mov	r30, r0
     b0a:	09 95       	icall
     b0c:	8f ef       	ldi	r24, 0xFF	; 255
     b0e:	8f b9       	out	0x0f, r24	; 15
     b10:	77 9b       	sbis	0x0e, 7	; 14
     b12:	fe cf       	rjmp	.-4      	; 0xb10 <_Z17InitializeProgramv+0x3aa>
     b14:	8f ef       	ldi	r24, 0xFF	; 255
     b16:	8f b9       	out	0x0f, r24	; 15
     b18:	77 9b       	sbis	0x0e, 7	; 14
     b1a:	fe cf       	rjmp	.-4      	; 0xb18 <_Z17InitializeProgramv+0x3b2>
     b1c:	80 91 8b 02 	lds	r24, 0x028B	; 0x80028b <AS5048AChip+0x8>
     b20:	90 91 8c 02 	lds	r25, 0x028C	; 0x80028c <AS5048AChip+0x9>
     b24:	dc 01       	movw	r26, r24
     b26:	ed 91       	ld	r30, X+
     b28:	fc 91       	ld	r31, X
     b2a:	06 84       	ldd	r0, Z+14	; 0x0e
     b2c:	f7 85       	ldd	r31, Z+15	; 0x0f
     b2e:	e0 2d       	mov	r30, r0
     b30:	09 95       	icall
     b32:	80 91 8b 02 	lds	r24, 0x028B	; 0x80028b <AS5048AChip+0x8>
     b36:	90 91 8c 02 	lds	r25, 0x028C	; 0x80028c <AS5048AChip+0x9>
     b3a:	dc 01       	movw	r26, r24
     b3c:	ed 91       	ld	r30, X+
     b3e:	fc 91       	ld	r31, X
     b40:	06 84       	ldd	r0, Z+14	; 0x0e
     b42:	f7 85       	ldd	r31, Z+15	; 0x0f
     b44:	e0 2d       	mov	r30, r0
     b46:	09 95       	icall
     b48:	80 91 99 02 	lds	r24, 0x0299	; 0x800299 <debugDisplay+0x6>
     b4c:	90 91 9a 02 	lds	r25, 0x029A	; 0x80029a <debugDisplay+0x7>
     b50:	dc 01       	movw	r26, r24
     b52:	ed 91       	ld	r30, X+
     b54:	fc 91       	ld	r31, X
     b56:	00 88       	ldd	r0, Z+16	; 0x10
     b58:	f1 89       	ldd	r31, Z+17	; 0x11
     b5a:	e0 2d       	mov	r30, r0
     b5c:	09 95       	icall
     b5e:	84 e6       	ldi	r24, 0x64	; 100
     b60:	90 e0       	ldi	r25, 0x00	; 0
     b62:	90 93 7a 02 	sts	0x027A, r25	; 0x80027a <getFirstKeyboardByte+0x3>
     b66:	80 93 79 02 	sts	0x0279, r24	; 0x800279 <getFirstKeyboardByte+0x2>
     b6a:	8f ea       	ldi	r24, 0xAF	; 175
     b6c:	90 e0       	ldi	r25, 0x00	; 0
     b6e:	90 93 76 02 	sts	0x0276, r25	; 0x800276 <getSecondKeyboardByte+0x3>
     b72:	80 93 75 02 	sts	0x0275, r24	; 0x800275 <getSecondKeyboardByte+0x2>
     b76:	83 ee       	ldi	r24, 0xE3	; 227
     b78:	90 e0       	ldi	r25, 0x00	; 0
     b7a:	90 93 72 02 	sts	0x0272, r25	; 0x800272 <setDataTask+0x3>
     b7e:	80 93 71 02 	sts	0x0271, r24	; 0x800271 <setDataTask+0x2>
     b82:	80 91 c6 02 	lds	r24, 0x02C6	; 0x8002c6 <_ZL11Taskmanager>
     b86:	90 91 c7 02 	lds	r25, 0x02C7	; 0x8002c7 <_ZL11Taskmanager+0x1>
     b8a:	89 2b       	or	r24, r25
     b8c:	09 f4       	brne	.+2      	; 0xb90 <_Z17InitializeProgramv+0x42a>
     b8e:	35 c1       	rjmp	.+618    	; 0xdfa <_Z17InitializeProgramv+0x694>
     b90:	80 91 c8 02 	lds	r24, 0x02C8	; 0x8002c8 <_ZL11Taskmanager+0x2>
     b94:	90 91 c9 02 	lds	r25, 0x02C9	; 0x8002c9 <_ZL11Taskmanager+0x3>
     b98:	00 97       	sbiw	r24, 0x00	; 0
     b9a:	09 f4       	brne	.+2      	; 0xb9e <_Z17InitializeProgramv+0x438>
     b9c:	2b c1       	rjmp	.+598    	; 0xdf4 <_Z17InitializeProgramv+0x68e>
     b9e:	20 91 ca 02 	lds	r18, 0x02CA	; 0x8002ca <_ZL11Taskmanager+0x4>
     ba2:	30 91 cb 02 	lds	r19, 0x02CB	; 0x8002cb <_ZL11Taskmanager+0x5>
     ba6:	23 2b       	or	r18, r19
     ba8:	09 f4       	brne	.+2      	; 0xbac <_Z17InitializeProgramv+0x446>
     baa:	21 c1       	rjmp	.+578    	; 0xdee <_Z17InitializeProgramv+0x688>
     bac:	20 91 cc 02 	lds	r18, 0x02CC	; 0x8002cc <_ZL11Taskmanager+0x6>
     bb0:	30 91 cd 02 	lds	r19, 0x02CD	; 0x8002cd <_ZL11Taskmanager+0x7>
     bb4:	23 2b       	or	r18, r19
     bb6:	09 f4       	brne	.+2      	; 0xbba <_Z17InitializeProgramv+0x454>
     bb8:	17 c1       	rjmp	.+558    	; 0xde8 <_Z17InitializeProgramv+0x682>
     bba:	20 91 ce 02 	lds	r18, 0x02CE	; 0x8002ce <_ZL11Taskmanager+0x8>
     bbe:	30 91 cf 02 	lds	r19, 0x02CF	; 0x8002cf <_ZL11Taskmanager+0x9>
     bc2:	23 2b       	or	r18, r19
     bc4:	09 f4       	brne	.+2      	; 0xbc8 <_Z17InitializeProgramv+0x462>
     bc6:	0d c1       	rjmp	.+538    	; 0xde2 <_Z17InitializeProgramv+0x67c>
     bc8:	20 91 d0 02 	lds	r18, 0x02D0	; 0x8002d0 <_ZL11Taskmanager+0xa>
     bcc:	30 91 d1 02 	lds	r19, 0x02D1	; 0x8002d1 <_ZL11Taskmanager+0xb>
     bd0:	23 2b       	or	r18, r19
     bd2:	09 f4       	brne	.+2      	; 0xbd6 <_Z17InitializeProgramv+0x470>
     bd4:	03 c1       	rjmp	.+518    	; 0xddc <_Z17InitializeProgramv+0x676>
     bd6:	20 91 d2 02 	lds	r18, 0x02D2	; 0x8002d2 <_ZL11Taskmanager+0xc>
     bda:	30 91 d3 02 	lds	r19, 0x02D3	; 0x8002d3 <_ZL11Taskmanager+0xd>
     bde:	23 2b       	or	r18, r19
     be0:	09 f4       	brne	.+2      	; 0xbe4 <_Z17InitializeProgramv+0x47e>
     be2:	f4 c0       	rjmp	.+488    	; 0xdcc <_Z17InitializeProgramv+0x666>
     be4:	20 91 d4 02 	lds	r18, 0x02D4	; 0x8002d4 <_ZL11Taskmanager+0xe>
     be8:	30 91 d5 02 	lds	r19, 0x02D5	; 0x8002d5 <_ZL11Taskmanager+0xf>
     bec:	23 2b       	or	r18, r19
     bee:	09 f4       	brne	.+2      	; 0xbf2 <_Z17InitializeProgramv+0x48c>
     bf0:	d5 c0       	rjmp	.+426    	; 0xd9c <_Z17InitializeProgramv+0x636>
     bf2:	89 2b       	or	r24, r25
     bf4:	09 f4       	brne	.+2      	; 0xbf8 <_Z17InitializeProgramv+0x492>
     bf6:	cf c0       	rjmp	.+414    	; 0xd96 <_Z17InitializeProgramv+0x630>
     bf8:	80 91 ca 02 	lds	r24, 0x02CA	; 0x8002ca <_ZL11Taskmanager+0x4>
     bfc:	90 91 cb 02 	lds	r25, 0x02CB	; 0x8002cb <_ZL11Taskmanager+0x5>
     c00:	89 2b       	or	r24, r25
     c02:	09 f4       	brne	.+2      	; 0xc06 <_Z17InitializeProgramv+0x4a0>
     c04:	c5 c0       	rjmp	.+394    	; 0xd90 <_Z17InitializeProgramv+0x62a>
     c06:	80 91 cc 02 	lds	r24, 0x02CC	; 0x8002cc <_ZL11Taskmanager+0x6>
     c0a:	90 91 cd 02 	lds	r25, 0x02CD	; 0x8002cd <_ZL11Taskmanager+0x7>
     c0e:	89 2b       	or	r24, r25
     c10:	09 f4       	brne	.+2      	; 0xc14 <_Z17InitializeProgramv+0x4ae>
     c12:	bb c0       	rjmp	.+374    	; 0xd8a <_Z17InitializeProgramv+0x624>
     c14:	80 91 ce 02 	lds	r24, 0x02CE	; 0x8002ce <_ZL11Taskmanager+0x8>
     c18:	90 91 cf 02 	lds	r25, 0x02CF	; 0x8002cf <_ZL11Taskmanager+0x9>
     c1c:	89 2b       	or	r24, r25
     c1e:	09 f4       	brne	.+2      	; 0xc22 <_Z17InitializeProgramv+0x4bc>
     c20:	b1 c0       	rjmp	.+354    	; 0xd84 <_Z17InitializeProgramv+0x61e>
     c22:	80 91 d0 02 	lds	r24, 0x02D0	; 0x8002d0 <_ZL11Taskmanager+0xa>
     c26:	90 91 d1 02 	lds	r25, 0x02D1	; 0x8002d1 <_ZL11Taskmanager+0xb>
     c2a:	89 2b       	or	r24, r25
     c2c:	09 f4       	brne	.+2      	; 0xc30 <_Z17InitializeProgramv+0x4ca>
     c2e:	a7 c0       	rjmp	.+334    	; 0xd7e <_Z17InitializeProgramv+0x618>
     c30:	80 91 d2 02 	lds	r24, 0x02D2	; 0x8002d2 <_ZL11Taskmanager+0xc>
     c34:	90 91 d3 02 	lds	r25, 0x02D3	; 0x8002d3 <_ZL11Taskmanager+0xd>
     c38:	89 2b       	or	r24, r25
     c3a:	09 f4       	brne	.+2      	; 0xc3e <_Z17InitializeProgramv+0x4d8>
     c3c:	9d c0       	rjmp	.+314    	; 0xd78 <_Z17InitializeProgramv+0x612>
     c3e:	80 91 d4 02 	lds	r24, 0x02D4	; 0x8002d4 <_ZL11Taskmanager+0xe>
     c42:	90 91 d5 02 	lds	r25, 0x02D5	; 0x8002d5 <_ZL11Taskmanager+0xf>
     c46:	89 2b       	or	r24, r25
     c48:	09 f4       	brne	.+2      	; 0xc4c <_Z17InitializeProgramv+0x4e6>
     c4a:	86 c0       	rjmp	.+268    	; 0xd58 <_Z17InitializeProgramv+0x5f2>
     c4c:	87 e0       	ldi	r24, 0x07	; 7
     c4e:	8c bf       	out	0x3c, r24	; 60
     c50:	83 b7       	in	r24, 0x33	; 51
     c52:	8e 7f       	andi	r24, 0xFE	; 254
     c54:	83 bf       	out	0x33, r24	; 51
     c56:	83 b7       	in	r24, 0x33	; 51
     c58:	88 60       	ori	r24, 0x08	; 8
     c5a:	83 bf       	out	0x33, r24	; 51
     c5c:	89 b7       	in	r24, 0x39	; 57
     c5e:	8e 7f       	andi	r24, 0xFE	; 254
     c60:	89 bf       	out	0x39, r24	; 57
     c62:	89 b7       	in	r24, 0x39	; 57
     c64:	82 60       	ori	r24, 0x02	; 2
     c66:	89 bf       	out	0x39, r24	; 57
     c68:	83 b7       	in	r24, 0x33	; 51
     c6a:	88 7f       	andi	r24, 0xF8	; 248
     c6c:	83 bf       	out	0x33, r24	; 51
     c6e:	83 b7       	in	r24, 0x33	; 51
     c70:	84 60       	ori	r24, 0x04	; 4
     c72:	83 bf       	out	0x33, r24	; 51
     c74:	78 94       	sei
     c76:	80 91 7b 02 	lds	r24, 0x027B	; 0x80027b <wheelButtons>
     c7a:	90 91 7c 02 	lds	r25, 0x027C	; 0x80027c <wheelButtons+0x1>
     c7e:	dc 01       	movw	r26, r24
     c80:	ed 91       	ld	r30, X+
     c82:	fc 91       	ld	r31, X
     c84:	04 88       	ldd	r0, Z+20	; 0x14
     c86:	f5 89       	ldd	r31, Z+21	; 0x15
     c88:	e0 2d       	mov	r30, r0
     c8a:	09 95       	icall
     c8c:	80 91 7d 02 	lds	r24, 0x027D	; 0x80027d <wheelButtons+0x2>
     c90:	90 91 7e 02 	lds	r25, 0x027E	; 0x80027e <wheelButtons+0x3>
     c94:	dc 01       	movw	r26, r24
     c96:	ed 91       	ld	r30, X+
     c98:	fc 91       	ld	r31, X
     c9a:	04 88       	ldd	r0, Z+20	; 0x14
     c9c:	f5 89       	ldd	r31, Z+21	; 0x15
     c9e:	e0 2d       	mov	r30, r0
     ca0:	09 95       	icall
     ca2:	80 91 7f 02 	lds	r24, 0x027F	; 0x80027f <wheelButtons+0x4>
     ca6:	90 91 80 02 	lds	r25, 0x0280	; 0x800280 <wheelButtons+0x5>
     caa:	dc 01       	movw	r26, r24
     cac:	ed 91       	ld	r30, X+
     cae:	fc 91       	ld	r31, X
     cb0:	06 88       	ldd	r0, Z+22	; 0x16
     cb2:	f7 89       	ldd	r31, Z+23	; 0x17
     cb4:	e0 2d       	mov	r30, r0
     cb6:	09 95       	icall
     cb8:	80 91 7d 02 	lds	r24, 0x027D	; 0x80027d <wheelButtons+0x2>
     cbc:	90 91 7e 02 	lds	r25, 0x027E	; 0x80027e <wheelButtons+0x3>
     cc0:	dc 01       	movw	r26, r24
     cc2:	ed 91       	ld	r30, X+
     cc4:	fc 91       	ld	r31, X
     cc6:	00 88       	ldd	r0, Z+16	; 0x10
     cc8:	f1 89       	ldd	r31, Z+17	; 0x11
     cca:	e0 2d       	mov	r30, r0
     ccc:	09 95       	icall
     cce:	80 91 6d 02 	lds	r24, 0x026D	; 0x80026d <calibrateStage>
     cd2:	90 91 6e 02 	lds	r25, 0x026E	; 0x80026e <calibrateStage+0x1>
     cd6:	81 30       	cpi	r24, 0x01	; 1
     cd8:	91 05       	cpc	r25, r1
     cda:	89 f1       	breq	.+98     	; 0xd3e <_Z17InitializeProgramv+0x5d8>
     cdc:	1c f1       	brlt	.+70     	; 0xd24 <_Z17InitializeProgramv+0x5be>
     cde:	82 30       	cpi	r24, 0x02	; 2
     ce0:	91 05       	cpc	r25, r1
     ce2:	89 f0       	breq	.+34     	; 0xd06 <_Z17InitializeProgramv+0x5a0>
     ce4:	03 97       	sbiw	r24, 0x03	; 3
     ce6:	21 f4       	brne	.+8      	; 0xcf0 <_Z17InitializeProgramv+0x58a>
     ce8:	10 92 6e 02 	sts	0x026E, r1	; 0x80026e <calibrateStage+0x1>
     cec:	10 92 6d 02 	sts	0x026D, r1	; 0x80026d <calibrateStage>
     cf0:	8f ef       	ldi	r24, 0xFF	; 255
     cf2:	84 bb       	out	0x14, r24	; 20
     cf4:	15 ba       	out	0x15, r1	; 21
     cf6:	11 ba       	out	0x11, r1	; 17
     cf8:	12 ba       	out	0x12, r1	; 18
     cfa:	80 e4       	ldi	r24, 0x40	; 64
     cfc:	8b bf       	out	0x3b, r24	; 59
     cfe:	83 e0       	ldi	r24, 0x03	; 3
     d00:	85 bf       	out	0x35, r24	; 53
     d02:	cf 91       	pop	r28
     d04:	08 95       	ret
     d06:	83 e0       	ldi	r24, 0x03	; 3
     d08:	90 e0       	ldi	r25, 0x00	; 0
     d0a:	90 93 6e 02 	sts	0x026E, r25	; 0x80026e <calibrateStage+0x1>
     d0e:	80 93 6d 02 	sts	0x026D, r24	; 0x80026d <calibrateStage>
     d12:	80 91 83 02 	lds	r24, 0x0283	; 0x800283 <AS5048AChip>
     d16:	90 91 84 02 	lds	r25, 0x0284	; 0x800284 <AS5048AChip+0x1>
     d1a:	90 93 c5 02 	sts	0x02C5, r25	; 0x8002c5 <_ZL11RotateLimit+0x1>
     d1e:	80 93 c4 02 	sts	0x02C4, r24	; 0x8002c4 <_ZL11RotateLimit>
     d22:	e6 cf       	rjmp	.-52     	; 0xcf0 <_Z17InitializeProgramv+0x58a>
     d24:	89 2b       	or	r24, r25
     d26:	21 f7       	brne	.-56     	; 0xcf0 <_Z17InitializeProgramv+0x58a>
     d28:	81 e0       	ldi	r24, 0x01	; 1
     d2a:	90 e0       	ldi	r25, 0x00	; 0
     d2c:	90 93 6e 02 	sts	0x026E, r25	; 0x80026e <calibrateStage+0x1>
     d30:	80 93 6d 02 	sts	0x026D, r24	; 0x80026d <calibrateStage>
     d34:	8f ef       	ldi	r24, 0xFF	; 255
     d36:	93 e0       	ldi	r25, 0x03	; 3
     d38:	97 bd       	out	0x27, r25	; 39
     d3a:	86 bd       	out	0x26, r24	; 38
     d3c:	d9 cf       	rjmp	.-78     	; 0xcf0 <_Z17InitializeProgramv+0x58a>
     d3e:	10 92 87 02 	sts	0x0287, r1	; 0x800287 <AS5048AChip+0x4>
     d42:	80 91 85 02 	lds	r24, 0x0285	; 0x800285 <AS5048AChip+0x2>
     d46:	80 93 88 02 	sts	0x0288, r24	; 0x800288 <AS5048AChip+0x5>
     d4a:	82 e0       	ldi	r24, 0x02	; 2
     d4c:	90 e0       	ldi	r25, 0x00	; 0
     d4e:	90 93 6e 02 	sts	0x026E, r25	; 0x80026e <calibrateStage+0x1>
     d52:	80 93 6d 02 	sts	0x026D, r24	; 0x80026d <calibrateStage>
     d56:	cc cf       	rjmp	.-104    	; 0xcf0 <_Z17InitializeProgramv+0x58a>
     d58:	87 e0       	ldi	r24, 0x07	; 7
     d5a:	90 e0       	ldi	r25, 0x00	; 0
     d5c:	fc 01       	movw	r30, r24
     d5e:	ee 0f       	add	r30, r30
     d60:	ff 1f       	adc	r31, r31
     d62:	ea 53       	subi	r30, 0x3A	; 58
     d64:	fd 4f       	sbci	r31, 0xFD	; 253
     d66:	23 e7       	ldi	r18, 0x73	; 115
     d68:	32 e0       	ldi	r19, 0x02	; 2
     d6a:	31 83       	std	Z+1, r19	; 0x01
     d6c:	20 83       	st	Z, r18
     d6e:	90 93 74 02 	sts	0x0274, r25	; 0x800274 <getSecondKeyboardByte+0x1>
     d72:	80 93 73 02 	sts	0x0273, r24	; 0x800273 <getSecondKeyboardByte>
     d76:	6a cf       	rjmp	.-300    	; 0xc4c <_Z17InitializeProgramv+0x4e6>
     d78:	86 e0       	ldi	r24, 0x06	; 6
     d7a:	90 e0       	ldi	r25, 0x00	; 0
     d7c:	ef cf       	rjmp	.-34     	; 0xd5c <_Z17InitializeProgramv+0x5f6>
     d7e:	85 e0       	ldi	r24, 0x05	; 5
     d80:	90 e0       	ldi	r25, 0x00	; 0
     d82:	ec cf       	rjmp	.-40     	; 0xd5c <_Z17InitializeProgramv+0x5f6>
     d84:	84 e0       	ldi	r24, 0x04	; 4
     d86:	90 e0       	ldi	r25, 0x00	; 0
     d88:	e9 cf       	rjmp	.-46     	; 0xd5c <_Z17InitializeProgramv+0x5f6>
     d8a:	83 e0       	ldi	r24, 0x03	; 3
     d8c:	90 e0       	ldi	r25, 0x00	; 0
     d8e:	e6 cf       	rjmp	.-52     	; 0xd5c <_Z17InitializeProgramv+0x5f6>
     d90:	82 e0       	ldi	r24, 0x02	; 2
     d92:	90 e0       	ldi	r25, 0x00	; 0
     d94:	e3 cf       	rjmp	.-58     	; 0xd5c <_Z17InitializeProgramv+0x5f6>
     d96:	81 e0       	ldi	r24, 0x01	; 1
     d98:	90 e0       	ldi	r25, 0x00	; 0
     d9a:	e0 cf       	rjmp	.-64     	; 0xd5c <_Z17InitializeProgramv+0x5f6>
     d9c:	87 e0       	ldi	r24, 0x07	; 7
     d9e:	90 e0       	ldi	r25, 0x00	; 0
     da0:	fc 01       	movw	r30, r24
     da2:	ee 0f       	add	r30, r30
     da4:	ff 1f       	adc	r31, r31
     da6:	ea 53       	subi	r30, 0x3A	; 58
     da8:	fd 4f       	sbci	r31, 0xFD	; 253
     daa:	27 e7       	ldi	r18, 0x77	; 119
     dac:	32 e0       	ldi	r19, 0x02	; 2
     dae:	31 83       	std	Z+1, r19	; 0x01
     db0:	20 83       	st	Z, r18
     db2:	90 93 78 02 	sts	0x0278, r25	; 0x800278 <getFirstKeyboardByte+0x1>
     db6:	80 93 77 02 	sts	0x0277, r24	; 0x800277 <getFirstKeyboardByte>
     dba:	80 91 c6 02 	lds	r24, 0x02C6	; 0x8002c6 <_ZL11Taskmanager>
     dbe:	90 91 c7 02 	lds	r25, 0x02C7	; 0x8002c7 <_ZL11Taskmanager+0x1>
     dc2:	89 2b       	or	r24, r25
     dc4:	31 f4       	brne	.+12     	; 0xdd2 <_Z17InitializeProgramv+0x66c>
     dc6:	80 e0       	ldi	r24, 0x00	; 0
     dc8:	90 e0       	ldi	r25, 0x00	; 0
     dca:	c8 cf       	rjmp	.-112    	; 0xd5c <_Z17InitializeProgramv+0x5f6>
     dcc:	86 e0       	ldi	r24, 0x06	; 6
     dce:	90 e0       	ldi	r25, 0x00	; 0
     dd0:	e7 cf       	rjmp	.-50     	; 0xda0 <_Z17InitializeProgramv+0x63a>
     dd2:	80 91 c8 02 	lds	r24, 0x02C8	; 0x8002c8 <_ZL11Taskmanager+0x2>
     dd6:	90 91 c9 02 	lds	r25, 0x02C9	; 0x8002c9 <_ZL11Taskmanager+0x3>
     dda:	0b cf       	rjmp	.-490    	; 0xbf2 <_Z17InitializeProgramv+0x48c>
     ddc:	85 e0       	ldi	r24, 0x05	; 5
     dde:	90 e0       	ldi	r25, 0x00	; 0
     de0:	df cf       	rjmp	.-66     	; 0xda0 <_Z17InitializeProgramv+0x63a>
     de2:	84 e0       	ldi	r24, 0x04	; 4
     de4:	90 e0       	ldi	r25, 0x00	; 0
     de6:	dc cf       	rjmp	.-72     	; 0xda0 <_Z17InitializeProgramv+0x63a>
     de8:	83 e0       	ldi	r24, 0x03	; 3
     dea:	90 e0       	ldi	r25, 0x00	; 0
     dec:	d9 cf       	rjmp	.-78     	; 0xda0 <_Z17InitializeProgramv+0x63a>
     dee:	82 e0       	ldi	r24, 0x02	; 2
     df0:	90 e0       	ldi	r25, 0x00	; 0
     df2:	d6 cf       	rjmp	.-84     	; 0xda0 <_Z17InitializeProgramv+0x63a>
     df4:	81 e0       	ldi	r24, 0x01	; 1
     df6:	90 e0       	ldi	r25, 0x00	; 0
     df8:	d3 cf       	rjmp	.-90     	; 0xda0 <_Z17InitializeProgramv+0x63a>
     dfa:	80 e0       	ldi	r24, 0x00	; 0
     dfc:	90 e0       	ldi	r25, 0x00	; 0
     dfe:	d0 cf       	rjmp	.-96     	; 0xda0 <_Z17InitializeProgramv+0x63a>

00000e00 <_Z5Debugv>:
     e00:	af 92       	push	r10
     e02:	bf 92       	push	r11
     e04:	cf 92       	push	r12
     e06:	df 92       	push	r13
     e08:	ef 92       	push	r14
     e0a:	ff 92       	push	r15
     e0c:	0f 93       	push	r16
     e0e:	1f 93       	push	r17
     e10:	cf 93       	push	r28
     e12:	df 93       	push	r29
     e14:	60 91 6c 02 	lds	r22, 0x026C	; 0x80026c <debugVar>
     e18:	83 e9       	ldi	r24, 0x93	; 147
     e1a:	92 e0       	ldi	r25, 0x02	; 2
     e1c:	0e 94 46 0b 	call	0x168c	; 0x168c <_ZN6Sh110617PrintDebugMessageEh>
     e20:	80 91 93 02 	lds	r24, 0x0293	; 0x800293 <debugDisplay>
     e24:	90 91 94 02 	lds	r25, 0x0294	; 0x800294 <debugDisplay+0x1>
     e28:	dc 01       	movw	r26, r24
     e2a:	ed 91       	ld	r30, X+
     e2c:	fc 91       	ld	r31, X
     e2e:	00 88       	ldd	r0, Z+16	; 0x10
     e30:	f1 89       	ldd	r31, Z+17	; 0x11
     e32:	e0 2d       	mov	r30, r0
     e34:	09 95       	icall
     e36:	80 91 b1 02 	lds	r24, 0x02B1	; 0x8002b1 <debugDisplay+0x1e>
     e3a:	8f b9       	out	0x0f, r24	; 15
     e3c:	77 9b       	sbis	0x0e, 7	; 14
     e3e:	fe cf       	rjmp	.-4      	; 0xe3c <_Z5Debugv+0x3c>
     e40:	86 eb       	ldi	r24, 0xB6	; 182
     e42:	8f b9       	out	0x0f, r24	; 15
     e44:	77 9b       	sbis	0x0e, 7	; 14
     e46:	fe cf       	rjmp	.-4      	; 0xe44 <_Z5Debugv+0x44>
     e48:	80 91 b2 02 	lds	r24, 0x02B2	; 0x8002b2 <debugDisplay+0x1f>
     e4c:	8f b9       	out	0x0f, r24	; 15
     e4e:	77 9b       	sbis	0x0e, 7	; 14
     e50:	fe cf       	rjmp	.-4      	; 0xe4e <_Z5Debugv+0x4e>
     e52:	80 91 93 02 	lds	r24, 0x0293	; 0x800293 <debugDisplay>
     e56:	90 91 94 02 	lds	r25, 0x0294	; 0x800294 <debugDisplay+0x1>
     e5a:	dc 01       	movw	r26, r24
     e5c:	ed 91       	ld	r30, X+
     e5e:	fc 91       	ld	r31, X
     e60:	06 84       	ldd	r0, Z+14	; 0x0e
     e62:	f7 85       	ldd	r31, Z+15	; 0x0f
     e64:	e0 2d       	mov	r30, r0
     e66:	09 95       	icall
     e68:	1f b8       	out	0x0f, r1	; 15
     e6a:	77 9b       	sbis	0x0e, 7	; 14
     e6c:	fe cf       	rjmp	.-4      	; 0xe6a <_Z5Debugv+0x6a>
     e6e:	a0 90 83 02 	lds	r10, 0x0283	; 0x800283 <AS5048AChip>
     e72:	b0 90 84 02 	lds	r11, 0x0284	; 0x800284 <AS5048AChip+0x1>
     e76:	80 91 93 02 	lds	r24, 0x0293	; 0x800293 <debugDisplay>
     e7a:	90 91 94 02 	lds	r25, 0x0294	; 0x800294 <debugDisplay+0x1>
     e7e:	dc 01       	movw	r26, r24
     e80:	ed 91       	ld	r30, X+
     e82:	fc 91       	ld	r31, X
     e84:	06 84       	ldd	r0, Z+14	; 0x0e
     e86:	f7 85       	ldd	r31, Z+15	; 0x0f
     e88:	e0 2d       	mov	r30, r0
     e8a:	09 95       	icall
     e8c:	9b ec       	ldi	r25, 0xCB	; 203
     e8e:	e9 2e       	mov	r14, r25
     e90:	91 e0       	ldi	r25, 0x01	; 1
     e92:	f9 2e       	mov	r15, r25
     e94:	e7 01       	movw	r28, r14
     e96:	ce 01       	movw	r24, r28
     e98:	0e 94 25 1a 	call	0x344a	; 0x344a <eeprom_read_byte>
     e9c:	8f b9       	out	0x0f, r24	; 15
     e9e:	77 9b       	sbis	0x0e, 7	; 14
     ea0:	fe cf       	rjmp	.-4      	; 0xe9e <_Z5Debugv+0x9e>
     ea2:	21 96       	adiw	r28, 0x01	; 1
     ea4:	b1 e0       	ldi	r27, 0x01	; 1
     ea6:	c0 3d       	cpi	r28, 0xD0	; 208
     ea8:	db 07       	cpc	r29, r27
     eaa:	a9 f7       	brne	.-22     	; 0xe96 <_Z5Debugv+0x96>
     eac:	1f b8       	out	0x0f, r1	; 15
     eae:	77 9b       	sbis	0x0e, 7	; 14
     eb0:	fe cf       	rjmp	.-4      	; 0xeae <_Z5Debugv+0xae>
     eb2:	80 91 93 02 	lds	r24, 0x0293	; 0x800293 <debugDisplay>
     eb6:	90 91 94 02 	lds	r25, 0x0294	; 0x800294 <debugDisplay+0x1>
     eba:	dc 01       	movw	r26, r24
     ebc:	ed 91       	ld	r30, X+
     ebe:	fc 91       	ld	r31, X
     ec0:	00 88       	ldd	r0, Z+16	; 0x10
     ec2:	f1 89       	ldd	r31, Z+17	; 0x11
     ec4:	e0 2d       	mov	r30, r0
     ec6:	09 95       	icall
     ec8:	0f e0       	ldi	r16, 0x0F	; 15
     eca:	10 e0       	ldi	r17, 0x00	; 0
     ecc:	cc 24       	eor	r12, r12
     ece:	c3 94       	inc	r12
     ed0:	d1 2c       	mov	r13, r1
     ed2:	c6 01       	movw	r24, r12
     ed4:	00 2e       	mov	r0, r16
     ed6:	02 c0       	rjmp	.+4      	; 0xedc <_Z5Debugv+0xdc>
     ed8:	88 0f       	add	r24, r24
     eda:	99 1f       	adc	r25, r25
     edc:	0a 94       	dec	r0
     ede:	e2 f7       	brpl	.-8      	; 0xed8 <_Z5Debugv+0xd8>
     ee0:	8a 21       	and	r24, r10
     ee2:	9b 21       	and	r25, r11
     ee4:	89 2b       	or	r24, r25
     ee6:	09 f4       	brne	.+2      	; 0xeea <_Z5Debugv+0xea>
     ee8:	5a c0       	rjmp	.+180    	; 0xf9e <_Z5Debugv+0x19e>
     eea:	80 91 93 02 	lds	r24, 0x0293	; 0x800293 <debugDisplay>
     eee:	90 91 94 02 	lds	r25, 0x0294	; 0x800294 <debugDisplay+0x1>
     ef2:	dc 01       	movw	r26, r24
     ef4:	ed 91       	ld	r30, X+
     ef6:	fc 91       	ld	r31, X
     ef8:	06 84       	ldd	r0, Z+14	; 0x0e
     efa:	f7 85       	ldd	r31, Z+15	; 0x0f
     efc:	e0 2d       	mov	r30, r0
     efe:	09 95       	icall
     f00:	c4 e5       	ldi	r28, 0x54	; 84
     f02:	d0 e0       	ldi	r29, 0x00	; 0
     f04:	ce 01       	movw	r24, r28
     f06:	0e 94 25 1a 	call	0x344a	; 0x344a <eeprom_read_byte>
     f0a:	8f b9       	out	0x0f, r24	; 15
     f0c:	77 9b       	sbis	0x0e, 7	; 14
     f0e:	fe cf       	rjmp	.-4      	; 0xf0c <_Z5Debugv+0x10c>
     f10:	21 96       	adiw	r28, 0x01	; 1
     f12:	b0 e0       	ldi	r27, 0x00	; 0
     f14:	c9 35       	cpi	r28, 0x59	; 89
     f16:	db 07       	cpc	r29, r27
     f18:	a9 f7       	brne	.-22     	; 0xf04 <_Z5Debugv+0x104>
     f1a:	1f b8       	out	0x0f, r1	; 15
     f1c:	77 9b       	sbis	0x0e, 7	; 14
     f1e:	fe cf       	rjmp	.-4      	; 0xf1c <_Z5Debugv+0x11c>
     f20:	80 91 93 02 	lds	r24, 0x0293	; 0x800293 <debugDisplay>
     f24:	90 91 94 02 	lds	r25, 0x0294	; 0x800294 <debugDisplay+0x1>
     f28:	dc 01       	movw	r26, r24
     f2a:	ed 91       	ld	r30, X+
     f2c:	fc 91       	ld	r31, X
     f2e:	00 88       	ldd	r0, Z+16	; 0x10
     f30:	f1 89       	ldd	r31, Z+17	; 0x11
     f32:	e0 2d       	mov	r30, r0
     f34:	09 95       	icall
     f36:	01 50       	subi	r16, 0x01	; 1
     f38:	11 09       	sbc	r17, r1
     f3a:	58 f6       	brcc	.-106    	; 0xed2 <_Z5Debugv+0xd2>
     f3c:	80 91 93 02 	lds	r24, 0x0293	; 0x800293 <debugDisplay>
     f40:	90 91 94 02 	lds	r25, 0x0294	; 0x800294 <debugDisplay+0x1>
     f44:	dc 01       	movw	r26, r24
     f46:	ed 91       	ld	r30, X+
     f48:	fc 91       	ld	r31, X
     f4a:	06 84       	ldd	r0, Z+14	; 0x0e
     f4c:	f7 85       	ldd	r31, Z+15	; 0x0f
     f4e:	e0 2d       	mov	r30, r0
     f50:	09 95       	icall
     f52:	c7 01       	movw	r24, r14
     f54:	0e 94 25 1a 	call	0x344a	; 0x344a <eeprom_read_byte>
     f58:	8f b9       	out	0x0f, r24	; 15
     f5a:	77 9b       	sbis	0x0e, 7	; 14
     f5c:	fe cf       	rjmp	.-4      	; 0xf5a <_Z5Debugv+0x15a>
     f5e:	bf ef       	ldi	r27, 0xFF	; 255
     f60:	eb 1a       	sub	r14, r27
     f62:	fb 0a       	sbc	r15, r27
     f64:	80 ed       	ldi	r24, 0xD0	; 208
     f66:	e8 16       	cp	r14, r24
     f68:	81 e0       	ldi	r24, 0x01	; 1
     f6a:	f8 06       	cpc	r15, r24
     f6c:	91 f7       	brne	.-28     	; 0xf52 <_Z5Debugv+0x152>
     f6e:	1f b8       	out	0x0f, r1	; 15
     f70:	77 9b       	sbis	0x0e, 7	; 14
     f72:	fe cf       	rjmp	.-4      	; 0xf70 <_Z5Debugv+0x170>
     f74:	80 91 93 02 	lds	r24, 0x0293	; 0x800293 <debugDisplay>
     f78:	90 91 94 02 	lds	r25, 0x0294	; 0x800294 <debugDisplay+0x1>
     f7c:	dc 01       	movw	r26, r24
     f7e:	ed 91       	ld	r30, X+
     f80:	fc 91       	ld	r31, X
     f82:	00 88       	ldd	r0, Z+16	; 0x10
     f84:	f1 89       	ldd	r31, Z+17	; 0x11
     f86:	e0 2d       	mov	r30, r0
     f88:	df 91       	pop	r29
     f8a:	cf 91       	pop	r28
     f8c:	1f 91       	pop	r17
     f8e:	0f 91       	pop	r16
     f90:	ff 90       	pop	r15
     f92:	ef 90       	pop	r14
     f94:	df 90       	pop	r13
     f96:	cf 90       	pop	r12
     f98:	bf 90       	pop	r11
     f9a:	af 90       	pop	r10
     f9c:	09 94       	ijmp
     f9e:	80 91 93 02 	lds	r24, 0x0293	; 0x800293 <debugDisplay>
     fa2:	90 91 94 02 	lds	r25, 0x0294	; 0x800294 <debugDisplay+0x1>
     fa6:	dc 01       	movw	r26, r24
     fa8:	ed 91       	ld	r30, X+
     faa:	fc 91       	ld	r31, X
     fac:	06 84       	ldd	r0, Z+14	; 0x0e
     fae:	f7 85       	ldd	r31, Z+15	; 0x0f
     fb0:	e0 2d       	mov	r30, r0
     fb2:	09 95       	icall
     fb4:	cf e4       	ldi	r28, 0x4F	; 79
     fb6:	d0 e0       	ldi	r29, 0x00	; 0
     fb8:	ce 01       	movw	r24, r28
     fba:	0e 94 25 1a 	call	0x344a	; 0x344a <eeprom_read_byte>
     fbe:	8f b9       	out	0x0f, r24	; 15
     fc0:	77 9b       	sbis	0x0e, 7	; 14
     fc2:	fe cf       	rjmp	.-4      	; 0xfc0 <_Z5Debugv+0x1c0>
     fc4:	21 96       	adiw	r28, 0x01	; 1
     fc6:	b0 e0       	ldi	r27, 0x00	; 0
     fc8:	c4 35       	cpi	r28, 0x54	; 84
     fca:	db 07       	cpc	r29, r27
     fcc:	a9 f7       	brne	.-22     	; 0xfb8 <_Z5Debugv+0x1b8>
     fce:	1f b8       	out	0x0f, r1	; 15
     fd0:	77 9b       	sbis	0x0e, 7	; 14
     fd2:	fe cf       	rjmp	.-4      	; 0xfd0 <_Z5Debugv+0x1d0>
     fd4:	a5 cf       	rjmp	.-182    	; 0xf20 <_Z5Debugv+0x120>

00000fd6 <_ZN4PinSILh50ELh48ELh49ELh3EE5CheckEv>:
     fd6:	80 b3       	in	r24, 0x10	; 16
     fd8:	83 fb       	bst	r24, 3
     fda:	88 27       	eor	r24, r24
     fdc:	80 f9       	bld	r24, 0
     fde:	08 95       	ret

00000fe0 <_ZN4PinSILh50ELh48ELh49ELh4EE5CheckEv>:
     fe0:	80 b3       	in	r24, 0x10	; 16
     fe2:	82 95       	swap	r24
     fe4:	81 70       	andi	r24, 0x01	; 1
     fe6:	08 95       	ret

00000fe8 <_ZN4PinSILh50ELh48ELh49ELh6EE5CheckEv>:
     fe8:	80 b3       	in	r24, 0x10	; 16
     fea:	86 fb       	bst	r24, 6
     fec:	88 27       	eor	r24, r24
     fee:	80 f9       	bld	r24, 0
     ff0:	08 95       	ret

00000ff2 <_ZN4PinSILh50ELh48ELh49ELh3EED1Ev>:
     ff2:	08 95       	ret

00000ff4 <_ZN4PinSILh50ELh48ELh49ELh4EED1Ev>:
     ff4:	08 95       	ret

00000ff6 <_ZN4PinSILh50ELh48ELh49ELh6EED1Ev>:
     ff6:	08 95       	ret

00000ff8 <_ZN4PinSILh50ELh48ELh49ELh5EED1Ev>:
     ff8:	08 95       	ret

00000ffa <_ZN4PinSILh56ELh54ELh55ELh7EED1Ev>:
     ffa:	08 95       	ret

00000ffc <_ZN4PinSILh56ELh54ELh55ELh6EED1Ev>:
     ffc:	08 95       	ret

00000ffe <_ZN4PinSILh56ELh54ELh55ELh5EED1Ev>:
     ffe:	08 95       	ret

00001000 <_ZN4PinSILh56ELh54ELh55ELh4EED1Ev>:
    1000:	08 95       	ret

00001002 <_ZN4PinSILh56ELh54ELh55ELh3EED1Ev>:
    1002:	08 95       	ret

00001004 <_ZN4PinSILh56ELh54ELh55ELh2EED1Ev>:
    1004:	08 95       	ret

00001006 <_ZN4PinSILh56ELh54ELh55ELh1EED1Ev>:
    1006:	08 95       	ret

00001008 <_ZN4PinSILh56ELh54ELh55ELh0EED1Ev>:
    1008:	08 95       	ret

0000100a <_ZN4PinSILh59ELh57ELh58ELh2EED1Ev>:
    100a:	08 95       	ret

0000100c <_ZN4PinSILh59ELh57ELh58ELh1EED1Ev>:
    100c:	08 95       	ret

0000100e <_ZN4PinSILh59ELh57ELh58ELh0EED1Ev>:
    100e:	08 95       	ret

00001010 <_ZN4PinSILh50ELh48ELh49ELh3EE7FastSetEv>:
    1010:	93 9a       	sbi	0x12, 3	; 18
    1012:	08 95       	ret

00001014 <_ZN4PinSILh50ELh48ELh49ELh3EE9FastClearEv>:
    1014:	93 98       	cbi	0x12, 3	; 18
    1016:	08 95       	ret

00001018 <_ZN4PinSILh50ELh48ELh49ELh3EE10FastToggleEv>:
    1018:	92 b3       	in	r25, 0x12	; 18
    101a:	88 e0       	ldi	r24, 0x08	; 8
    101c:	89 27       	eor	r24, r25
    101e:	82 bb       	out	0x12, r24	; 18
    1020:	08 95       	ret

00001022 <_ZN4PinSILh50ELh48ELh49ELh3EE12FastAsOutputEv>:
    1022:	8b 9a       	sbi	0x11, 3	; 17
    1024:	08 95       	ret

00001026 <_ZN4PinSILh50ELh48ELh49ELh3EE11FastAsInputEv>:
    1026:	8b 98       	cbi	0x11, 3	; 17
    1028:	08 95       	ret

0000102a <_ZN4PinSILh50ELh48ELh49ELh3EE3SetEv>:
    102a:	93 9a       	sbi	0x12, 3	; 18
    102c:	08 95       	ret

0000102e <_ZN4PinSILh50ELh48ELh49ELh3EE5ClearEv>:
    102e:	93 98       	cbi	0x12, 3	; 18
    1030:	08 95       	ret

00001032 <_ZN4PinSILh50ELh48ELh49ELh3EE6ToggleEv>:
    1032:	92 b3       	in	r25, 0x12	; 18
    1034:	88 e0       	ldi	r24, 0x08	; 8
    1036:	89 27       	eor	r24, r25
    1038:	82 bb       	out	0x12, r24	; 18
    103a:	08 95       	ret

0000103c <_ZN4PinSILh50ELh48ELh49ELh3EE8AsOutputEv>:
    103c:	8b 9a       	sbi	0x11, 3	; 17
    103e:	08 95       	ret

00001040 <_ZN4PinSILh50ELh48ELh49ELh3EE7AsInputEv>:
    1040:	8b 98       	cbi	0x11, 3	; 17
    1042:	08 95       	ret

00001044 <_ZN4PinSILh50ELh48ELh49ELh4EE7FastSetEv>:
    1044:	94 9a       	sbi	0x12, 4	; 18
    1046:	08 95       	ret

00001048 <_ZN4PinSILh50ELh48ELh49ELh4EE9FastClearEv>:
    1048:	94 98       	cbi	0x12, 4	; 18
    104a:	08 95       	ret

0000104c <_ZN4PinSILh50ELh48ELh49ELh4EE10FastToggleEv>:
    104c:	92 b3       	in	r25, 0x12	; 18
    104e:	80 e1       	ldi	r24, 0x10	; 16
    1050:	89 27       	eor	r24, r25
    1052:	82 bb       	out	0x12, r24	; 18
    1054:	08 95       	ret

00001056 <_ZN4PinSILh50ELh48ELh49ELh4EE12FastAsOutputEv>:
    1056:	8c 9a       	sbi	0x11, 4	; 17
    1058:	08 95       	ret

0000105a <_ZN4PinSILh50ELh48ELh49ELh4EE11FastAsInputEv>:
    105a:	8c 98       	cbi	0x11, 4	; 17
    105c:	08 95       	ret

0000105e <_ZN4PinSILh50ELh48ELh49ELh4EE3SetEv>:
    105e:	94 9a       	sbi	0x12, 4	; 18
    1060:	08 95       	ret

00001062 <_ZN4PinSILh50ELh48ELh49ELh4EE5ClearEv>:
    1062:	94 98       	cbi	0x12, 4	; 18
    1064:	08 95       	ret

00001066 <_ZN4PinSILh50ELh48ELh49ELh4EE6ToggleEv>:
    1066:	92 b3       	in	r25, 0x12	; 18
    1068:	80 e1       	ldi	r24, 0x10	; 16
    106a:	89 27       	eor	r24, r25
    106c:	82 bb       	out	0x12, r24	; 18
    106e:	08 95       	ret

00001070 <_ZN4PinSILh50ELh48ELh49ELh4EE8AsOutputEv>:
    1070:	8c 9a       	sbi	0x11, 4	; 17
    1072:	08 95       	ret

00001074 <_ZN4PinSILh50ELh48ELh49ELh4EE7AsInputEv>:
    1074:	8c 98       	cbi	0x11, 4	; 17
    1076:	08 95       	ret

00001078 <_ZN4PinSILh50ELh48ELh49ELh6EE7FastSetEv>:
    1078:	96 9a       	sbi	0x12, 6	; 18
    107a:	08 95       	ret

0000107c <_ZN4PinSILh50ELh48ELh49ELh6EE9FastClearEv>:
    107c:	96 98       	cbi	0x12, 6	; 18
    107e:	08 95       	ret

00001080 <_ZN4PinSILh50ELh48ELh49ELh6EE10FastToggleEv>:
    1080:	92 b3       	in	r25, 0x12	; 18
    1082:	80 e4       	ldi	r24, 0x40	; 64
    1084:	89 27       	eor	r24, r25
    1086:	82 bb       	out	0x12, r24	; 18
    1088:	08 95       	ret

0000108a <_ZN4PinSILh50ELh48ELh49ELh6EE12FastAsOutputEv>:
    108a:	8e 9a       	sbi	0x11, 6	; 17
    108c:	08 95       	ret

0000108e <_ZN4PinSILh50ELh48ELh49ELh6EE11FastAsInputEv>:
    108e:	8e 98       	cbi	0x11, 6	; 17
    1090:	08 95       	ret

00001092 <_ZN4PinSILh50ELh48ELh49ELh6EE3SetEv>:
    1092:	96 9a       	sbi	0x12, 6	; 18
    1094:	08 95       	ret

00001096 <_ZN4PinSILh50ELh48ELh49ELh6EE5ClearEv>:
    1096:	96 98       	cbi	0x12, 6	; 18
    1098:	08 95       	ret

0000109a <_ZN4PinSILh50ELh48ELh49ELh6EE6ToggleEv>:
    109a:	92 b3       	in	r25, 0x12	; 18
    109c:	80 e4       	ldi	r24, 0x40	; 64
    109e:	89 27       	eor	r24, r25
    10a0:	82 bb       	out	0x12, r24	; 18
    10a2:	08 95       	ret

000010a4 <_ZN4PinSILh50ELh48ELh49ELh6EE8AsOutputEv>:
    10a4:	8e 9a       	sbi	0x11, 6	; 17
    10a6:	08 95       	ret

000010a8 <_ZN4PinSILh50ELh48ELh49ELh6EE7AsInputEv>:
    10a8:	8e 98       	cbi	0x11, 6	; 17
    10aa:	08 95       	ret

000010ac <_ZN4PinSILh50ELh48ELh49ELh5EE7FastSetEv>:
    10ac:	95 9a       	sbi	0x12, 5	; 18
    10ae:	08 95       	ret

000010b0 <_ZN4PinSILh50ELh48ELh49ELh5EE9FastClearEv>:
    10b0:	95 98       	cbi	0x12, 5	; 18
    10b2:	08 95       	ret

000010b4 <_ZN4PinSILh50ELh48ELh49ELh5EE10FastToggleEv>:
    10b4:	92 b3       	in	r25, 0x12	; 18
    10b6:	80 e2       	ldi	r24, 0x20	; 32
    10b8:	89 27       	eor	r24, r25
    10ba:	82 bb       	out	0x12, r24	; 18
    10bc:	08 95       	ret

000010be <_ZN4PinSILh50ELh48ELh49ELh5EE12FastAsOutputEv>:
    10be:	8d 9a       	sbi	0x11, 5	; 17
    10c0:	08 95       	ret

000010c2 <_ZN4PinSILh50ELh48ELh49ELh5EE11FastAsInputEv>:
    10c2:	8d 98       	cbi	0x11, 5	; 17
    10c4:	08 95       	ret

000010c6 <_ZN4PinSILh50ELh48ELh49ELh5EE5CheckEv>:
    10c6:	80 b3       	in	r24, 0x10	; 16
    10c8:	85 fb       	bst	r24, 5
    10ca:	88 27       	eor	r24, r24
    10cc:	80 f9       	bld	r24, 0
    10ce:	08 95       	ret

000010d0 <_ZN4PinSILh50ELh48ELh49ELh5EE3SetEv>:
    10d0:	95 9a       	sbi	0x12, 5	; 18
    10d2:	08 95       	ret

000010d4 <_ZN4PinSILh50ELh48ELh49ELh5EE5ClearEv>:
    10d4:	95 98       	cbi	0x12, 5	; 18
    10d6:	08 95       	ret

000010d8 <_ZN4PinSILh50ELh48ELh49ELh5EE6ToggleEv>:
    10d8:	92 b3       	in	r25, 0x12	; 18
    10da:	80 e2       	ldi	r24, 0x20	; 32
    10dc:	89 27       	eor	r24, r25
    10de:	82 bb       	out	0x12, r24	; 18
    10e0:	08 95       	ret

000010e2 <_ZN4PinSILh50ELh48ELh49ELh5EE8AsOutputEv>:
    10e2:	8d 9a       	sbi	0x11, 5	; 17
    10e4:	08 95       	ret

000010e6 <_ZN4PinSILh50ELh48ELh49ELh5EE7AsInputEv>:
    10e6:	8d 98       	cbi	0x11, 5	; 17
    10e8:	08 95       	ret

000010ea <_ZN4PinSILh56ELh54ELh55ELh7EE7FastSetEv>:
    10ea:	c7 9a       	sbi	0x18, 7	; 24
    10ec:	08 95       	ret

000010ee <_ZN4PinSILh56ELh54ELh55ELh7EE9FastClearEv>:
    10ee:	c7 98       	cbi	0x18, 7	; 24
    10f0:	08 95       	ret

000010f2 <_ZN4PinSILh56ELh54ELh55ELh7EE10FastToggleEv>:
    10f2:	88 b3       	in	r24, 0x18	; 24
    10f4:	80 58       	subi	r24, 0x80	; 128
    10f6:	88 bb       	out	0x18, r24	; 24
    10f8:	08 95       	ret

000010fa <_ZN4PinSILh56ELh54ELh55ELh7EE12FastAsOutputEv>:
    10fa:	bf 9a       	sbi	0x17, 7	; 23
    10fc:	08 95       	ret

000010fe <_ZN4PinSILh56ELh54ELh55ELh7EE11FastAsInputEv>:
    10fe:	bf 98       	cbi	0x17, 7	; 23
    1100:	08 95       	ret

00001102 <_ZN4PinSILh56ELh54ELh55ELh7EE5CheckEv>:
    1102:	81 e0       	ldi	r24, 0x01	; 1
    1104:	b7 9b       	sbis	0x16, 7	; 22
    1106:	80 e0       	ldi	r24, 0x00	; 0
    1108:	08 95       	ret

0000110a <_ZN4PinSILh56ELh54ELh55ELh7EE3SetEv>:
    110a:	c7 9a       	sbi	0x18, 7	; 24
    110c:	08 95       	ret

0000110e <_ZN4PinSILh56ELh54ELh55ELh7EE5ClearEv>:
    110e:	c7 98       	cbi	0x18, 7	; 24
    1110:	08 95       	ret

00001112 <_ZN4PinSILh56ELh54ELh55ELh7EE6ToggleEv>:
    1112:	88 b3       	in	r24, 0x18	; 24
    1114:	80 58       	subi	r24, 0x80	; 128
    1116:	88 bb       	out	0x18, r24	; 24
    1118:	08 95       	ret

0000111a <_ZN4PinSILh56ELh54ELh55ELh7EE8AsOutputEv>:
    111a:	bf 9a       	sbi	0x17, 7	; 23
    111c:	08 95       	ret

0000111e <_ZN4PinSILh56ELh54ELh55ELh7EE7AsInputEv>:
    111e:	bf 98       	cbi	0x17, 7	; 23
    1120:	08 95       	ret

00001122 <_ZN4PinSILh56ELh54ELh55ELh6EE7FastSetEv>:
    1122:	c6 9a       	sbi	0x18, 6	; 24
    1124:	08 95       	ret

00001126 <_ZN4PinSILh56ELh54ELh55ELh6EE9FastClearEv>:
    1126:	c6 98       	cbi	0x18, 6	; 24
    1128:	08 95       	ret

0000112a <_ZN4PinSILh56ELh54ELh55ELh6EE10FastToggleEv>:
    112a:	98 b3       	in	r25, 0x18	; 24
    112c:	80 e4       	ldi	r24, 0x40	; 64
    112e:	89 27       	eor	r24, r25
    1130:	88 bb       	out	0x18, r24	; 24
    1132:	08 95       	ret

00001134 <_ZN4PinSILh56ELh54ELh55ELh6EE12FastAsOutputEv>:
    1134:	be 9a       	sbi	0x17, 6	; 23
    1136:	08 95       	ret

00001138 <_ZN4PinSILh56ELh54ELh55ELh6EE11FastAsInputEv>:
    1138:	be 98       	cbi	0x17, 6	; 23
    113a:	08 95       	ret

0000113c <_ZN4PinSILh56ELh54ELh55ELh6EE5CheckEv>:
    113c:	86 b3       	in	r24, 0x16	; 22
    113e:	86 fb       	bst	r24, 6
    1140:	88 27       	eor	r24, r24
    1142:	80 f9       	bld	r24, 0
    1144:	08 95       	ret

00001146 <_ZN4PinSILh56ELh54ELh55ELh6EE3SetEv>:
    1146:	c6 9a       	sbi	0x18, 6	; 24
    1148:	08 95       	ret

0000114a <_ZN4PinSILh56ELh54ELh55ELh6EE5ClearEv>:
    114a:	c6 98       	cbi	0x18, 6	; 24
    114c:	08 95       	ret

0000114e <_ZN4PinSILh56ELh54ELh55ELh6EE6ToggleEv>:
    114e:	98 b3       	in	r25, 0x18	; 24
    1150:	80 e4       	ldi	r24, 0x40	; 64
    1152:	89 27       	eor	r24, r25
    1154:	88 bb       	out	0x18, r24	; 24
    1156:	08 95       	ret

00001158 <_ZN4PinSILh56ELh54ELh55ELh6EE8AsOutputEv>:
    1158:	be 9a       	sbi	0x17, 6	; 23
    115a:	08 95       	ret

0000115c <_ZN4PinSILh56ELh54ELh55ELh6EE7AsInputEv>:
    115c:	be 98       	cbi	0x17, 6	; 23
    115e:	08 95       	ret

00001160 <_ZN4PinSILh56ELh54ELh55ELh5EE7FastSetEv>:
    1160:	c5 9a       	sbi	0x18, 5	; 24
    1162:	08 95       	ret

00001164 <_ZN4PinSILh56ELh54ELh55ELh5EE9FastClearEv>:
    1164:	c5 98       	cbi	0x18, 5	; 24
    1166:	08 95       	ret

00001168 <_ZN4PinSILh56ELh54ELh55ELh5EE10FastToggleEv>:
    1168:	98 b3       	in	r25, 0x18	; 24
    116a:	80 e2       	ldi	r24, 0x20	; 32
    116c:	89 27       	eor	r24, r25
    116e:	88 bb       	out	0x18, r24	; 24
    1170:	08 95       	ret

00001172 <_ZN4PinSILh56ELh54ELh55ELh5EE12FastAsOutputEv>:
    1172:	bd 9a       	sbi	0x17, 5	; 23
    1174:	08 95       	ret

00001176 <_ZN4PinSILh56ELh54ELh55ELh5EE11FastAsInputEv>:
    1176:	bd 98       	cbi	0x17, 5	; 23
    1178:	08 95       	ret

0000117a <_ZN4PinSILh56ELh54ELh55ELh5EE5CheckEv>:
    117a:	86 b3       	in	r24, 0x16	; 22
    117c:	85 fb       	bst	r24, 5
    117e:	88 27       	eor	r24, r24
    1180:	80 f9       	bld	r24, 0
    1182:	08 95       	ret

00001184 <_ZN4PinSILh56ELh54ELh55ELh5EE3SetEv>:
    1184:	c5 9a       	sbi	0x18, 5	; 24
    1186:	08 95       	ret

00001188 <_ZN4PinSILh56ELh54ELh55ELh5EE5ClearEv>:
    1188:	c5 98       	cbi	0x18, 5	; 24
    118a:	08 95       	ret

0000118c <_ZN4PinSILh56ELh54ELh55ELh5EE6ToggleEv>:
    118c:	98 b3       	in	r25, 0x18	; 24
    118e:	80 e2       	ldi	r24, 0x20	; 32
    1190:	89 27       	eor	r24, r25
    1192:	88 bb       	out	0x18, r24	; 24
    1194:	08 95       	ret

00001196 <_ZN4PinSILh56ELh54ELh55ELh5EE8AsOutputEv>:
    1196:	bd 9a       	sbi	0x17, 5	; 23
    1198:	08 95       	ret

0000119a <_ZN4PinSILh56ELh54ELh55ELh5EE7AsInputEv>:
    119a:	bd 98       	cbi	0x17, 5	; 23
    119c:	08 95       	ret

0000119e <_ZN4PinSILh56ELh54ELh55ELh4EE7FastSetEv>:
    119e:	c4 9a       	sbi	0x18, 4	; 24
    11a0:	08 95       	ret

000011a2 <_ZN4PinSILh56ELh54ELh55ELh4EE9FastClearEv>:
    11a2:	c4 98       	cbi	0x18, 4	; 24
    11a4:	08 95       	ret

000011a6 <_ZN4PinSILh56ELh54ELh55ELh4EE10FastToggleEv>:
    11a6:	98 b3       	in	r25, 0x18	; 24
    11a8:	80 e1       	ldi	r24, 0x10	; 16
    11aa:	89 27       	eor	r24, r25
    11ac:	88 bb       	out	0x18, r24	; 24
    11ae:	08 95       	ret

000011b0 <_ZN4PinSILh56ELh54ELh55ELh4EE12FastAsOutputEv>:
    11b0:	bc 9a       	sbi	0x17, 4	; 23
    11b2:	08 95       	ret

000011b4 <_ZN4PinSILh56ELh54ELh55ELh4EE11FastAsInputEv>:
    11b4:	bc 98       	cbi	0x17, 4	; 23
    11b6:	08 95       	ret

000011b8 <_ZN4PinSILh56ELh54ELh55ELh4EE5CheckEv>:
    11b8:	86 b3       	in	r24, 0x16	; 22
    11ba:	82 95       	swap	r24
    11bc:	81 70       	andi	r24, 0x01	; 1
    11be:	08 95       	ret

000011c0 <_ZN4PinSILh56ELh54ELh55ELh4EE3SetEv>:
    11c0:	c4 9a       	sbi	0x18, 4	; 24
    11c2:	08 95       	ret

000011c4 <_ZN4PinSILh56ELh54ELh55ELh4EE5ClearEv>:
    11c4:	c4 98       	cbi	0x18, 4	; 24
    11c6:	08 95       	ret

000011c8 <_ZN4PinSILh56ELh54ELh55ELh4EE6ToggleEv>:
    11c8:	98 b3       	in	r25, 0x18	; 24
    11ca:	80 e1       	ldi	r24, 0x10	; 16
    11cc:	89 27       	eor	r24, r25
    11ce:	88 bb       	out	0x18, r24	; 24
    11d0:	08 95       	ret

000011d2 <_ZN4PinSILh56ELh54ELh55ELh4EE8AsOutputEv>:
    11d2:	bc 9a       	sbi	0x17, 4	; 23
    11d4:	08 95       	ret

000011d6 <_ZN4PinSILh56ELh54ELh55ELh4EE7AsInputEv>:
    11d6:	bc 98       	cbi	0x17, 4	; 23
    11d8:	08 95       	ret

000011da <_ZN4PinSILh56ELh54ELh55ELh3EE7FastSetEv>:
    11da:	c3 9a       	sbi	0x18, 3	; 24
    11dc:	08 95       	ret

000011de <_ZN4PinSILh56ELh54ELh55ELh3EE9FastClearEv>:
    11de:	c3 98       	cbi	0x18, 3	; 24
    11e0:	08 95       	ret

000011e2 <_ZN4PinSILh56ELh54ELh55ELh3EE10FastToggleEv>:
    11e2:	98 b3       	in	r25, 0x18	; 24
    11e4:	88 e0       	ldi	r24, 0x08	; 8
    11e6:	89 27       	eor	r24, r25
    11e8:	88 bb       	out	0x18, r24	; 24
    11ea:	08 95       	ret

000011ec <_ZN4PinSILh56ELh54ELh55ELh3EE12FastAsOutputEv>:
    11ec:	bb 9a       	sbi	0x17, 3	; 23
    11ee:	08 95       	ret

000011f0 <_ZN4PinSILh56ELh54ELh55ELh3EE11FastAsInputEv>:
    11f0:	bb 98       	cbi	0x17, 3	; 23
    11f2:	08 95       	ret

000011f4 <_ZN4PinSILh56ELh54ELh55ELh3EE5CheckEv>:
    11f4:	86 b3       	in	r24, 0x16	; 22
    11f6:	83 fb       	bst	r24, 3
    11f8:	88 27       	eor	r24, r24
    11fa:	80 f9       	bld	r24, 0
    11fc:	08 95       	ret

000011fe <_ZN4PinSILh56ELh54ELh55ELh3EE3SetEv>:
    11fe:	c3 9a       	sbi	0x18, 3	; 24
    1200:	08 95       	ret

00001202 <_ZN4PinSILh56ELh54ELh55ELh3EE5ClearEv>:
    1202:	c3 98       	cbi	0x18, 3	; 24
    1204:	08 95       	ret

00001206 <_ZN4PinSILh56ELh54ELh55ELh3EE6ToggleEv>:
    1206:	98 b3       	in	r25, 0x18	; 24
    1208:	88 e0       	ldi	r24, 0x08	; 8
    120a:	89 27       	eor	r24, r25
    120c:	88 bb       	out	0x18, r24	; 24
    120e:	08 95       	ret

00001210 <_ZN4PinSILh56ELh54ELh55ELh3EE8AsOutputEv>:
    1210:	bb 9a       	sbi	0x17, 3	; 23
    1212:	08 95       	ret

00001214 <_ZN4PinSILh56ELh54ELh55ELh3EE7AsInputEv>:
    1214:	bb 98       	cbi	0x17, 3	; 23
    1216:	08 95       	ret

00001218 <_ZN4PinSILh56ELh54ELh55ELh2EE7FastSetEv>:
    1218:	c2 9a       	sbi	0x18, 2	; 24
    121a:	08 95       	ret

0000121c <_ZN4PinSILh56ELh54ELh55ELh2EE9FastClearEv>:
    121c:	c2 98       	cbi	0x18, 2	; 24
    121e:	08 95       	ret

00001220 <_ZN4PinSILh56ELh54ELh55ELh2EE10FastToggleEv>:
    1220:	98 b3       	in	r25, 0x18	; 24
    1222:	84 e0       	ldi	r24, 0x04	; 4
    1224:	89 27       	eor	r24, r25
    1226:	88 bb       	out	0x18, r24	; 24
    1228:	08 95       	ret

0000122a <_ZN4PinSILh56ELh54ELh55ELh2EE12FastAsOutputEv>:
    122a:	ba 9a       	sbi	0x17, 2	; 23
    122c:	08 95       	ret

0000122e <_ZN4PinSILh56ELh54ELh55ELh2EE11FastAsInputEv>:
    122e:	ba 98       	cbi	0x17, 2	; 23
    1230:	08 95       	ret

00001232 <_ZN4PinSILh56ELh54ELh55ELh2EE5CheckEv>:
    1232:	86 b3       	in	r24, 0x16	; 22
    1234:	82 fb       	bst	r24, 2
    1236:	88 27       	eor	r24, r24
    1238:	80 f9       	bld	r24, 0
    123a:	08 95       	ret

0000123c <_ZN4PinSILh56ELh54ELh55ELh2EE3SetEv>:
    123c:	c2 9a       	sbi	0x18, 2	; 24
    123e:	08 95       	ret

00001240 <_ZN4PinSILh56ELh54ELh55ELh2EE5ClearEv>:
    1240:	c2 98       	cbi	0x18, 2	; 24
    1242:	08 95       	ret

00001244 <_ZN4PinSILh56ELh54ELh55ELh2EE6ToggleEv>:
    1244:	98 b3       	in	r25, 0x18	; 24
    1246:	84 e0       	ldi	r24, 0x04	; 4
    1248:	89 27       	eor	r24, r25
    124a:	88 bb       	out	0x18, r24	; 24
    124c:	08 95       	ret

0000124e <_ZN4PinSILh56ELh54ELh55ELh2EE8AsOutputEv>:
    124e:	ba 9a       	sbi	0x17, 2	; 23
    1250:	08 95       	ret

00001252 <_ZN4PinSILh56ELh54ELh55ELh2EE7AsInputEv>:
    1252:	ba 98       	cbi	0x17, 2	; 23
    1254:	08 95       	ret

00001256 <_ZN4PinSILh56ELh54ELh55ELh1EE7FastSetEv>:
    1256:	c1 9a       	sbi	0x18, 1	; 24
    1258:	08 95       	ret

0000125a <_ZN4PinSILh56ELh54ELh55ELh1EE9FastClearEv>:
    125a:	c1 98       	cbi	0x18, 1	; 24
    125c:	08 95       	ret

0000125e <_ZN4PinSILh56ELh54ELh55ELh1EE10FastToggleEv>:
    125e:	98 b3       	in	r25, 0x18	; 24
    1260:	82 e0       	ldi	r24, 0x02	; 2
    1262:	89 27       	eor	r24, r25
    1264:	88 bb       	out	0x18, r24	; 24
    1266:	08 95       	ret

00001268 <_ZN4PinSILh56ELh54ELh55ELh1EE12FastAsOutputEv>:
    1268:	b9 9a       	sbi	0x17, 1	; 23
    126a:	08 95       	ret

0000126c <_ZN4PinSILh56ELh54ELh55ELh1EE11FastAsInputEv>:
    126c:	b9 98       	cbi	0x17, 1	; 23
    126e:	08 95       	ret

00001270 <_ZN4PinSILh56ELh54ELh55ELh1EE5CheckEv>:
    1270:	86 b3       	in	r24, 0x16	; 22
    1272:	86 95       	lsr	r24
    1274:	81 70       	andi	r24, 0x01	; 1
    1276:	08 95       	ret

00001278 <_ZN4PinSILh56ELh54ELh55ELh1EE3SetEv>:
    1278:	c1 9a       	sbi	0x18, 1	; 24
    127a:	08 95       	ret

0000127c <_ZN4PinSILh56ELh54ELh55ELh1EE5ClearEv>:
    127c:	c1 98       	cbi	0x18, 1	; 24
    127e:	08 95       	ret

00001280 <_ZN4PinSILh56ELh54ELh55ELh1EE6ToggleEv>:
    1280:	98 b3       	in	r25, 0x18	; 24
    1282:	82 e0       	ldi	r24, 0x02	; 2
    1284:	89 27       	eor	r24, r25
    1286:	88 bb       	out	0x18, r24	; 24
    1288:	08 95       	ret

0000128a <_ZN4PinSILh56ELh54ELh55ELh1EE8AsOutputEv>:
    128a:	b9 9a       	sbi	0x17, 1	; 23
    128c:	08 95       	ret

0000128e <_ZN4PinSILh56ELh54ELh55ELh1EE7AsInputEv>:
    128e:	b9 98       	cbi	0x17, 1	; 23
    1290:	08 95       	ret

00001292 <_ZN4PinSILh56ELh54ELh55ELh0EE7FastSetEv>:
    1292:	c0 9a       	sbi	0x18, 0	; 24
    1294:	08 95       	ret

00001296 <_ZN4PinSILh56ELh54ELh55ELh0EE9FastClearEv>:
    1296:	c0 98       	cbi	0x18, 0	; 24
    1298:	08 95       	ret

0000129a <_ZN4PinSILh56ELh54ELh55ELh0EE10FastToggleEv>:
    129a:	98 b3       	in	r25, 0x18	; 24
    129c:	81 e0       	ldi	r24, 0x01	; 1
    129e:	89 27       	eor	r24, r25
    12a0:	88 bb       	out	0x18, r24	; 24
    12a2:	08 95       	ret

000012a4 <_ZN4PinSILh56ELh54ELh55ELh0EE12FastAsOutputEv>:
    12a4:	b8 9a       	sbi	0x17, 0	; 23
    12a6:	08 95       	ret

000012a8 <_ZN4PinSILh56ELh54ELh55ELh0EE11FastAsInputEv>:
    12a8:	b8 98       	cbi	0x17, 0	; 23
    12aa:	08 95       	ret

000012ac <_ZN4PinSILh56ELh54ELh55ELh0EE5CheckEv>:
    12ac:	86 b3       	in	r24, 0x16	; 22
    12ae:	81 70       	andi	r24, 0x01	; 1
    12b0:	08 95       	ret

000012b2 <_ZN4PinSILh56ELh54ELh55ELh0EE3SetEv>:
    12b2:	c0 9a       	sbi	0x18, 0	; 24
    12b4:	08 95       	ret

000012b6 <_ZN4PinSILh56ELh54ELh55ELh0EE5ClearEv>:
    12b6:	c0 98       	cbi	0x18, 0	; 24
    12b8:	08 95       	ret

000012ba <_ZN4PinSILh56ELh54ELh55ELh0EE6ToggleEv>:
    12ba:	98 b3       	in	r25, 0x18	; 24
    12bc:	81 e0       	ldi	r24, 0x01	; 1
    12be:	89 27       	eor	r24, r25
    12c0:	88 bb       	out	0x18, r24	; 24
    12c2:	08 95       	ret

000012c4 <_ZN4PinSILh56ELh54ELh55ELh0EE8AsOutputEv>:
    12c4:	b8 9a       	sbi	0x17, 0	; 23
    12c6:	08 95       	ret

000012c8 <_ZN4PinSILh56ELh54ELh55ELh0EE7AsInputEv>:
    12c8:	b8 98       	cbi	0x17, 0	; 23
    12ca:	08 95       	ret

000012cc <_ZN4PinSILh59ELh57ELh58ELh2EE7FastSetEv>:
    12cc:	da 9a       	sbi	0x1b, 2	; 27
    12ce:	08 95       	ret

000012d0 <_ZN4PinSILh59ELh57ELh58ELh2EE9FastClearEv>:
    12d0:	da 98       	cbi	0x1b, 2	; 27
    12d2:	08 95       	ret

000012d4 <_ZN4PinSILh59ELh57ELh58ELh2EE10FastToggleEv>:
    12d4:	9b b3       	in	r25, 0x1b	; 27
    12d6:	84 e0       	ldi	r24, 0x04	; 4
    12d8:	89 27       	eor	r24, r25
    12da:	8b bb       	out	0x1b, r24	; 27
    12dc:	08 95       	ret

000012de <_ZN4PinSILh59ELh57ELh58ELh2EE12FastAsOutputEv>:
    12de:	d2 9a       	sbi	0x1a, 2	; 26
    12e0:	08 95       	ret

000012e2 <_ZN4PinSILh59ELh57ELh58ELh2EE11FastAsInputEv>:
    12e2:	d2 98       	cbi	0x1a, 2	; 26
    12e4:	08 95       	ret

000012e6 <_ZN4PinSILh59ELh57ELh58ELh2EE5CheckEv>:
    12e6:	89 b3       	in	r24, 0x19	; 25
    12e8:	82 fb       	bst	r24, 2
    12ea:	88 27       	eor	r24, r24
    12ec:	80 f9       	bld	r24, 0
    12ee:	08 95       	ret

000012f0 <_ZN4PinSILh59ELh57ELh58ELh2EE3SetEv>:
    12f0:	da 9a       	sbi	0x1b, 2	; 27
    12f2:	08 95       	ret

000012f4 <_ZN4PinSILh59ELh57ELh58ELh2EE5ClearEv>:
    12f4:	da 98       	cbi	0x1b, 2	; 27
    12f6:	08 95       	ret

000012f8 <_ZN4PinSILh59ELh57ELh58ELh2EE6ToggleEv>:
    12f8:	9b b3       	in	r25, 0x1b	; 27
    12fa:	84 e0       	ldi	r24, 0x04	; 4
    12fc:	89 27       	eor	r24, r25
    12fe:	8b bb       	out	0x1b, r24	; 27
    1300:	08 95       	ret

00001302 <_ZN4PinSILh59ELh57ELh58ELh2EE8AsOutputEv>:
    1302:	d2 9a       	sbi	0x1a, 2	; 26
    1304:	08 95       	ret

00001306 <_ZN4PinSILh59ELh57ELh58ELh2EE7AsInputEv>:
    1306:	d2 98       	cbi	0x1a, 2	; 26
    1308:	08 95       	ret

0000130a <_ZN4PinSILh59ELh57ELh58ELh1EE7FastSetEv>:
    130a:	d9 9a       	sbi	0x1b, 1	; 27
    130c:	08 95       	ret

0000130e <_ZN4PinSILh59ELh57ELh58ELh1EE9FastClearEv>:
    130e:	d9 98       	cbi	0x1b, 1	; 27
    1310:	08 95       	ret

00001312 <_ZN4PinSILh59ELh57ELh58ELh1EE10FastToggleEv>:
    1312:	9b b3       	in	r25, 0x1b	; 27
    1314:	82 e0       	ldi	r24, 0x02	; 2
    1316:	89 27       	eor	r24, r25
    1318:	8b bb       	out	0x1b, r24	; 27
    131a:	08 95       	ret

0000131c <_ZN4PinSILh59ELh57ELh58ELh1EE12FastAsOutputEv>:
    131c:	d1 9a       	sbi	0x1a, 1	; 26
    131e:	08 95       	ret

00001320 <_ZN4PinSILh59ELh57ELh58ELh1EE11FastAsInputEv>:
    1320:	d1 98       	cbi	0x1a, 1	; 26
    1322:	08 95       	ret

00001324 <_ZN4PinSILh59ELh57ELh58ELh1EE5CheckEv>:
    1324:	89 b3       	in	r24, 0x19	; 25
    1326:	86 95       	lsr	r24
    1328:	81 70       	andi	r24, 0x01	; 1
    132a:	08 95       	ret

0000132c <_ZN4PinSILh59ELh57ELh58ELh1EE3SetEv>:
    132c:	d9 9a       	sbi	0x1b, 1	; 27
    132e:	08 95       	ret

00001330 <_ZN4PinSILh59ELh57ELh58ELh1EE5ClearEv>:
    1330:	d9 98       	cbi	0x1b, 1	; 27
    1332:	08 95       	ret

00001334 <_ZN4PinSILh59ELh57ELh58ELh1EE6ToggleEv>:
    1334:	9b b3       	in	r25, 0x1b	; 27
    1336:	82 e0       	ldi	r24, 0x02	; 2
    1338:	89 27       	eor	r24, r25
    133a:	8b bb       	out	0x1b, r24	; 27
    133c:	08 95       	ret

0000133e <_ZN4PinSILh59ELh57ELh58ELh1EE8AsOutputEv>:
    133e:	d1 9a       	sbi	0x1a, 1	; 26
    1340:	08 95       	ret

00001342 <_ZN4PinSILh59ELh57ELh58ELh1EE7AsInputEv>:
    1342:	d1 98       	cbi	0x1a, 1	; 26
    1344:	08 95       	ret

00001346 <_ZN4PinSILh59ELh57ELh58ELh0EE7FastSetEv>:
    1346:	d8 9a       	sbi	0x1b, 0	; 27
    1348:	08 95       	ret

0000134a <_ZN4PinSILh59ELh57ELh58ELh0EE9FastClearEv>:
    134a:	d8 98       	cbi	0x1b, 0	; 27
    134c:	08 95       	ret

0000134e <_ZN4PinSILh59ELh57ELh58ELh0EE10FastToggleEv>:
    134e:	9b b3       	in	r25, 0x1b	; 27
    1350:	81 e0       	ldi	r24, 0x01	; 1
    1352:	89 27       	eor	r24, r25
    1354:	8b bb       	out	0x1b, r24	; 27
    1356:	08 95       	ret

00001358 <_ZN4PinSILh59ELh57ELh58ELh0EE12FastAsOutputEv>:
    1358:	d0 9a       	sbi	0x1a, 0	; 26
    135a:	08 95       	ret

0000135c <_ZN4PinSILh59ELh57ELh58ELh0EE11FastAsInputEv>:
    135c:	d0 98       	cbi	0x1a, 0	; 26
    135e:	08 95       	ret

00001360 <_ZN4PinSILh59ELh57ELh58ELh0EE5CheckEv>:
    1360:	89 b3       	in	r24, 0x19	; 25
    1362:	81 70       	andi	r24, 0x01	; 1
    1364:	08 95       	ret

00001366 <_ZN4PinSILh59ELh57ELh58ELh0EE3SetEv>:
    1366:	d8 9a       	sbi	0x1b, 0	; 27
    1368:	08 95       	ret

0000136a <_ZN4PinSILh59ELh57ELh58ELh0EE5ClearEv>:
    136a:	d8 98       	cbi	0x1b, 0	; 27
    136c:	08 95       	ret

0000136e <_ZN4PinSILh59ELh57ELh58ELh0EE6ToggleEv>:
    136e:	9b b3       	in	r25, 0x1b	; 27
    1370:	81 e0       	ldi	r24, 0x01	; 1
    1372:	89 27       	eor	r24, r25
    1374:	8b bb       	out	0x1b, r24	; 27
    1376:	08 95       	ret

00001378 <_ZN4PinSILh59ELh57ELh58ELh0EE8AsOutputEv>:
    1378:	d0 9a       	sbi	0x1a, 0	; 26
    137a:	08 95       	ret

0000137c <_ZN4PinSILh59ELh57ELh58ELh0EE7AsInputEv>:
    137c:	d0 98       	cbi	0x1a, 0	; 26
    137e:	08 95       	ret

00001380 <_ZN4PinSILh59ELh57ELh58ELh0EED0Ev>:
    1380:	0c 94 7d 19 	jmp	0x32fa	; 0x32fa <free>

00001384 <_ZN4PinSILh59ELh57ELh58ELh1EED0Ev>:
    1384:	0c 94 7d 19 	jmp	0x32fa	; 0x32fa <free>

00001388 <_ZN4PinSILh59ELh57ELh58ELh2EED0Ev>:
    1388:	0c 94 7d 19 	jmp	0x32fa	; 0x32fa <free>

0000138c <_ZN4PinSILh56ELh54ELh55ELh0EED0Ev>:
    138c:	0c 94 7d 19 	jmp	0x32fa	; 0x32fa <free>

00001390 <_ZN4PinSILh56ELh54ELh55ELh1EED0Ev>:
    1390:	0c 94 7d 19 	jmp	0x32fa	; 0x32fa <free>

00001394 <_ZN4PinSILh56ELh54ELh55ELh2EED0Ev>:
    1394:	0c 94 7d 19 	jmp	0x32fa	; 0x32fa <free>

00001398 <_ZN4PinSILh56ELh54ELh55ELh3EED0Ev>:
    1398:	0c 94 7d 19 	jmp	0x32fa	; 0x32fa <free>

0000139c <_ZN4PinSILh56ELh54ELh55ELh4EED0Ev>:
    139c:	0c 94 7d 19 	jmp	0x32fa	; 0x32fa <free>

000013a0 <_ZN4PinSILh56ELh54ELh55ELh5EED0Ev>:
    13a0:	0c 94 7d 19 	jmp	0x32fa	; 0x32fa <free>

000013a4 <_ZN4PinSILh56ELh54ELh55ELh6EED0Ev>:
    13a4:	0c 94 7d 19 	jmp	0x32fa	; 0x32fa <free>

000013a8 <_ZN4PinSILh56ELh54ELh55ELh7EED0Ev>:
    13a8:	0c 94 7d 19 	jmp	0x32fa	; 0x32fa <free>

000013ac <_ZN4PinSILh50ELh48ELh49ELh5EED0Ev>:
    13ac:	0c 94 7d 19 	jmp	0x32fa	; 0x32fa <free>

000013b0 <_ZN4PinSILh50ELh48ELh49ELh6EED0Ev>:
    13b0:	0c 94 7d 19 	jmp	0x32fa	; 0x32fa <free>

000013b4 <_ZN4PinSILh50ELh48ELh49ELh4EED0Ev>:
    13b4:	0c 94 7d 19 	jmp	0x32fa	; 0x32fa <free>

000013b8 <_ZN4PinSILh50ELh48ELh49ELh3EED0Ev>:
    13b8:	0c 94 7d 19 	jmp	0x32fa	; 0x32fa <free>

000013bc <_ZN4PinSILh50ELh48ELh49ELh3EE7BoolSetEb>:
    13bc:	dc 01       	movw	r26, r24
    13be:	ed 91       	ld	r30, X+
    13c0:	fc 91       	ld	r31, X
    13c2:	61 11       	cpse	r22, r1
    13c4:	0a c0       	rjmp	.+20     	; 0x13da <_ZN4PinSILh50ELh48ELh49ELh3EE7BoolSetEb+0x1e>
    13c6:	00 88       	ldd	r0, Z+16	; 0x10
    13c8:	f1 89       	ldd	r31, Z+17	; 0x11
    13ca:	e0 2d       	mov	r30, r0
    13cc:	b8 e0       	ldi	r27, 0x08	; 8
    13ce:	e7 31       	cpi	r30, 0x17	; 23
    13d0:	fb 07       	cpc	r31, r27
    13d2:	11 f4       	brne	.+4      	; 0x13d8 <_ZN4PinSILh50ELh48ELh49ELh3EE7BoolSetEb+0x1c>
    13d4:	93 98       	cbi	0x12, 3	; 18
    13d6:	08 95       	ret
    13d8:	09 94       	ijmp
    13da:	06 84       	ldd	r0, Z+14	; 0x0e
    13dc:	f7 85       	ldd	r31, Z+15	; 0x0f
    13de:	e0 2d       	mov	r30, r0
    13e0:	b8 e0       	ldi	r27, 0x08	; 8
    13e2:	e5 31       	cpi	r30, 0x15	; 21
    13e4:	fb 07       	cpc	r31, r27
    13e6:	c1 f7       	brne	.-16     	; 0x13d8 <_ZN4PinSILh50ELh48ELh49ELh3EE7BoolSetEb+0x1c>
    13e8:	93 9a       	sbi	0x12, 3	; 18
    13ea:	08 95       	ret

000013ec <_ZN4PinSILh59ELh57ELh58ELh0EE7BoolSetEb>:
    13ec:	dc 01       	movw	r26, r24
    13ee:	ed 91       	ld	r30, X+
    13f0:	fc 91       	ld	r31, X
    13f2:	61 11       	cpse	r22, r1
    13f4:	0a c0       	rjmp	.+20     	; 0x140a <_ZN4PinSILh59ELh57ELh58ELh0EE7BoolSetEb+0x1e>
    13f6:	00 88       	ldd	r0, Z+16	; 0x10
    13f8:	f1 89       	ldd	r31, Z+17	; 0x11
    13fa:	e0 2d       	mov	r30, r0
    13fc:	b9 e0       	ldi	r27, 0x09	; 9
    13fe:	e5 3b       	cpi	r30, 0xB5	; 181
    1400:	fb 07       	cpc	r31, r27
    1402:	11 f4       	brne	.+4      	; 0x1408 <_ZN4PinSILh59ELh57ELh58ELh0EE7BoolSetEb+0x1c>
    1404:	d8 98       	cbi	0x1b, 0	; 27
    1406:	08 95       	ret
    1408:	09 94       	ijmp
    140a:	06 84       	ldd	r0, Z+14	; 0x0e
    140c:	f7 85       	ldd	r31, Z+15	; 0x0f
    140e:	e0 2d       	mov	r30, r0
    1410:	b9 e0       	ldi	r27, 0x09	; 9
    1412:	e3 3b       	cpi	r30, 0xB3	; 179
    1414:	fb 07       	cpc	r31, r27
    1416:	c1 f7       	brne	.-16     	; 0x1408 <_ZN4PinSILh59ELh57ELh58ELh0EE7BoolSetEb+0x1c>
    1418:	d8 9a       	sbi	0x1b, 0	; 27
    141a:	08 95       	ret

0000141c <_ZN4PinSILh56ELh54ELh55ELh5EE7BoolSetEb>:
    141c:	dc 01       	movw	r26, r24
    141e:	ed 91       	ld	r30, X+
    1420:	fc 91       	ld	r31, X
    1422:	61 11       	cpse	r22, r1
    1424:	0a c0       	rjmp	.+20     	; 0x143a <_ZN4PinSILh56ELh54ELh55ELh5EE7BoolSetEb+0x1e>
    1426:	00 88       	ldd	r0, Z+16	; 0x10
    1428:	f1 89       	ldd	r31, Z+17	; 0x11
    142a:	e0 2d       	mov	r30, r0
    142c:	b8 e0       	ldi	r27, 0x08	; 8
    142e:	e4 3c       	cpi	r30, 0xC4	; 196
    1430:	fb 07       	cpc	r31, r27
    1432:	11 f4       	brne	.+4      	; 0x1438 <_ZN4PinSILh56ELh54ELh55ELh5EE7BoolSetEb+0x1c>
    1434:	c5 98       	cbi	0x18, 5	; 24
    1436:	08 95       	ret
    1438:	09 94       	ijmp
    143a:	06 84       	ldd	r0, Z+14	; 0x0e
    143c:	f7 85       	ldd	r31, Z+15	; 0x0f
    143e:	e0 2d       	mov	r30, r0
    1440:	b8 e0       	ldi	r27, 0x08	; 8
    1442:	e2 3c       	cpi	r30, 0xC2	; 194
    1444:	fb 07       	cpc	r31, r27
    1446:	c1 f7       	brne	.-16     	; 0x1438 <_ZN4PinSILh56ELh54ELh55ELh5EE7BoolSetEb+0x1c>
    1448:	c5 9a       	sbi	0x18, 5	; 24
    144a:	08 95       	ret

0000144c <_ZN4PinSILh50ELh48ELh49ELh6EE7BoolSetEb>:
    144c:	dc 01       	movw	r26, r24
    144e:	ed 91       	ld	r30, X+
    1450:	fc 91       	ld	r31, X
    1452:	61 11       	cpse	r22, r1
    1454:	0a c0       	rjmp	.+20     	; 0x146a <_ZN4PinSILh50ELh48ELh49ELh6EE7BoolSetEb+0x1e>
    1456:	00 88       	ldd	r0, Z+16	; 0x10
    1458:	f1 89       	ldd	r31, Z+17	; 0x11
    145a:	e0 2d       	mov	r30, r0
    145c:	b8 e0       	ldi	r27, 0x08	; 8
    145e:	eb 34       	cpi	r30, 0x4B	; 75
    1460:	fb 07       	cpc	r31, r27
    1462:	11 f4       	brne	.+4      	; 0x1468 <_ZN4PinSILh50ELh48ELh49ELh6EE7BoolSetEb+0x1c>
    1464:	96 98       	cbi	0x12, 6	; 18
    1466:	08 95       	ret
    1468:	09 94       	ijmp
    146a:	06 84       	ldd	r0, Z+14	; 0x0e
    146c:	f7 85       	ldd	r31, Z+15	; 0x0f
    146e:	e0 2d       	mov	r30, r0
    1470:	b8 e0       	ldi	r27, 0x08	; 8
    1472:	e9 34       	cpi	r30, 0x49	; 73
    1474:	fb 07       	cpc	r31, r27
    1476:	c1 f7       	brne	.-16     	; 0x1468 <_ZN4PinSILh50ELh48ELh49ELh6EE7BoolSetEb+0x1c>
    1478:	96 9a       	sbi	0x12, 6	; 18
    147a:	08 95       	ret

0000147c <_ZN4PinSILh56ELh54ELh55ELh1EE7BoolSetEb>:
    147c:	dc 01       	movw	r26, r24
    147e:	ed 91       	ld	r30, X+
    1480:	fc 91       	ld	r31, X
    1482:	61 11       	cpse	r22, r1
    1484:	0a c0       	rjmp	.+20     	; 0x149a <_ZN4PinSILh56ELh54ELh55ELh1EE7BoolSetEb+0x1e>
    1486:	00 88       	ldd	r0, Z+16	; 0x10
    1488:	f1 89       	ldd	r31, Z+17	; 0x11
    148a:	e0 2d       	mov	r30, r0
    148c:	b9 e0       	ldi	r27, 0x09	; 9
    148e:	ee 33       	cpi	r30, 0x3E	; 62
    1490:	fb 07       	cpc	r31, r27
    1492:	11 f4       	brne	.+4      	; 0x1498 <_ZN4PinSILh56ELh54ELh55ELh1EE7BoolSetEb+0x1c>
    1494:	c1 98       	cbi	0x18, 1	; 24
    1496:	08 95       	ret
    1498:	09 94       	ijmp
    149a:	06 84       	ldd	r0, Z+14	; 0x0e
    149c:	f7 85       	ldd	r31, Z+15	; 0x0f
    149e:	e0 2d       	mov	r30, r0
    14a0:	b9 e0       	ldi	r27, 0x09	; 9
    14a2:	ec 33       	cpi	r30, 0x3C	; 60
    14a4:	fb 07       	cpc	r31, r27
    14a6:	c1 f7       	brne	.-16     	; 0x1498 <_ZN4PinSILh56ELh54ELh55ELh1EE7BoolSetEb+0x1c>
    14a8:	c1 9a       	sbi	0x18, 1	; 24
    14aa:	08 95       	ret

000014ac <_ZN4PinSILh50ELh48ELh49ELh4EE7BoolSetEb>:
    14ac:	dc 01       	movw	r26, r24
    14ae:	ed 91       	ld	r30, X+
    14b0:	fc 91       	ld	r31, X
    14b2:	61 11       	cpse	r22, r1
    14b4:	0a c0       	rjmp	.+20     	; 0x14ca <_ZN4PinSILh50ELh48ELh49ELh4EE7BoolSetEb+0x1e>
    14b6:	00 88       	ldd	r0, Z+16	; 0x10
    14b8:	f1 89       	ldd	r31, Z+17	; 0x11
    14ba:	e0 2d       	mov	r30, r0
    14bc:	b8 e0       	ldi	r27, 0x08	; 8
    14be:	e1 33       	cpi	r30, 0x31	; 49
    14c0:	fb 07       	cpc	r31, r27
    14c2:	11 f4       	brne	.+4      	; 0x14c8 <_ZN4PinSILh50ELh48ELh49ELh4EE7BoolSetEb+0x1c>
    14c4:	94 98       	cbi	0x12, 4	; 18
    14c6:	08 95       	ret
    14c8:	09 94       	ijmp
    14ca:	06 84       	ldd	r0, Z+14	; 0x0e
    14cc:	f7 85       	ldd	r31, Z+15	; 0x0f
    14ce:	e0 2d       	mov	r30, r0
    14d0:	b8 e0       	ldi	r27, 0x08	; 8
    14d2:	ef 32       	cpi	r30, 0x2F	; 47
    14d4:	fb 07       	cpc	r31, r27
    14d6:	c1 f7       	brne	.-16     	; 0x14c8 <_ZN4PinSILh50ELh48ELh49ELh4EE7BoolSetEb+0x1c>
    14d8:	94 9a       	sbi	0x12, 4	; 18
    14da:	08 95       	ret

000014dc <_ZN4PinSILh56ELh54ELh55ELh3EE7BoolSetEb>:
    14dc:	dc 01       	movw	r26, r24
    14de:	ed 91       	ld	r30, X+
    14e0:	fc 91       	ld	r31, X
    14e2:	61 11       	cpse	r22, r1
    14e4:	0a c0       	rjmp	.+20     	; 0x14fa <_ZN4PinSILh56ELh54ELh55ELh3EE7BoolSetEb+0x1e>
    14e6:	00 88       	ldd	r0, Z+16	; 0x10
    14e8:	f1 89       	ldd	r31, Z+17	; 0x11
    14ea:	e0 2d       	mov	r30, r0
    14ec:	b9 e0       	ldi	r27, 0x09	; 9
    14ee:	e1 30       	cpi	r30, 0x01	; 1
    14f0:	fb 07       	cpc	r31, r27
    14f2:	11 f4       	brne	.+4      	; 0x14f8 <_ZN4PinSILh56ELh54ELh55ELh3EE7BoolSetEb+0x1c>
    14f4:	c3 98       	cbi	0x18, 3	; 24
    14f6:	08 95       	ret
    14f8:	09 94       	ijmp
    14fa:	06 84       	ldd	r0, Z+14	; 0x0e
    14fc:	f7 85       	ldd	r31, Z+15	; 0x0f
    14fe:	e0 2d       	mov	r30, r0
    1500:	b8 e0       	ldi	r27, 0x08	; 8
    1502:	ef 3f       	cpi	r30, 0xFF	; 255
    1504:	fb 07       	cpc	r31, r27
    1506:	c1 f7       	brne	.-16     	; 0x14f8 <_ZN4PinSILh56ELh54ELh55ELh3EE7BoolSetEb+0x1c>
    1508:	c3 9a       	sbi	0x18, 3	; 24
    150a:	08 95       	ret

0000150c <_ZN4PinSILh56ELh54ELh55ELh2EE7BoolSetEb>:
    150c:	dc 01       	movw	r26, r24
    150e:	ed 91       	ld	r30, X+
    1510:	fc 91       	ld	r31, X
    1512:	61 11       	cpse	r22, r1
    1514:	0a c0       	rjmp	.+20     	; 0x152a <_ZN4PinSILh56ELh54ELh55ELh2EE7BoolSetEb+0x1e>
    1516:	00 88       	ldd	r0, Z+16	; 0x10
    1518:	f1 89       	ldd	r31, Z+17	; 0x11
    151a:	e0 2d       	mov	r30, r0
    151c:	b9 e0       	ldi	r27, 0x09	; 9
    151e:	e0 32       	cpi	r30, 0x20	; 32
    1520:	fb 07       	cpc	r31, r27
    1522:	11 f4       	brne	.+4      	; 0x1528 <_ZN4PinSILh56ELh54ELh55ELh2EE7BoolSetEb+0x1c>
    1524:	c2 98       	cbi	0x18, 2	; 24
    1526:	08 95       	ret
    1528:	09 94       	ijmp
    152a:	06 84       	ldd	r0, Z+14	; 0x0e
    152c:	f7 85       	ldd	r31, Z+15	; 0x0f
    152e:	e0 2d       	mov	r30, r0
    1530:	b9 e0       	ldi	r27, 0x09	; 9
    1532:	ee 31       	cpi	r30, 0x1E	; 30
    1534:	fb 07       	cpc	r31, r27
    1536:	c1 f7       	brne	.-16     	; 0x1528 <_ZN4PinSILh56ELh54ELh55ELh2EE7BoolSetEb+0x1c>
    1538:	c2 9a       	sbi	0x18, 2	; 24
    153a:	08 95       	ret

0000153c <_ZN4PinSILh56ELh54ELh55ELh7EE7BoolSetEb>:
    153c:	dc 01       	movw	r26, r24
    153e:	ed 91       	ld	r30, X+
    1540:	fc 91       	ld	r31, X
    1542:	61 11       	cpse	r22, r1
    1544:	0a c0       	rjmp	.+20     	; 0x155a <_ZN4PinSILh56ELh54ELh55ELh7EE7BoolSetEb+0x1e>
    1546:	00 88       	ldd	r0, Z+16	; 0x10
    1548:	f1 89       	ldd	r31, Z+17	; 0x11
    154a:	e0 2d       	mov	r30, r0
    154c:	b8 e0       	ldi	r27, 0x08	; 8
    154e:	e7 38       	cpi	r30, 0x87	; 135
    1550:	fb 07       	cpc	r31, r27
    1552:	11 f4       	brne	.+4      	; 0x1558 <_ZN4PinSILh56ELh54ELh55ELh7EE7BoolSetEb+0x1c>
    1554:	c7 98       	cbi	0x18, 7	; 24
    1556:	08 95       	ret
    1558:	09 94       	ijmp
    155a:	06 84       	ldd	r0, Z+14	; 0x0e
    155c:	f7 85       	ldd	r31, Z+15	; 0x0f
    155e:	e0 2d       	mov	r30, r0
    1560:	b8 e0       	ldi	r27, 0x08	; 8
    1562:	e5 38       	cpi	r30, 0x85	; 133
    1564:	fb 07       	cpc	r31, r27
    1566:	c1 f7       	brne	.-16     	; 0x1558 <_ZN4PinSILh56ELh54ELh55ELh7EE7BoolSetEb+0x1c>
    1568:	c7 9a       	sbi	0x18, 7	; 24
    156a:	08 95       	ret

0000156c <_ZN4PinSILh56ELh54ELh55ELh6EE7BoolSetEb>:
    156c:	dc 01       	movw	r26, r24
    156e:	ed 91       	ld	r30, X+
    1570:	fc 91       	ld	r31, X
    1572:	61 11       	cpse	r22, r1
    1574:	0a c0       	rjmp	.+20     	; 0x158a <_ZN4PinSILh56ELh54ELh55ELh6EE7BoolSetEb+0x1e>
    1576:	00 88       	ldd	r0, Z+16	; 0x10
    1578:	f1 89       	ldd	r31, Z+17	; 0x11
    157a:	e0 2d       	mov	r30, r0
    157c:	b8 e0       	ldi	r27, 0x08	; 8
    157e:	e5 3a       	cpi	r30, 0xA5	; 165
    1580:	fb 07       	cpc	r31, r27
    1582:	11 f4       	brne	.+4      	; 0x1588 <_ZN4PinSILh56ELh54ELh55ELh6EE7BoolSetEb+0x1c>
    1584:	c6 98       	cbi	0x18, 6	; 24
    1586:	08 95       	ret
    1588:	09 94       	ijmp
    158a:	06 84       	ldd	r0, Z+14	; 0x0e
    158c:	f7 85       	ldd	r31, Z+15	; 0x0f
    158e:	e0 2d       	mov	r30, r0
    1590:	b8 e0       	ldi	r27, 0x08	; 8
    1592:	e3 3a       	cpi	r30, 0xA3	; 163
    1594:	fb 07       	cpc	r31, r27
    1596:	c1 f7       	brne	.-16     	; 0x1588 <_ZN4PinSILh56ELh54ELh55ELh6EE7BoolSetEb+0x1c>
    1598:	c6 9a       	sbi	0x18, 6	; 24
    159a:	08 95       	ret

0000159c <_ZN4PinSILh50ELh48ELh49ELh5EE7BoolSetEb>:
    159c:	dc 01       	movw	r26, r24
    159e:	ed 91       	ld	r30, X+
    15a0:	fc 91       	ld	r31, X
    15a2:	61 11       	cpse	r22, r1
    15a4:	0a c0       	rjmp	.+20     	; 0x15ba <_ZN4PinSILh50ELh48ELh49ELh5EE7BoolSetEb+0x1e>
    15a6:	00 88       	ldd	r0, Z+16	; 0x10
    15a8:	f1 89       	ldd	r31, Z+17	; 0x11
    15aa:	e0 2d       	mov	r30, r0
    15ac:	b8 e0       	ldi	r27, 0x08	; 8
    15ae:	ea 36       	cpi	r30, 0x6A	; 106
    15b0:	fb 07       	cpc	r31, r27
    15b2:	11 f4       	brne	.+4      	; 0x15b8 <_ZN4PinSILh50ELh48ELh49ELh5EE7BoolSetEb+0x1c>
    15b4:	95 98       	cbi	0x12, 5	; 18
    15b6:	08 95       	ret
    15b8:	09 94       	ijmp
    15ba:	06 84       	ldd	r0, Z+14	; 0x0e
    15bc:	f7 85       	ldd	r31, Z+15	; 0x0f
    15be:	e0 2d       	mov	r30, r0
    15c0:	b8 e0       	ldi	r27, 0x08	; 8
    15c2:	e8 36       	cpi	r30, 0x68	; 104
    15c4:	fb 07       	cpc	r31, r27
    15c6:	c1 f7       	brne	.-16     	; 0x15b8 <_ZN4PinSILh50ELh48ELh49ELh5EE7BoolSetEb+0x1c>
    15c8:	95 9a       	sbi	0x12, 5	; 18
    15ca:	08 95       	ret

000015cc <_ZN4PinSILh59ELh57ELh58ELh2EE7BoolSetEb>:
    15cc:	dc 01       	movw	r26, r24
    15ce:	ed 91       	ld	r30, X+
    15d0:	fc 91       	ld	r31, X
    15d2:	61 11       	cpse	r22, r1
    15d4:	0a c0       	rjmp	.+20     	; 0x15ea <_ZN4PinSILh59ELh57ELh58ELh2EE7BoolSetEb+0x1e>
    15d6:	00 88       	ldd	r0, Z+16	; 0x10
    15d8:	f1 89       	ldd	r31, Z+17	; 0x11
    15da:	e0 2d       	mov	r30, r0
    15dc:	b9 e0       	ldi	r27, 0x09	; 9
    15de:	ea 37       	cpi	r30, 0x7A	; 122
    15e0:	fb 07       	cpc	r31, r27
    15e2:	11 f4       	brne	.+4      	; 0x15e8 <_ZN4PinSILh59ELh57ELh58ELh2EE7BoolSetEb+0x1c>
    15e4:	da 98       	cbi	0x1b, 2	; 27
    15e6:	08 95       	ret
    15e8:	09 94       	ijmp
    15ea:	06 84       	ldd	r0, Z+14	; 0x0e
    15ec:	f7 85       	ldd	r31, Z+15	; 0x0f
    15ee:	e0 2d       	mov	r30, r0
    15f0:	b9 e0       	ldi	r27, 0x09	; 9
    15f2:	e8 37       	cpi	r30, 0x78	; 120
    15f4:	fb 07       	cpc	r31, r27
    15f6:	c1 f7       	brne	.-16     	; 0x15e8 <_ZN4PinSILh59ELh57ELh58ELh2EE7BoolSetEb+0x1c>
    15f8:	da 9a       	sbi	0x1b, 2	; 27
    15fa:	08 95       	ret

000015fc <_ZN4PinSILh56ELh54ELh55ELh4EE7BoolSetEb>:
    15fc:	dc 01       	movw	r26, r24
    15fe:	ed 91       	ld	r30, X+
    1600:	fc 91       	ld	r31, X
    1602:	61 11       	cpse	r22, r1
    1604:	0a c0       	rjmp	.+20     	; 0x161a <_ZN4PinSILh56ELh54ELh55ELh4EE7BoolSetEb+0x1e>
    1606:	00 88       	ldd	r0, Z+16	; 0x10
    1608:	f1 89       	ldd	r31, Z+17	; 0x11
    160a:	e0 2d       	mov	r30, r0
    160c:	b8 e0       	ldi	r27, 0x08	; 8
    160e:	e2 3e       	cpi	r30, 0xE2	; 226
    1610:	fb 07       	cpc	r31, r27
    1612:	11 f4       	brne	.+4      	; 0x1618 <_ZN4PinSILh56ELh54ELh55ELh4EE7BoolSetEb+0x1c>
    1614:	c4 98       	cbi	0x18, 4	; 24
    1616:	08 95       	ret
    1618:	09 94       	ijmp
    161a:	06 84       	ldd	r0, Z+14	; 0x0e
    161c:	f7 85       	ldd	r31, Z+15	; 0x0f
    161e:	e0 2d       	mov	r30, r0
    1620:	b8 e0       	ldi	r27, 0x08	; 8
    1622:	e0 3e       	cpi	r30, 0xE0	; 224
    1624:	fb 07       	cpc	r31, r27
    1626:	c1 f7       	brne	.-16     	; 0x1618 <_ZN4PinSILh56ELh54ELh55ELh4EE7BoolSetEb+0x1c>
    1628:	c4 9a       	sbi	0x18, 4	; 24
    162a:	08 95       	ret

0000162c <_ZN4PinSILh56ELh54ELh55ELh0EE7BoolSetEb>:
    162c:	dc 01       	movw	r26, r24
    162e:	ed 91       	ld	r30, X+
    1630:	fc 91       	ld	r31, X
    1632:	61 11       	cpse	r22, r1
    1634:	0a c0       	rjmp	.+20     	; 0x164a <_ZN4PinSILh56ELh54ELh55ELh0EE7BoolSetEb+0x1e>
    1636:	00 88       	ldd	r0, Z+16	; 0x10
    1638:	f1 89       	ldd	r31, Z+17	; 0x11
    163a:	e0 2d       	mov	r30, r0
    163c:	b9 e0       	ldi	r27, 0x09	; 9
    163e:	eb 35       	cpi	r30, 0x5B	; 91
    1640:	fb 07       	cpc	r31, r27
    1642:	11 f4       	brne	.+4      	; 0x1648 <_ZN4PinSILh56ELh54ELh55ELh0EE7BoolSetEb+0x1c>
    1644:	c0 98       	cbi	0x18, 0	; 24
    1646:	08 95       	ret
    1648:	09 94       	ijmp
    164a:	06 84       	ldd	r0, Z+14	; 0x0e
    164c:	f7 85       	ldd	r31, Z+15	; 0x0f
    164e:	e0 2d       	mov	r30, r0
    1650:	b9 e0       	ldi	r27, 0x09	; 9
    1652:	e9 35       	cpi	r30, 0x59	; 89
    1654:	fb 07       	cpc	r31, r27
    1656:	c1 f7       	brne	.-16     	; 0x1648 <_ZN4PinSILh56ELh54ELh55ELh0EE7BoolSetEb+0x1c>
    1658:	c0 9a       	sbi	0x18, 0	; 24
    165a:	08 95       	ret

0000165c <_ZN4PinSILh59ELh57ELh58ELh1EE7BoolSetEb>:
    165c:	dc 01       	movw	r26, r24
    165e:	ed 91       	ld	r30, X+
    1660:	fc 91       	ld	r31, X
    1662:	61 11       	cpse	r22, r1
    1664:	0a c0       	rjmp	.+20     	; 0x167a <_ZN4PinSILh59ELh57ELh58ELh1EE7BoolSetEb+0x1e>
    1666:	00 88       	ldd	r0, Z+16	; 0x10
    1668:	f1 89       	ldd	r31, Z+17	; 0x11
    166a:	e0 2d       	mov	r30, r0
    166c:	b9 e0       	ldi	r27, 0x09	; 9
    166e:	e8 39       	cpi	r30, 0x98	; 152
    1670:	fb 07       	cpc	r31, r27
    1672:	11 f4       	brne	.+4      	; 0x1678 <_ZN4PinSILh59ELh57ELh58ELh1EE7BoolSetEb+0x1c>
    1674:	d9 98       	cbi	0x1b, 1	; 27
    1676:	08 95       	ret
    1678:	09 94       	ijmp
    167a:	06 84       	ldd	r0, Z+14	; 0x0e
    167c:	f7 85       	ldd	r31, Z+15	; 0x0f
    167e:	e0 2d       	mov	r30, r0
    1680:	b9 e0       	ldi	r27, 0x09	; 9
    1682:	e6 39       	cpi	r30, 0x96	; 150
    1684:	fb 07       	cpc	r31, r27
    1686:	c1 f7       	brne	.-16     	; 0x1678 <_ZN4PinSILh59ELh57ELh58ELh1EE7BoolSetEb+0x1c>
    1688:	d9 9a       	sbi	0x1b, 1	; 27
    168a:	08 95       	ret

0000168c <_ZN6Sh110617PrintDebugMessageEh>:
    168c:	2f 92       	push	r2
    168e:	3f 92       	push	r3
    1690:	4f 92       	push	r4
    1692:	5f 92       	push	r5
    1694:	6f 92       	push	r6
    1696:	7f 92       	push	r7
    1698:	8f 92       	push	r8
    169a:	9f 92       	push	r9
    169c:	af 92       	push	r10
    169e:	bf 92       	push	r11
    16a0:	cf 92       	push	r12
    16a2:	df 92       	push	r13
    16a4:	ef 92       	push	r14
    16a6:	ff 92       	push	r15
    16a8:	0f 93       	push	r16
    16aa:	1f 93       	push	r17
    16ac:	cf 93       	push	r28
    16ae:	df 93       	push	r29
    16b0:	cd b7       	in	r28, 0x3d	; 61
    16b2:	de b7       	in	r29, 0x3e	; 62
    16b4:	6c 97       	sbiw	r28, 0x1c	; 28
    16b6:	0f b6       	in	r0, 0x3f	; 63
    16b8:	f8 94       	cli
    16ba:	de bf       	out	0x3e, r29	; 62
    16bc:	0f be       	out	0x3f, r0	; 63
    16be:	cd bf       	out	0x3d, r28	; 61
    16c0:	8c 01       	movw	r16, r24
    16c2:	56 2e       	mov	r5, r22
    16c4:	4a e1       	ldi	r20, 0x1A	; 26
    16c6:	50 e0       	ldi	r21, 0x00	; 0
    16c8:	60 e0       	ldi	r22, 0x00	; 0
    16ca:	70 e0       	ldi	r23, 0x00	; 0
    16cc:	ce 01       	movw	r24, r28
    16ce:	01 96       	adiw	r24, 0x01	; 1
    16d0:	0e 94 15 1a 	call	0x342a	; 0x342a <eeprom_read_block>
    16d4:	d8 01       	movw	r26, r16
    16d6:	8d 91       	ld	r24, X+
    16d8:	9c 91       	ld	r25, X
    16da:	dc 01       	movw	r26, r24
    16dc:	ed 91       	ld	r30, X+
    16de:	fc 91       	ld	r31, X
    16e0:	00 88       	ldd	r0, Z+16	; 0x10
    16e2:	f1 89       	ldd	r31, Z+17	; 0x11
    16e4:	e0 2d       	mov	r30, r0
    16e6:	09 95       	icall
    16e8:	f8 01       	movw	r30, r16
    16ea:	86 8d       	ldd	r24, Z+30	; 0x1e
    16ec:	8f b9       	out	0x0f, r24	; 15
    16ee:	77 9b       	sbis	0x0e, 7	; 14
    16f0:	fe cf       	rjmp	.-4      	; 0x16ee <_ZN6Sh110617PrintDebugMessageEh+0x62>
    16f2:	80 eb       	ldi	r24, 0xB0	; 176
    16f4:	8f b9       	out	0x0f, r24	; 15
    16f6:	77 9b       	sbis	0x0e, 7	; 14
    16f8:	fe cf       	rjmp	.-4      	; 0x16f6 <_ZN6Sh110617PrintDebugMessageEh+0x6a>
    16fa:	d8 01       	movw	r26, r16
    16fc:	5f 96       	adiw	r26, 0x1f	; 31
    16fe:	8c 91       	ld	r24, X
    1700:	8f b9       	out	0x0f, r24	; 15
    1702:	77 9b       	sbis	0x0e, 7	; 14
    1704:	fe cf       	rjmp	.-4      	; 0x1702 <_ZN6Sh110617PrintDebugMessageEh+0x76>
    1706:	f8 01       	movw	r30, r16
    1708:	80 81       	ld	r24, Z
    170a:	91 81       	ldd	r25, Z+1	; 0x01
    170c:	dc 01       	movw	r26, r24
    170e:	ed 91       	ld	r30, X+
    1710:	fc 91       	ld	r31, X
    1712:	06 84       	ldd	r0, Z+14	; 0x0e
    1714:	f7 85       	ldd	r31, Z+15	; 0x0f
    1716:	e0 2d       	mov	r30, r0
    1718:	09 95       	icall
    171a:	1f b8       	out	0x0f, r1	; 15
    171c:	77 9b       	sbis	0x0e, 7	; 14
    171e:	fe cf       	rjmp	.-4      	; 0x171c <_ZN6Sh110617PrintDebugMessageEh+0x90>
    1720:	f8 01       	movw	r30, r16
    1722:	80 81       	ld	r24, Z
    1724:	91 81       	ldd	r25, Z+1	; 0x01
    1726:	dc 01       	movw	r26, r24
    1728:	ed 91       	ld	r30, X+
    172a:	fc 91       	ld	r31, X
    172c:	06 84       	ldd	r0, Z+14	; 0x0e
    172e:	f7 85       	ldd	r31, Z+15	; 0x0f
    1730:	e0 2d       	mov	r30, r0
    1732:	09 95       	icall
    1734:	b9 80       	ldd	r11, Y+1	; 0x01
    1736:	bb 20       	and	r11, r11
    1738:	09 f4       	brne	.+2      	; 0x173c <_ZN6Sh110617PrintDebugMessageEh+0xb0>
    173a:	43 c0       	rjmp	.+134    	; 0x17c2 <_ZN6Sh110617PrintDebugMessageEh+0x136>
    173c:	4e 01       	movw	r8, r28
    173e:	f2 e0       	ldi	r31, 0x02	; 2
    1740:	8f 0e       	add	r8, r31
    1742:	91 1c       	adc	r9, r1
    1744:	d8 01       	movw	r26, r16
    1746:	8d 91       	ld	r24, X+
    1748:	9c 91       	ld	r25, X
    174a:	dc 01       	movw	r26, r24
    174c:	ed 91       	ld	r30, X+
    174e:	fc 91       	ld	r31, X
    1750:	06 84       	ldd	r0, Z+14	; 0x0e
    1752:	f7 85       	ldd	r31, Z+15	; 0x0f
    1754:	e0 2d       	mov	r30, r0
    1756:	09 95       	icall
    1758:	8b 2d       	mov	r24, r11
    175a:	90 e0       	ldi	r25, 0x00	; 0
    175c:	88 97       	sbiw	r24, 0x28	; 40
    175e:	6c 01       	movw	r12, r24
    1760:	cc 0c       	add	r12, r12
    1762:	dd 1c       	adc	r13, r13
    1764:	cc 0c       	add	r12, r12
    1766:	dd 1c       	adc	r13, r13
    1768:	8c 0d       	add	r24, r12
    176a:	9d 1d       	adc	r25, r13
    176c:	fc 01       	movw	r30, r24
    176e:	e9 5d       	subi	r30, 0xD9	; 217
    1770:	ff 4f       	sbci	r31, 0xFF	; 255
    1772:	7f 01       	movw	r14, r30
    1774:	9c 01       	movw	r18, r24
    1776:	24 5d       	subi	r18, 0xD4	; 212
    1778:	3f 4f       	sbci	r19, 0xFF	; 255
    177a:	69 01       	movw	r12, r18
    177c:	30 e2       	ldi	r19, 0x20	; 32
    177e:	b3 16       	cp	r11, r19
    1780:	11 f4       	brne	.+4      	; 0x1786 <_ZN6Sh110617PrintDebugMessageEh+0xfa>
    1782:	0c 94 1c 16 	jmp	0x2c38	; 0x2c38 <_ZN6Sh110617PrintDebugMessageEh+0x15ac>
    1786:	c7 01       	movw	r24, r14
    1788:	0e 94 25 1a 	call	0x344a	; 0x344a <eeprom_read_byte>
    178c:	8f b9       	out	0x0f, r24	; 15
    178e:	77 9b       	sbis	0x0e, 7	; 14
    1790:	fe cf       	rjmp	.-4      	; 0x178e <_ZN6Sh110617PrintDebugMessageEh+0x102>
    1792:	8f ef       	ldi	r24, 0xFF	; 255
    1794:	e8 1a       	sub	r14, r24
    1796:	f8 0a       	sbc	r15, r24
    1798:	ec 14       	cp	r14, r12
    179a:	fd 04       	cpc	r15, r13
    179c:	79 f7       	brne	.-34     	; 0x177c <_ZN6Sh110617PrintDebugMessageEh+0xf0>
    179e:	1f b8       	out	0x0f, r1	; 15
    17a0:	77 9b       	sbis	0x0e, 7	; 14
    17a2:	fe cf       	rjmp	.-4      	; 0x17a0 <_ZN6Sh110617PrintDebugMessageEh+0x114>
    17a4:	d8 01       	movw	r26, r16
    17a6:	8d 91       	ld	r24, X+
    17a8:	9c 91       	ld	r25, X
    17aa:	dc 01       	movw	r26, r24
    17ac:	ed 91       	ld	r30, X+
    17ae:	fc 91       	ld	r31, X
    17b0:	00 88       	ldd	r0, Z+16	; 0x10
    17b2:	f1 89       	ldd	r31, Z+17	; 0x11
    17b4:	e0 2d       	mov	r30, r0
    17b6:	09 95       	icall
    17b8:	f4 01       	movw	r30, r8
    17ba:	b1 90       	ld	r11, Z+
    17bc:	4f 01       	movw	r8, r30
    17be:	b1 10       	cpse	r11, r1
    17c0:	c1 cf       	rjmp	.-126    	; 0x1744 <_ZN6Sh110617PrintDebugMessageEh+0xb8>
    17c2:	f8 01       	movw	r30, r16
    17c4:	80 81       	ld	r24, Z
    17c6:	91 81       	ldd	r25, Z+1	; 0x01
    17c8:	dc 01       	movw	r26, r24
    17ca:	ed 91       	ld	r30, X+
    17cc:	fc 91       	ld	r31, X
    17ce:	00 88       	ldd	r0, Z+16	; 0x10
    17d0:	f1 89       	ldd	r31, Z+17	; 0x11
    17d2:	e0 2d       	mov	r30, r0
    17d4:	09 95       	icall
    17d6:	43 e0       	ldi	r20, 0x03	; 3
    17d8:	50 e0       	ldi	r21, 0x00	; 0
    17da:	64 e2       	ldi	r22, 0x24	; 36
    17dc:	70 e0       	ldi	r23, 0x00	; 0
    17de:	ce 01       	movw	r24, r28
    17e0:	01 96       	adiw	r24, 0x01	; 1
    17e2:	0e 94 15 1a 	call	0x342a	; 0x342a <eeprom_read_block>
    17e6:	f8 01       	movw	r30, r16
    17e8:	80 81       	ld	r24, Z
    17ea:	91 81       	ldd	r25, Z+1	; 0x01
    17ec:	dc 01       	movw	r26, r24
    17ee:	ed 91       	ld	r30, X+
    17f0:	fc 91       	ld	r31, X
    17f2:	00 88       	ldd	r0, Z+16	; 0x10
    17f4:	f1 89       	ldd	r31, Z+17	; 0x11
    17f6:	e0 2d       	mov	r30, r0
    17f8:	09 95       	icall
    17fa:	f8 01       	movw	r30, r16
    17fc:	86 8d       	ldd	r24, Z+30	; 0x1e
    17fe:	8f b9       	out	0x0f, r24	; 15
    1800:	77 9b       	sbis	0x0e, 7	; 14
    1802:	fe cf       	rjmp	.-4      	; 0x1800 <_ZN6Sh110617PrintDebugMessageEh+0x174>
    1804:	81 eb       	ldi	r24, 0xB1	; 177
    1806:	8f b9       	out	0x0f, r24	; 15
    1808:	77 9b       	sbis	0x0e, 7	; 14
    180a:	fe cf       	rjmp	.-4      	; 0x1808 <_ZN6Sh110617PrintDebugMessageEh+0x17c>
    180c:	d8 01       	movw	r26, r16
    180e:	5f 96       	adiw	r26, 0x1f	; 31
    1810:	8c 91       	ld	r24, X
    1812:	8f b9       	out	0x0f, r24	; 15
    1814:	77 9b       	sbis	0x0e, 7	; 14
    1816:	fe cf       	rjmp	.-4      	; 0x1814 <_ZN6Sh110617PrintDebugMessageEh+0x188>
    1818:	f8 01       	movw	r30, r16
    181a:	80 81       	ld	r24, Z
    181c:	91 81       	ldd	r25, Z+1	; 0x01
    181e:	dc 01       	movw	r26, r24
    1820:	ed 91       	ld	r30, X+
    1822:	fc 91       	ld	r31, X
    1824:	06 84       	ldd	r0, Z+14	; 0x0e
    1826:	f7 85       	ldd	r31, Z+15	; 0x0f
    1828:	e0 2d       	mov	r30, r0
    182a:	09 95       	icall
    182c:	1f b8       	out	0x0f, r1	; 15
    182e:	77 9b       	sbis	0x0e, 7	; 14
    1830:	fe cf       	rjmp	.-4      	; 0x182e <_ZN6Sh110617PrintDebugMessageEh+0x1a2>
    1832:	f8 01       	movw	r30, r16
    1834:	80 81       	ld	r24, Z
    1836:	91 81       	ldd	r25, Z+1	; 0x01
    1838:	dc 01       	movw	r26, r24
    183a:	ed 91       	ld	r30, X+
    183c:	fc 91       	ld	r31, X
    183e:	06 84       	ldd	r0, Z+14	; 0x0e
    1840:	f7 85       	ldd	r31, Z+15	; 0x0f
    1842:	e0 2d       	mov	r30, r0
    1844:	09 95       	icall
    1846:	99 80       	ldd	r9, Y+1	; 0x01
    1848:	99 20       	and	r9, r9
    184a:	09 f4       	brne	.+2      	; 0x184e <_ZN6Sh110617PrintDebugMessageEh+0x1c2>
    184c:	43 c0       	rjmp	.+134    	; 0x18d4 <_ZN6Sh110617PrintDebugMessageEh+0x248>
    184e:	5e 01       	movw	r10, r28
    1850:	b2 e0       	ldi	r27, 0x02	; 2
    1852:	ab 0e       	add	r10, r27
    1854:	b1 1c       	adc	r11, r1
    1856:	f8 01       	movw	r30, r16
    1858:	80 81       	ld	r24, Z
    185a:	91 81       	ldd	r25, Z+1	; 0x01
    185c:	dc 01       	movw	r26, r24
    185e:	ed 91       	ld	r30, X+
    1860:	fc 91       	ld	r31, X
    1862:	06 84       	ldd	r0, Z+14	; 0x0e
    1864:	f7 85       	ldd	r31, Z+15	; 0x0f
    1866:	e0 2d       	mov	r30, r0
    1868:	09 95       	icall
    186a:	89 2d       	mov	r24, r9
    186c:	90 e0       	ldi	r25, 0x00	; 0
    186e:	88 97       	sbiw	r24, 0x28	; 40
    1870:	6c 01       	movw	r12, r24
    1872:	cc 0c       	add	r12, r12
    1874:	dd 1c       	adc	r13, r13
    1876:	cc 0c       	add	r12, r12
    1878:	dd 1c       	adc	r13, r13
    187a:	8c 0d       	add	r24, r12
    187c:	9d 1d       	adc	r25, r13
    187e:	fc 01       	movw	r30, r24
    1880:	e9 5d       	subi	r30, 0xD9	; 217
    1882:	ff 4f       	sbci	r31, 0xFF	; 255
    1884:	7f 01       	movw	r14, r30
    1886:	9c 01       	movw	r18, r24
    1888:	24 5d       	subi	r18, 0xD4	; 212
    188a:	3f 4f       	sbci	r19, 0xFF	; 255
    188c:	69 01       	movw	r12, r18
    188e:	30 e2       	ldi	r19, 0x20	; 32
    1890:	93 16       	cp	r9, r19
    1892:	11 f4       	brne	.+4      	; 0x1898 <_ZN6Sh110617PrintDebugMessageEh+0x20c>
    1894:	0c 94 29 16 	jmp	0x2c52	; 0x2c52 <_ZN6Sh110617PrintDebugMessageEh+0x15c6>
    1898:	c7 01       	movw	r24, r14
    189a:	0e 94 25 1a 	call	0x344a	; 0x344a <eeprom_read_byte>
    189e:	8f b9       	out	0x0f, r24	; 15
    18a0:	77 9b       	sbis	0x0e, 7	; 14
    18a2:	fe cf       	rjmp	.-4      	; 0x18a0 <_ZN6Sh110617PrintDebugMessageEh+0x214>
    18a4:	8f ef       	ldi	r24, 0xFF	; 255
    18a6:	e8 1a       	sub	r14, r24
    18a8:	f8 0a       	sbc	r15, r24
    18aa:	ec 14       	cp	r14, r12
    18ac:	fd 04       	cpc	r15, r13
    18ae:	79 f7       	brne	.-34     	; 0x188e <_ZN6Sh110617PrintDebugMessageEh+0x202>
    18b0:	1f b8       	out	0x0f, r1	; 15
    18b2:	77 9b       	sbis	0x0e, 7	; 14
    18b4:	fe cf       	rjmp	.-4      	; 0x18b2 <_ZN6Sh110617PrintDebugMessageEh+0x226>
    18b6:	d8 01       	movw	r26, r16
    18b8:	8d 91       	ld	r24, X+
    18ba:	9c 91       	ld	r25, X
    18bc:	dc 01       	movw	r26, r24
    18be:	ed 91       	ld	r30, X+
    18c0:	fc 91       	ld	r31, X
    18c2:	00 88       	ldd	r0, Z+16	; 0x10
    18c4:	f1 89       	ldd	r31, Z+17	; 0x11
    18c6:	e0 2d       	mov	r30, r0
    18c8:	09 95       	icall
    18ca:	f5 01       	movw	r30, r10
    18cc:	91 90       	ld	r9, Z+
    18ce:	5f 01       	movw	r10, r30
    18d0:	91 10       	cpse	r9, r1
    18d2:	c1 cf       	rjmp	.-126    	; 0x1856 <_ZN6Sh110617PrintDebugMessageEh+0x1ca>
    18d4:	f8 01       	movw	r30, r16
    18d6:	80 81       	ld	r24, Z
    18d8:	91 81       	ldd	r25, Z+1	; 0x01
    18da:	dc 01       	movw	r26, r24
    18dc:	ed 91       	ld	r30, X+
    18de:	fc 91       	ld	r31, X
    18e0:	00 88       	ldd	r0, Z+16	; 0x10
    18e2:	f1 89       	ldd	r31, Z+17	; 0x11
    18e4:	e0 2d       	mov	r30, r0
    18e6:	09 95       	icall
    18e8:	6b b2       	in	r6, 0x1b	; 27
    18ea:	f8 01       	movw	r30, r16
    18ec:	80 81       	ld	r24, Z
    18ee:	91 81       	ldd	r25, Z+1	; 0x01
    18f0:	dc 01       	movw	r26, r24
    18f2:	ed 91       	ld	r30, X+
    18f4:	fc 91       	ld	r31, X
    18f6:	06 84       	ldd	r0, Z+14	; 0x0e
    18f8:	f7 85       	ldd	r31, Z+15	; 0x0f
    18fa:	e0 2d       	mov	r30, r0
    18fc:	09 95       	icall
    18fe:	3b ec       	ldi	r19, 0xCB	; 203
    1900:	a3 2e       	mov	r10, r19
    1902:	31 e0       	ldi	r19, 0x01	; 1
    1904:	b3 2e       	mov	r11, r19
    1906:	40 ed       	ldi	r20, 0xD0	; 208
    1908:	e4 2e       	mov	r14, r20
    190a:	41 e0       	ldi	r20, 0x01	; 1
    190c:	f4 2e       	mov	r15, r20
    190e:	65 01       	movw	r12, r10
    1910:	c6 01       	movw	r24, r12
    1912:	0e 94 25 1a 	call	0x344a	; 0x344a <eeprom_read_byte>
    1916:	8f b9       	out	0x0f, r24	; 15
    1918:	77 9b       	sbis	0x0e, 7	; 14
    191a:	fe cf       	rjmp	.-4      	; 0x1918 <_ZN6Sh110617PrintDebugMessageEh+0x28c>
    191c:	ff ef       	ldi	r31, 0xFF	; 255
    191e:	cf 1a       	sub	r12, r31
    1920:	df 0a       	sbc	r13, r31
    1922:	20 ed       	ldi	r18, 0xD0	; 208
    1924:	c2 16       	cp	r12, r18
    1926:	21 e0       	ldi	r18, 0x01	; 1
    1928:	d2 06       	cpc	r13, r18
    192a:	91 f7       	brne	.-28     	; 0x1910 <_ZN6Sh110617PrintDebugMessageEh+0x284>
    192c:	1f b8       	out	0x0f, r1	; 15
    192e:	77 9b       	sbis	0x0e, 7	; 14
    1930:	fe cf       	rjmp	.-4      	; 0x192e <_ZN6Sh110617PrintDebugMessageEh+0x2a2>
    1932:	d8 01       	movw	r26, r16
    1934:	8d 91       	ld	r24, X+
    1936:	9c 91       	ld	r25, X
    1938:	dc 01       	movw	r26, r24
    193a:	ed 91       	ld	r30, X+
    193c:	fc 91       	ld	r31, X
    193e:	00 88       	ldd	r0, Z+16	; 0x10
    1940:	f1 89       	ldd	r31, Z+17	; 0x11
    1942:	e0 2d       	mov	r30, r0
    1944:	09 95       	icall
    1946:	71 2c       	mov	r7, r1
    1948:	81 2c       	mov	r8, r1
    194a:	91 2c       	mov	r9, r1
    194c:	f8 01       	movw	r30, r16
    194e:	80 81       	ld	r24, Z
    1950:	91 81       	ldd	r25, Z+1	; 0x01
    1952:	dc 01       	movw	r26, r24
    1954:	ed 91       	ld	r30, X+
    1956:	fc 91       	ld	r31, X
    1958:	06 84       	ldd	r0, Z+14	; 0x0e
    195a:	f7 85       	ldd	r31, Z+15	; 0x0f
    195c:	e0 2d       	mov	r30, r0
    195e:	09 95       	icall
    1960:	c3 01       	movw	r24, r6
    1962:	08 2c       	mov	r0, r8
    1964:	02 c0       	rjmp	.+4      	; 0x196a <_ZN6Sh110617PrintDebugMessageEh+0x2de>
    1966:	95 95       	asr	r25
    1968:	87 95       	ror	r24
    196a:	0a 94       	dec	r0
    196c:	e2 f7       	brpl	.-8      	; 0x1966 <_ZN6Sh110617PrintDebugMessageEh+0x2da>
    196e:	83 70       	andi	r24, 0x03	; 3
    1970:	80 5d       	subi	r24, 0xD0	; 208
    1972:	90 e0       	ldi	r25, 0x00	; 0
    1974:	88 97       	sbiw	r24, 0x28	; 40
    1976:	6c 01       	movw	r12, r24
    1978:	cc 0c       	add	r12, r12
    197a:	dd 1c       	adc	r13, r13
    197c:	cc 0c       	add	r12, r12
    197e:	dd 1c       	adc	r13, r13
    1980:	8c 0d       	add	r24, r12
    1982:	9d 1d       	adc	r25, r13
    1984:	fc 01       	movw	r30, r24
    1986:	e9 5d       	subi	r30, 0xD9	; 217
    1988:	ff 4f       	sbci	r31, 0xFF	; 255
    198a:	1f 01       	movw	r2, r30
    198c:	9c 01       	movw	r18, r24
    198e:	24 5d       	subi	r18, 0xD4	; 212
    1990:	3f 4f       	sbci	r19, 0xFF	; 255
    1992:	69 01       	movw	r12, r18
    1994:	c1 01       	movw	r24, r2
    1996:	0e 94 25 1a 	call	0x344a	; 0x344a <eeprom_read_byte>
    199a:	8f b9       	out	0x0f, r24	; 15
    199c:	77 9b       	sbis	0x0e, 7	; 14
    199e:	fe cf       	rjmp	.-4      	; 0x199c <_ZN6Sh110617PrintDebugMessageEh+0x310>
    19a0:	3f ef       	ldi	r19, 0xFF	; 255
    19a2:	23 1a       	sub	r2, r19
    19a4:	33 0a       	sbc	r3, r19
    19a6:	2c 14       	cp	r2, r12
    19a8:	3d 04       	cpc	r3, r13
    19aa:	a1 f7       	brne	.-24     	; 0x1994 <_ZN6Sh110617PrintDebugMessageEh+0x308>
    19ac:	1f b8       	out	0x0f, r1	; 15
    19ae:	77 9b       	sbis	0x0e, 7	; 14
    19b0:	fe cf       	rjmp	.-4      	; 0x19ae <_ZN6Sh110617PrintDebugMessageEh+0x322>
    19b2:	d8 01       	movw	r26, r16
    19b4:	8d 91       	ld	r24, X+
    19b6:	9c 91       	ld	r25, X
    19b8:	dc 01       	movw	r26, r24
    19ba:	ed 91       	ld	r30, X+
    19bc:	fc 91       	ld	r31, X
    19be:	00 88       	ldd	r0, Z+16	; 0x10
    19c0:	f1 89       	ldd	r31, Z+17	; 0x11
    19c2:	e0 2d       	mov	r30, r0
    19c4:	09 95       	icall
    19c6:	b2 e0       	ldi	r27, 0x02	; 2
    19c8:	8b 0e       	add	r8, r27
    19ca:	91 1c       	adc	r9, r1
    19cc:	e8 e0       	ldi	r30, 0x08	; 8
    19ce:	8e 16       	cp	r8, r30
    19d0:	91 04       	cpc	r9, r1
    19d2:	09 f0       	breq	.+2      	; 0x19d6 <_ZN6Sh110617PrintDebugMessageEh+0x34a>
    19d4:	bb cf       	rjmp	.-138    	; 0x194c <_ZN6Sh110617PrintDebugMessageEh+0x2c0>
    19d6:	d8 01       	movw	r26, r16
    19d8:	8d 91       	ld	r24, X+
    19da:	9c 91       	ld	r25, X
    19dc:	dc 01       	movw	r26, r24
    19de:	ed 91       	ld	r30, X+
    19e0:	fc 91       	ld	r31, X
    19e2:	06 84       	ldd	r0, Z+14	; 0x0e
    19e4:	f7 85       	ldd	r31, Z+15	; 0x0f
    19e6:	e0 2d       	mov	r30, r0
    19e8:	09 95       	icall
    19ea:	ab ec       	ldi	r26, 0xCB	; 203
    19ec:	ca 2e       	mov	r12, r26
    19ee:	a1 e0       	ldi	r26, 0x01	; 1
    19f0:	da 2e       	mov	r13, r26
    19f2:	c6 01       	movw	r24, r12
    19f4:	0e 94 25 1a 	call	0x344a	; 0x344a <eeprom_read_byte>
    19f8:	8f b9       	out	0x0f, r24	; 15
    19fa:	77 9b       	sbis	0x0e, 7	; 14
    19fc:	fe cf       	rjmp	.-4      	; 0x19fa <_ZN6Sh110617PrintDebugMessageEh+0x36e>
    19fe:	bf ef       	ldi	r27, 0xFF	; 255
    1a00:	cb 1a       	sub	r12, r27
    1a02:	db 0a       	sbc	r13, r27
    1a04:	ec 14       	cp	r14, r12
    1a06:	fd 04       	cpc	r15, r13
    1a08:	a1 f7       	brne	.-24     	; 0x19f2 <_ZN6Sh110617PrintDebugMessageEh+0x366>
    1a0a:	1f b8       	out	0x0f, r1	; 15
    1a0c:	77 9b       	sbis	0x0e, 7	; 14
    1a0e:	fe cf       	rjmp	.-4      	; 0x1a0c <_ZN6Sh110617PrintDebugMessageEh+0x380>
    1a10:	f8 01       	movw	r30, r16
    1a12:	80 81       	ld	r24, Z
    1a14:	91 81       	ldd	r25, Z+1	; 0x01
    1a16:	dc 01       	movw	r26, r24
    1a18:	ed 91       	ld	r30, X+
    1a1a:	fc 91       	ld	r31, X
    1a1c:	00 88       	ldd	r0, Z+16	; 0x10
    1a1e:	f1 89       	ldd	r31, Z+17	; 0x11
    1a20:	e0 2d       	mov	r30, r0
    1a22:	09 95       	icall
    1a24:	6a b2       	in	r6, 0x1a	; 26
    1a26:	f8 01       	movw	r30, r16
    1a28:	80 81       	ld	r24, Z
    1a2a:	91 81       	ldd	r25, Z+1	; 0x01
    1a2c:	dc 01       	movw	r26, r24
    1a2e:	ed 91       	ld	r30, X+
    1a30:	fc 91       	ld	r31, X
    1a32:	06 84       	ldd	r0, Z+14	; 0x0e
    1a34:	f7 85       	ldd	r31, Z+15	; 0x0f
    1a36:	e0 2d       	mov	r30, r0
    1a38:	09 95       	icall
    1a3a:	fb ec       	ldi	r31, 0xCB	; 203
    1a3c:	cf 2e       	mov	r12, r31
    1a3e:	f1 e0       	ldi	r31, 0x01	; 1
    1a40:	df 2e       	mov	r13, r31
    1a42:	c6 01       	movw	r24, r12
    1a44:	0e 94 25 1a 	call	0x344a	; 0x344a <eeprom_read_byte>
    1a48:	8f b9       	out	0x0f, r24	; 15
    1a4a:	77 9b       	sbis	0x0e, 7	; 14
    1a4c:	fe cf       	rjmp	.-4      	; 0x1a4a <_ZN6Sh110617PrintDebugMessageEh+0x3be>
    1a4e:	bf ef       	ldi	r27, 0xFF	; 255
    1a50:	cb 1a       	sub	r12, r27
    1a52:	db 0a       	sbc	r13, r27
    1a54:	ec 14       	cp	r14, r12
    1a56:	fd 04       	cpc	r15, r13
    1a58:	a1 f7       	brne	.-24     	; 0x1a42 <_ZN6Sh110617PrintDebugMessageEh+0x3b6>
    1a5a:	1f b8       	out	0x0f, r1	; 15
    1a5c:	77 9b       	sbis	0x0e, 7	; 14
    1a5e:	fe cf       	rjmp	.-4      	; 0x1a5c <_ZN6Sh110617PrintDebugMessageEh+0x3d0>
    1a60:	f8 01       	movw	r30, r16
    1a62:	80 81       	ld	r24, Z
    1a64:	91 81       	ldd	r25, Z+1	; 0x01
    1a66:	dc 01       	movw	r26, r24
    1a68:	ed 91       	ld	r30, X+
    1a6a:	fc 91       	ld	r31, X
    1a6c:	00 88       	ldd	r0, Z+16	; 0x10
    1a6e:	f1 89       	ldd	r31, Z+17	; 0x11
    1a70:	e0 2d       	mov	r30, r0
    1a72:	09 95       	icall
    1a74:	71 2c       	mov	r7, r1
    1a76:	81 2c       	mov	r8, r1
    1a78:	91 2c       	mov	r9, r1
    1a7a:	f8 01       	movw	r30, r16
    1a7c:	80 81       	ld	r24, Z
    1a7e:	91 81       	ldd	r25, Z+1	; 0x01
    1a80:	dc 01       	movw	r26, r24
    1a82:	ed 91       	ld	r30, X+
    1a84:	fc 91       	ld	r31, X
    1a86:	06 84       	ldd	r0, Z+14	; 0x0e
    1a88:	f7 85       	ldd	r31, Z+15	; 0x0f
    1a8a:	e0 2d       	mov	r30, r0
    1a8c:	09 95       	icall
    1a8e:	c3 01       	movw	r24, r6
    1a90:	08 2c       	mov	r0, r8
    1a92:	02 c0       	rjmp	.+4      	; 0x1a98 <_ZN6Sh110617PrintDebugMessageEh+0x40c>
    1a94:	95 95       	asr	r25
    1a96:	87 95       	ror	r24
    1a98:	0a 94       	dec	r0
    1a9a:	e2 f7       	brpl	.-8      	; 0x1a94 <_ZN6Sh110617PrintDebugMessageEh+0x408>
    1a9c:	83 70       	andi	r24, 0x03	; 3
    1a9e:	80 5d       	subi	r24, 0xD0	; 208
    1aa0:	90 e0       	ldi	r25, 0x00	; 0
    1aa2:	88 97       	sbiw	r24, 0x28	; 40
    1aa4:	6c 01       	movw	r12, r24
    1aa6:	cc 0c       	add	r12, r12
    1aa8:	dd 1c       	adc	r13, r13
    1aaa:	cc 0c       	add	r12, r12
    1aac:	dd 1c       	adc	r13, r13
    1aae:	8c 0d       	add	r24, r12
    1ab0:	9d 1d       	adc	r25, r13
    1ab2:	fc 01       	movw	r30, r24
    1ab4:	e9 5d       	subi	r30, 0xD9	; 217
    1ab6:	ff 4f       	sbci	r31, 0xFF	; 255
    1ab8:	1f 01       	movw	r2, r30
    1aba:	9c 01       	movw	r18, r24
    1abc:	24 5d       	subi	r18, 0xD4	; 212
    1abe:	3f 4f       	sbci	r19, 0xFF	; 255
    1ac0:	69 01       	movw	r12, r18
    1ac2:	c1 01       	movw	r24, r2
    1ac4:	0e 94 25 1a 	call	0x344a	; 0x344a <eeprom_read_byte>
    1ac8:	8f b9       	out	0x0f, r24	; 15
    1aca:	77 9b       	sbis	0x0e, 7	; 14
    1acc:	fe cf       	rjmp	.-4      	; 0x1aca <_ZN6Sh110617PrintDebugMessageEh+0x43e>
    1ace:	3f ef       	ldi	r19, 0xFF	; 255
    1ad0:	23 1a       	sub	r2, r19
    1ad2:	33 0a       	sbc	r3, r19
    1ad4:	2c 14       	cp	r2, r12
    1ad6:	3d 04       	cpc	r3, r13
    1ad8:	a1 f7       	brne	.-24     	; 0x1ac2 <_ZN6Sh110617PrintDebugMessageEh+0x436>
    1ada:	1f b8       	out	0x0f, r1	; 15
    1adc:	77 9b       	sbis	0x0e, 7	; 14
    1ade:	fe cf       	rjmp	.-4      	; 0x1adc <_ZN6Sh110617PrintDebugMessageEh+0x450>
    1ae0:	d8 01       	movw	r26, r16
    1ae2:	8d 91       	ld	r24, X+
    1ae4:	9c 91       	ld	r25, X
    1ae6:	dc 01       	movw	r26, r24
    1ae8:	ed 91       	ld	r30, X+
    1aea:	fc 91       	ld	r31, X
    1aec:	00 88       	ldd	r0, Z+16	; 0x10
    1aee:	f1 89       	ldd	r31, Z+17	; 0x11
    1af0:	e0 2d       	mov	r30, r0
    1af2:	09 95       	icall
    1af4:	b2 e0       	ldi	r27, 0x02	; 2
    1af6:	8b 0e       	add	r8, r27
    1af8:	91 1c       	adc	r9, r1
    1afa:	e8 e0       	ldi	r30, 0x08	; 8
    1afc:	8e 16       	cp	r8, r30
    1afe:	91 04       	cpc	r9, r1
    1b00:	09 f0       	breq	.+2      	; 0x1b04 <_ZN6Sh110617PrintDebugMessageEh+0x478>
    1b02:	bb cf       	rjmp	.-138    	; 0x1a7a <_ZN6Sh110617PrintDebugMessageEh+0x3ee>
    1b04:	d8 01       	movw	r26, r16
    1b06:	8d 91       	ld	r24, X+
    1b08:	9c 91       	ld	r25, X
    1b0a:	dc 01       	movw	r26, r24
    1b0c:	ed 91       	ld	r30, X+
    1b0e:	fc 91       	ld	r31, X
    1b10:	06 84       	ldd	r0, Z+14	; 0x0e
    1b12:	f7 85       	ldd	r31, Z+15	; 0x0f
    1b14:	e0 2d       	mov	r30, r0
    1b16:	09 95       	icall
    1b18:	7b ec       	ldi	r23, 0xCB	; 203
    1b1a:	c7 2e       	mov	r12, r23
    1b1c:	71 e0       	ldi	r23, 0x01	; 1
    1b1e:	d7 2e       	mov	r13, r23
    1b20:	c6 01       	movw	r24, r12
    1b22:	0e 94 25 1a 	call	0x344a	; 0x344a <eeprom_read_byte>
    1b26:	8f b9       	out	0x0f, r24	; 15
    1b28:	77 9b       	sbis	0x0e, 7	; 14
    1b2a:	fe cf       	rjmp	.-4      	; 0x1b28 <_ZN6Sh110617PrintDebugMessageEh+0x49c>
    1b2c:	bf ef       	ldi	r27, 0xFF	; 255
    1b2e:	cb 1a       	sub	r12, r27
    1b30:	db 0a       	sbc	r13, r27
    1b32:	ec 14       	cp	r14, r12
    1b34:	fd 04       	cpc	r15, r13
    1b36:	a1 f7       	brne	.-24     	; 0x1b20 <_ZN6Sh110617PrintDebugMessageEh+0x494>
    1b38:	1f b8       	out	0x0f, r1	; 15
    1b3a:	77 9b       	sbis	0x0e, 7	; 14
    1b3c:	fe cf       	rjmp	.-4      	; 0x1b3a <_ZN6Sh110617PrintDebugMessageEh+0x4ae>
    1b3e:	f8 01       	movw	r30, r16
    1b40:	80 81       	ld	r24, Z
    1b42:	91 81       	ldd	r25, Z+1	; 0x01
    1b44:	dc 01       	movw	r26, r24
    1b46:	ed 91       	ld	r30, X+
    1b48:	fc 91       	ld	r31, X
    1b4a:	00 88       	ldd	r0, Z+16	; 0x10
    1b4c:	f1 89       	ldd	r31, Z+17	; 0x11
    1b4e:	e0 2d       	mov	r30, r0
    1b50:	09 95       	icall
    1b52:	69 b2       	in	r6, 0x19	; 25
    1b54:	f8 01       	movw	r30, r16
    1b56:	80 81       	ld	r24, Z
    1b58:	91 81       	ldd	r25, Z+1	; 0x01
    1b5a:	dc 01       	movw	r26, r24
    1b5c:	ed 91       	ld	r30, X+
    1b5e:	fc 91       	ld	r31, X
    1b60:	06 84       	ldd	r0, Z+14	; 0x0e
    1b62:	f7 85       	ldd	r31, Z+15	; 0x0f
    1b64:	e0 2d       	mov	r30, r0
    1b66:	09 95       	icall
    1b68:	6b ec       	ldi	r22, 0xCB	; 203
    1b6a:	c6 2e       	mov	r12, r22
    1b6c:	61 e0       	ldi	r22, 0x01	; 1
    1b6e:	d6 2e       	mov	r13, r22
    1b70:	c6 01       	movw	r24, r12
    1b72:	0e 94 25 1a 	call	0x344a	; 0x344a <eeprom_read_byte>
    1b76:	8f b9       	out	0x0f, r24	; 15
    1b78:	77 9b       	sbis	0x0e, 7	; 14
    1b7a:	fe cf       	rjmp	.-4      	; 0x1b78 <_ZN6Sh110617PrintDebugMessageEh+0x4ec>
    1b7c:	bf ef       	ldi	r27, 0xFF	; 255
    1b7e:	cb 1a       	sub	r12, r27
    1b80:	db 0a       	sbc	r13, r27
    1b82:	ec 14       	cp	r14, r12
    1b84:	fd 04       	cpc	r15, r13
    1b86:	a1 f7       	brne	.-24     	; 0x1b70 <_ZN6Sh110617PrintDebugMessageEh+0x4e4>
    1b88:	1f b8       	out	0x0f, r1	; 15
    1b8a:	77 9b       	sbis	0x0e, 7	; 14
    1b8c:	fe cf       	rjmp	.-4      	; 0x1b8a <_ZN6Sh110617PrintDebugMessageEh+0x4fe>
    1b8e:	f8 01       	movw	r30, r16
    1b90:	80 81       	ld	r24, Z
    1b92:	91 81       	ldd	r25, Z+1	; 0x01
    1b94:	dc 01       	movw	r26, r24
    1b96:	ed 91       	ld	r30, X+
    1b98:	fc 91       	ld	r31, X
    1b9a:	00 88       	ldd	r0, Z+16	; 0x10
    1b9c:	f1 89       	ldd	r31, Z+17	; 0x11
    1b9e:	e0 2d       	mov	r30, r0
    1ba0:	09 95       	icall
    1ba2:	71 2c       	mov	r7, r1
    1ba4:	81 2c       	mov	r8, r1
    1ba6:	91 2c       	mov	r9, r1
    1ba8:	f8 01       	movw	r30, r16
    1baa:	80 81       	ld	r24, Z
    1bac:	91 81       	ldd	r25, Z+1	; 0x01
    1bae:	dc 01       	movw	r26, r24
    1bb0:	ed 91       	ld	r30, X+
    1bb2:	fc 91       	ld	r31, X
    1bb4:	06 84       	ldd	r0, Z+14	; 0x0e
    1bb6:	f7 85       	ldd	r31, Z+15	; 0x0f
    1bb8:	e0 2d       	mov	r30, r0
    1bba:	09 95       	icall
    1bbc:	c3 01       	movw	r24, r6
    1bbe:	08 2c       	mov	r0, r8
    1bc0:	02 c0       	rjmp	.+4      	; 0x1bc6 <_ZN6Sh110617PrintDebugMessageEh+0x53a>
    1bc2:	95 95       	asr	r25
    1bc4:	87 95       	ror	r24
    1bc6:	0a 94       	dec	r0
    1bc8:	e2 f7       	brpl	.-8      	; 0x1bc2 <_ZN6Sh110617PrintDebugMessageEh+0x536>
    1bca:	83 70       	andi	r24, 0x03	; 3
    1bcc:	80 5d       	subi	r24, 0xD0	; 208
    1bce:	90 e0       	ldi	r25, 0x00	; 0
    1bd0:	88 97       	sbiw	r24, 0x28	; 40
    1bd2:	6c 01       	movw	r12, r24
    1bd4:	cc 0c       	add	r12, r12
    1bd6:	dd 1c       	adc	r13, r13
    1bd8:	cc 0c       	add	r12, r12
    1bda:	dd 1c       	adc	r13, r13
    1bdc:	8c 0d       	add	r24, r12
    1bde:	9d 1d       	adc	r25, r13
    1be0:	fc 01       	movw	r30, r24
    1be2:	e9 5d       	subi	r30, 0xD9	; 217
    1be4:	ff 4f       	sbci	r31, 0xFF	; 255
    1be6:	1f 01       	movw	r2, r30
    1be8:	9c 01       	movw	r18, r24
    1bea:	24 5d       	subi	r18, 0xD4	; 212
    1bec:	3f 4f       	sbci	r19, 0xFF	; 255
    1bee:	69 01       	movw	r12, r18
    1bf0:	c1 01       	movw	r24, r2
    1bf2:	0e 94 25 1a 	call	0x344a	; 0x344a <eeprom_read_byte>
    1bf6:	8f b9       	out	0x0f, r24	; 15
    1bf8:	77 9b       	sbis	0x0e, 7	; 14
    1bfa:	fe cf       	rjmp	.-4      	; 0x1bf8 <_ZN6Sh110617PrintDebugMessageEh+0x56c>
    1bfc:	3f ef       	ldi	r19, 0xFF	; 255
    1bfe:	23 1a       	sub	r2, r19
    1c00:	33 0a       	sbc	r3, r19
    1c02:	2c 14       	cp	r2, r12
    1c04:	3d 04       	cpc	r3, r13
    1c06:	a1 f7       	brne	.-24     	; 0x1bf0 <_ZN6Sh110617PrintDebugMessageEh+0x564>
    1c08:	1f b8       	out	0x0f, r1	; 15
    1c0a:	77 9b       	sbis	0x0e, 7	; 14
    1c0c:	fe cf       	rjmp	.-4      	; 0x1c0a <_ZN6Sh110617PrintDebugMessageEh+0x57e>
    1c0e:	d8 01       	movw	r26, r16
    1c10:	8d 91       	ld	r24, X+
    1c12:	9c 91       	ld	r25, X
    1c14:	dc 01       	movw	r26, r24
    1c16:	ed 91       	ld	r30, X+
    1c18:	fc 91       	ld	r31, X
    1c1a:	00 88       	ldd	r0, Z+16	; 0x10
    1c1c:	f1 89       	ldd	r31, Z+17	; 0x11
    1c1e:	e0 2d       	mov	r30, r0
    1c20:	09 95       	icall
    1c22:	b2 e0       	ldi	r27, 0x02	; 2
    1c24:	8b 0e       	add	r8, r27
    1c26:	91 1c       	adc	r9, r1
    1c28:	e8 e0       	ldi	r30, 0x08	; 8
    1c2a:	8e 16       	cp	r8, r30
    1c2c:	91 04       	cpc	r9, r1
    1c2e:	09 f0       	breq	.+2      	; 0x1c32 <_ZN6Sh110617PrintDebugMessageEh+0x5a6>
    1c30:	bb cf       	rjmp	.-138    	; 0x1ba8 <_ZN6Sh110617PrintDebugMessageEh+0x51c>
    1c32:	d8 01       	movw	r26, r16
    1c34:	8d 91       	ld	r24, X+
    1c36:	9c 91       	ld	r25, X
    1c38:	dc 01       	movw	r26, r24
    1c3a:	ed 91       	ld	r30, X+
    1c3c:	fc 91       	ld	r31, X
    1c3e:	06 84       	ldd	r0, Z+14	; 0x0e
    1c40:	f7 85       	ldd	r31, Z+15	; 0x0f
    1c42:	e0 2d       	mov	r30, r0
    1c44:	09 95       	icall
    1c46:	4b ec       	ldi	r20, 0xCB	; 203
    1c48:	c4 2e       	mov	r12, r20
    1c4a:	41 e0       	ldi	r20, 0x01	; 1
    1c4c:	d4 2e       	mov	r13, r20
    1c4e:	c6 01       	movw	r24, r12
    1c50:	0e 94 25 1a 	call	0x344a	; 0x344a <eeprom_read_byte>
    1c54:	8f b9       	out	0x0f, r24	; 15
    1c56:	77 9b       	sbis	0x0e, 7	; 14
    1c58:	fe cf       	rjmp	.-4      	; 0x1c56 <_ZN6Sh110617PrintDebugMessageEh+0x5ca>
    1c5a:	bf ef       	ldi	r27, 0xFF	; 255
    1c5c:	cb 1a       	sub	r12, r27
    1c5e:	db 0a       	sbc	r13, r27
    1c60:	ec 14       	cp	r14, r12
    1c62:	fd 04       	cpc	r15, r13
    1c64:	a1 f7       	brne	.-24     	; 0x1c4e <_ZN6Sh110617PrintDebugMessageEh+0x5c2>
    1c66:	1f b8       	out	0x0f, r1	; 15
    1c68:	77 9b       	sbis	0x0e, 7	; 14
    1c6a:	fe cf       	rjmp	.-4      	; 0x1c68 <_ZN6Sh110617PrintDebugMessageEh+0x5dc>
    1c6c:	f8 01       	movw	r30, r16
    1c6e:	80 81       	ld	r24, Z
    1c70:	91 81       	ldd	r25, Z+1	; 0x01
    1c72:	dc 01       	movw	r26, r24
    1c74:	ed 91       	ld	r30, X+
    1c76:	fc 91       	ld	r31, X
    1c78:	00 88       	ldd	r0, Z+16	; 0x10
    1c7a:	f1 89       	ldd	r31, Z+17	; 0x11
    1c7c:	e0 2d       	mov	r30, r0
    1c7e:	09 95       	icall
    1c80:	43 e0       	ldi	r20, 0x03	; 3
    1c82:	50 e0       	ldi	r21, 0x00	; 0
    1c84:	61 e2       	ldi	r22, 0x21	; 33
    1c86:	70 e0       	ldi	r23, 0x00	; 0
    1c88:	ce 01       	movw	r24, r28
    1c8a:	01 96       	adiw	r24, 0x01	; 1
    1c8c:	0e 94 15 1a 	call	0x342a	; 0x342a <eeprom_read_block>
    1c90:	f8 01       	movw	r30, r16
    1c92:	80 81       	ld	r24, Z
    1c94:	91 81       	ldd	r25, Z+1	; 0x01
    1c96:	dc 01       	movw	r26, r24
    1c98:	ed 91       	ld	r30, X+
    1c9a:	fc 91       	ld	r31, X
    1c9c:	00 88       	ldd	r0, Z+16	; 0x10
    1c9e:	f1 89       	ldd	r31, Z+17	; 0x11
    1ca0:	e0 2d       	mov	r30, r0
    1ca2:	09 95       	icall
    1ca4:	f8 01       	movw	r30, r16
    1ca6:	86 8d       	ldd	r24, Z+30	; 0x1e
    1ca8:	8f b9       	out	0x0f, r24	; 15
    1caa:	77 9b       	sbis	0x0e, 7	; 14
    1cac:	fe cf       	rjmp	.-4      	; 0x1caa <_ZN6Sh110617PrintDebugMessageEh+0x61e>
    1cae:	82 eb       	ldi	r24, 0xB2	; 178
    1cb0:	8f b9       	out	0x0f, r24	; 15
    1cb2:	77 9b       	sbis	0x0e, 7	; 14
    1cb4:	fe cf       	rjmp	.-4      	; 0x1cb2 <_ZN6Sh110617PrintDebugMessageEh+0x626>
    1cb6:	d8 01       	movw	r26, r16
    1cb8:	5f 96       	adiw	r26, 0x1f	; 31
    1cba:	8c 91       	ld	r24, X
    1cbc:	8f b9       	out	0x0f, r24	; 15
    1cbe:	77 9b       	sbis	0x0e, 7	; 14
    1cc0:	fe cf       	rjmp	.-4      	; 0x1cbe <_ZN6Sh110617PrintDebugMessageEh+0x632>
    1cc2:	f8 01       	movw	r30, r16
    1cc4:	80 81       	ld	r24, Z
    1cc6:	91 81       	ldd	r25, Z+1	; 0x01
    1cc8:	dc 01       	movw	r26, r24
    1cca:	ed 91       	ld	r30, X+
    1ccc:	fc 91       	ld	r31, X
    1cce:	06 84       	ldd	r0, Z+14	; 0x0e
    1cd0:	f7 85       	ldd	r31, Z+15	; 0x0f
    1cd2:	e0 2d       	mov	r30, r0
    1cd4:	09 95       	icall
    1cd6:	1f b8       	out	0x0f, r1	; 15
    1cd8:	77 9b       	sbis	0x0e, 7	; 14
    1cda:	fe cf       	rjmp	.-4      	; 0x1cd8 <_ZN6Sh110617PrintDebugMessageEh+0x64c>
    1cdc:	f8 01       	movw	r30, r16
    1cde:	80 81       	ld	r24, Z
    1ce0:	91 81       	ldd	r25, Z+1	; 0x01
    1ce2:	dc 01       	movw	r26, r24
    1ce4:	ed 91       	ld	r30, X+
    1ce6:	fc 91       	ld	r31, X
    1ce8:	06 84       	ldd	r0, Z+14	; 0x0e
    1cea:	f7 85       	ldd	r31, Z+15	; 0x0f
    1cec:	e0 2d       	mov	r30, r0
    1cee:	09 95       	icall
    1cf0:	49 80       	ldd	r4, Y+1	; 0x01
    1cf2:	44 20       	and	r4, r4
    1cf4:	09 f4       	brne	.+2      	; 0x1cf8 <_ZN6Sh110617PrintDebugMessageEh+0x66c>
    1cf6:	42 c0       	rjmp	.+132    	; 0x1d7c <_ZN6Sh110617PrintDebugMessageEh+0x6f0>
    1cf8:	4e 01       	movw	r8, r28
    1cfa:	b2 e0       	ldi	r27, 0x02	; 2
    1cfc:	8b 0e       	add	r8, r27
    1cfe:	91 1c       	adc	r9, r1
    1d00:	f8 01       	movw	r30, r16
    1d02:	80 81       	ld	r24, Z
    1d04:	91 81       	ldd	r25, Z+1	; 0x01
    1d06:	dc 01       	movw	r26, r24
    1d08:	ed 91       	ld	r30, X+
    1d0a:	fc 91       	ld	r31, X
    1d0c:	06 84       	ldd	r0, Z+14	; 0x0e
    1d0e:	f7 85       	ldd	r31, Z+15	; 0x0f
    1d10:	e0 2d       	mov	r30, r0
    1d12:	09 95       	icall
    1d14:	84 2d       	mov	r24, r4
    1d16:	90 e0       	ldi	r25, 0x00	; 0
    1d18:	88 97       	sbiw	r24, 0x28	; 40
    1d1a:	6c 01       	movw	r12, r24
    1d1c:	cc 0c       	add	r12, r12
    1d1e:	dd 1c       	adc	r13, r13
    1d20:	cc 0c       	add	r12, r12
    1d22:	dd 1c       	adc	r13, r13
    1d24:	8c 0d       	add	r24, r12
    1d26:	9d 1d       	adc	r25, r13
    1d28:	fc 01       	movw	r30, r24
    1d2a:	e9 5d       	subi	r30, 0xD9	; 217
    1d2c:	ff 4f       	sbci	r31, 0xFF	; 255
    1d2e:	3f 01       	movw	r6, r30
    1d30:	9c 01       	movw	r18, r24
    1d32:	24 5d       	subi	r18, 0xD4	; 212
    1d34:	3f 4f       	sbci	r19, 0xFF	; 255
    1d36:	69 01       	movw	r12, r18
    1d38:	30 e2       	ldi	r19, 0x20	; 32
    1d3a:	43 16       	cp	r4, r19
    1d3c:	09 f4       	brne	.+2      	; 0x1d40 <_ZN6Sh110617PrintDebugMessageEh+0x6b4>
    1d3e:	71 c7       	rjmp	.+3810   	; 0x2c22 <_ZN6Sh110617PrintDebugMessageEh+0x1596>
    1d40:	c3 01       	movw	r24, r6
    1d42:	0e 94 25 1a 	call	0x344a	; 0x344a <eeprom_read_byte>
    1d46:	8f b9       	out	0x0f, r24	; 15
    1d48:	77 9b       	sbis	0x0e, 7	; 14
    1d4a:	fe cf       	rjmp	.-4      	; 0x1d48 <_ZN6Sh110617PrintDebugMessageEh+0x6bc>
    1d4c:	8f ef       	ldi	r24, 0xFF	; 255
    1d4e:	68 1a       	sub	r6, r24
    1d50:	78 0a       	sbc	r7, r24
    1d52:	6c 14       	cp	r6, r12
    1d54:	7d 04       	cpc	r7, r13
    1d56:	81 f7       	brne	.-32     	; 0x1d38 <_ZN6Sh110617PrintDebugMessageEh+0x6ac>
    1d58:	1f b8       	out	0x0f, r1	; 15
    1d5a:	77 9b       	sbis	0x0e, 7	; 14
    1d5c:	fe cf       	rjmp	.-4      	; 0x1d5a <_ZN6Sh110617PrintDebugMessageEh+0x6ce>
    1d5e:	d8 01       	movw	r26, r16
    1d60:	8d 91       	ld	r24, X+
    1d62:	9c 91       	ld	r25, X
    1d64:	dc 01       	movw	r26, r24
    1d66:	ed 91       	ld	r30, X+
    1d68:	fc 91       	ld	r31, X
    1d6a:	00 88       	ldd	r0, Z+16	; 0x10
    1d6c:	f1 89       	ldd	r31, Z+17	; 0x11
    1d6e:	e0 2d       	mov	r30, r0
    1d70:	09 95       	icall
    1d72:	f4 01       	movw	r30, r8
    1d74:	41 90       	ld	r4, Z+
    1d76:	4f 01       	movw	r8, r30
    1d78:	41 10       	cpse	r4, r1
    1d7a:	c2 cf       	rjmp	.-124    	; 0x1d00 <_ZN6Sh110617PrintDebugMessageEh+0x674>
    1d7c:	f8 01       	movw	r30, r16
    1d7e:	80 81       	ld	r24, Z
    1d80:	91 81       	ldd	r25, Z+1	; 0x01
    1d82:	dc 01       	movw	r26, r24
    1d84:	ed 91       	ld	r30, X+
    1d86:	fc 91       	ld	r31, X
    1d88:	00 88       	ldd	r0, Z+16	; 0x10
    1d8a:	f1 89       	ldd	r31, Z+17	; 0x11
    1d8c:	e0 2d       	mov	r30, r0
    1d8e:	09 95       	icall
    1d90:	68 b2       	in	r6, 0x18	; 24
    1d92:	f8 01       	movw	r30, r16
    1d94:	80 81       	ld	r24, Z
    1d96:	91 81       	ldd	r25, Z+1	; 0x01
    1d98:	dc 01       	movw	r26, r24
    1d9a:	ed 91       	ld	r30, X+
    1d9c:	fc 91       	ld	r31, X
    1d9e:	06 84       	ldd	r0, Z+14	; 0x0e
    1da0:	f7 85       	ldd	r31, Z+15	; 0x0f
    1da2:	e0 2d       	mov	r30, r0
    1da4:	09 95       	icall
    1da6:	3b ec       	ldi	r19, 0xCB	; 203
    1da8:	c3 2e       	mov	r12, r19
    1daa:	31 e0       	ldi	r19, 0x01	; 1
    1dac:	d3 2e       	mov	r13, r19
    1dae:	c6 01       	movw	r24, r12
    1db0:	0e 94 25 1a 	call	0x344a	; 0x344a <eeprom_read_byte>
    1db4:	8f b9       	out	0x0f, r24	; 15
    1db6:	77 9b       	sbis	0x0e, 7	; 14
    1db8:	fe cf       	rjmp	.-4      	; 0x1db6 <_ZN6Sh110617PrintDebugMessageEh+0x72a>
    1dba:	ff ef       	ldi	r31, 0xFF	; 255
    1dbc:	cf 1a       	sub	r12, r31
    1dbe:	df 0a       	sbc	r13, r31
    1dc0:	ec 14       	cp	r14, r12
    1dc2:	fd 04       	cpc	r15, r13
    1dc4:	a1 f7       	brne	.-24     	; 0x1dae <_ZN6Sh110617PrintDebugMessageEh+0x722>
    1dc6:	1f b8       	out	0x0f, r1	; 15
    1dc8:	77 9b       	sbis	0x0e, 7	; 14
    1dca:	fe cf       	rjmp	.-4      	; 0x1dc8 <_ZN6Sh110617PrintDebugMessageEh+0x73c>
    1dcc:	d8 01       	movw	r26, r16
    1dce:	8d 91       	ld	r24, X+
    1dd0:	9c 91       	ld	r25, X
    1dd2:	dc 01       	movw	r26, r24
    1dd4:	ed 91       	ld	r30, X+
    1dd6:	fc 91       	ld	r31, X
    1dd8:	00 88       	ldd	r0, Z+16	; 0x10
    1dda:	f1 89       	ldd	r31, Z+17	; 0x11
    1ddc:	e0 2d       	mov	r30, r0
    1dde:	09 95       	icall
    1de0:	71 2c       	mov	r7, r1
    1de2:	81 2c       	mov	r8, r1
    1de4:	91 2c       	mov	r9, r1
    1de6:	f8 01       	movw	r30, r16
    1de8:	80 81       	ld	r24, Z
    1dea:	91 81       	ldd	r25, Z+1	; 0x01
    1dec:	dc 01       	movw	r26, r24
    1dee:	ed 91       	ld	r30, X+
    1df0:	fc 91       	ld	r31, X
    1df2:	06 84       	ldd	r0, Z+14	; 0x0e
    1df4:	f7 85       	ldd	r31, Z+15	; 0x0f
    1df6:	e0 2d       	mov	r30, r0
    1df8:	09 95       	icall
    1dfa:	c3 01       	movw	r24, r6
    1dfc:	08 2c       	mov	r0, r8
    1dfe:	02 c0       	rjmp	.+4      	; 0x1e04 <_ZN6Sh110617PrintDebugMessageEh+0x778>
    1e00:	95 95       	asr	r25
    1e02:	87 95       	ror	r24
    1e04:	0a 94       	dec	r0
    1e06:	e2 f7       	brpl	.-8      	; 0x1e00 <_ZN6Sh110617PrintDebugMessageEh+0x774>
    1e08:	83 70       	andi	r24, 0x03	; 3
    1e0a:	80 5d       	subi	r24, 0xD0	; 208
    1e0c:	90 e0       	ldi	r25, 0x00	; 0
    1e0e:	88 97       	sbiw	r24, 0x28	; 40
    1e10:	6c 01       	movw	r12, r24
    1e12:	cc 0c       	add	r12, r12
    1e14:	dd 1c       	adc	r13, r13
    1e16:	cc 0c       	add	r12, r12
    1e18:	dd 1c       	adc	r13, r13
    1e1a:	8c 0d       	add	r24, r12
    1e1c:	9d 1d       	adc	r25, r13
    1e1e:	fc 01       	movw	r30, r24
    1e20:	e9 5d       	subi	r30, 0xD9	; 217
    1e22:	ff 4f       	sbci	r31, 0xFF	; 255
    1e24:	1f 01       	movw	r2, r30
    1e26:	9c 01       	movw	r18, r24
    1e28:	24 5d       	subi	r18, 0xD4	; 212
    1e2a:	3f 4f       	sbci	r19, 0xFF	; 255
    1e2c:	69 01       	movw	r12, r18
    1e2e:	c1 01       	movw	r24, r2
    1e30:	0e 94 25 1a 	call	0x344a	; 0x344a <eeprom_read_byte>
    1e34:	8f b9       	out	0x0f, r24	; 15
    1e36:	77 9b       	sbis	0x0e, 7	; 14
    1e38:	fe cf       	rjmp	.-4      	; 0x1e36 <_ZN6Sh110617PrintDebugMessageEh+0x7aa>
    1e3a:	3f ef       	ldi	r19, 0xFF	; 255
    1e3c:	23 1a       	sub	r2, r19
    1e3e:	33 0a       	sbc	r3, r19
    1e40:	2c 14       	cp	r2, r12
    1e42:	3d 04       	cpc	r3, r13
    1e44:	a1 f7       	brne	.-24     	; 0x1e2e <_ZN6Sh110617PrintDebugMessageEh+0x7a2>
    1e46:	1f b8       	out	0x0f, r1	; 15
    1e48:	77 9b       	sbis	0x0e, 7	; 14
    1e4a:	fe cf       	rjmp	.-4      	; 0x1e48 <_ZN6Sh110617PrintDebugMessageEh+0x7bc>
    1e4c:	d8 01       	movw	r26, r16
    1e4e:	8d 91       	ld	r24, X+
    1e50:	9c 91       	ld	r25, X
    1e52:	dc 01       	movw	r26, r24
    1e54:	ed 91       	ld	r30, X+
    1e56:	fc 91       	ld	r31, X
    1e58:	00 88       	ldd	r0, Z+16	; 0x10
    1e5a:	f1 89       	ldd	r31, Z+17	; 0x11
    1e5c:	e0 2d       	mov	r30, r0
    1e5e:	09 95       	icall
    1e60:	b2 e0       	ldi	r27, 0x02	; 2
    1e62:	8b 0e       	add	r8, r27
    1e64:	91 1c       	adc	r9, r1
    1e66:	e8 e0       	ldi	r30, 0x08	; 8
    1e68:	8e 16       	cp	r8, r30
    1e6a:	91 04       	cpc	r9, r1
    1e6c:	09 f0       	breq	.+2      	; 0x1e70 <_ZN6Sh110617PrintDebugMessageEh+0x7e4>
    1e6e:	bb cf       	rjmp	.-138    	; 0x1de6 <_ZN6Sh110617PrintDebugMessageEh+0x75a>
    1e70:	d8 01       	movw	r26, r16
    1e72:	8d 91       	ld	r24, X+
    1e74:	9c 91       	ld	r25, X
    1e76:	dc 01       	movw	r26, r24
    1e78:	ed 91       	ld	r30, X+
    1e7a:	fc 91       	ld	r31, X
    1e7c:	06 84       	ldd	r0, Z+14	; 0x0e
    1e7e:	f7 85       	ldd	r31, Z+15	; 0x0f
    1e80:	e0 2d       	mov	r30, r0
    1e82:	09 95       	icall
    1e84:	ab ec       	ldi	r26, 0xCB	; 203
    1e86:	ca 2e       	mov	r12, r26
    1e88:	a1 e0       	ldi	r26, 0x01	; 1
    1e8a:	da 2e       	mov	r13, r26
    1e8c:	c6 01       	movw	r24, r12
    1e8e:	0e 94 25 1a 	call	0x344a	; 0x344a <eeprom_read_byte>
    1e92:	8f b9       	out	0x0f, r24	; 15
    1e94:	77 9b       	sbis	0x0e, 7	; 14
    1e96:	fe cf       	rjmp	.-4      	; 0x1e94 <_ZN6Sh110617PrintDebugMessageEh+0x808>
    1e98:	bf ef       	ldi	r27, 0xFF	; 255
    1e9a:	cb 1a       	sub	r12, r27
    1e9c:	db 0a       	sbc	r13, r27
    1e9e:	ec 14       	cp	r14, r12
    1ea0:	fd 04       	cpc	r15, r13
    1ea2:	a1 f7       	brne	.-24     	; 0x1e8c <_ZN6Sh110617PrintDebugMessageEh+0x800>
    1ea4:	1f b8       	out	0x0f, r1	; 15
    1ea6:	77 9b       	sbis	0x0e, 7	; 14
    1ea8:	fe cf       	rjmp	.-4      	; 0x1ea6 <_ZN6Sh110617PrintDebugMessageEh+0x81a>
    1eaa:	f8 01       	movw	r30, r16
    1eac:	80 81       	ld	r24, Z
    1eae:	91 81       	ldd	r25, Z+1	; 0x01
    1eb0:	dc 01       	movw	r26, r24
    1eb2:	ed 91       	ld	r30, X+
    1eb4:	fc 91       	ld	r31, X
    1eb6:	00 88       	ldd	r0, Z+16	; 0x10
    1eb8:	f1 89       	ldd	r31, Z+17	; 0x11
    1eba:	e0 2d       	mov	r30, r0
    1ebc:	09 95       	icall
    1ebe:	67 b2       	in	r6, 0x17	; 23
    1ec0:	f8 01       	movw	r30, r16
    1ec2:	80 81       	ld	r24, Z
    1ec4:	91 81       	ldd	r25, Z+1	; 0x01
    1ec6:	dc 01       	movw	r26, r24
    1ec8:	ed 91       	ld	r30, X+
    1eca:	fc 91       	ld	r31, X
    1ecc:	06 84       	ldd	r0, Z+14	; 0x0e
    1ece:	f7 85       	ldd	r31, Z+15	; 0x0f
    1ed0:	e0 2d       	mov	r30, r0
    1ed2:	09 95       	icall
    1ed4:	fb ec       	ldi	r31, 0xCB	; 203
    1ed6:	cf 2e       	mov	r12, r31
    1ed8:	f1 e0       	ldi	r31, 0x01	; 1
    1eda:	df 2e       	mov	r13, r31
    1edc:	c6 01       	movw	r24, r12
    1ede:	0e 94 25 1a 	call	0x344a	; 0x344a <eeprom_read_byte>
    1ee2:	8f b9       	out	0x0f, r24	; 15
    1ee4:	77 9b       	sbis	0x0e, 7	; 14
    1ee6:	fe cf       	rjmp	.-4      	; 0x1ee4 <_ZN6Sh110617PrintDebugMessageEh+0x858>
    1ee8:	bf ef       	ldi	r27, 0xFF	; 255
    1eea:	cb 1a       	sub	r12, r27
    1eec:	db 0a       	sbc	r13, r27
    1eee:	ec 14       	cp	r14, r12
    1ef0:	fd 04       	cpc	r15, r13
    1ef2:	a1 f7       	brne	.-24     	; 0x1edc <_ZN6Sh110617PrintDebugMessageEh+0x850>
    1ef4:	1f b8       	out	0x0f, r1	; 15
    1ef6:	77 9b       	sbis	0x0e, 7	; 14
    1ef8:	fe cf       	rjmp	.-4      	; 0x1ef6 <_ZN6Sh110617PrintDebugMessageEh+0x86a>
    1efa:	f8 01       	movw	r30, r16
    1efc:	80 81       	ld	r24, Z
    1efe:	91 81       	ldd	r25, Z+1	; 0x01
    1f00:	dc 01       	movw	r26, r24
    1f02:	ed 91       	ld	r30, X+
    1f04:	fc 91       	ld	r31, X
    1f06:	00 88       	ldd	r0, Z+16	; 0x10
    1f08:	f1 89       	ldd	r31, Z+17	; 0x11
    1f0a:	e0 2d       	mov	r30, r0
    1f0c:	09 95       	icall
    1f0e:	71 2c       	mov	r7, r1
    1f10:	81 2c       	mov	r8, r1
    1f12:	91 2c       	mov	r9, r1
    1f14:	f8 01       	movw	r30, r16
    1f16:	80 81       	ld	r24, Z
    1f18:	91 81       	ldd	r25, Z+1	; 0x01
    1f1a:	dc 01       	movw	r26, r24
    1f1c:	ed 91       	ld	r30, X+
    1f1e:	fc 91       	ld	r31, X
    1f20:	06 84       	ldd	r0, Z+14	; 0x0e
    1f22:	f7 85       	ldd	r31, Z+15	; 0x0f
    1f24:	e0 2d       	mov	r30, r0
    1f26:	09 95       	icall
    1f28:	c3 01       	movw	r24, r6
    1f2a:	08 2c       	mov	r0, r8
    1f2c:	02 c0       	rjmp	.+4      	; 0x1f32 <_ZN6Sh110617PrintDebugMessageEh+0x8a6>
    1f2e:	95 95       	asr	r25
    1f30:	87 95       	ror	r24
    1f32:	0a 94       	dec	r0
    1f34:	e2 f7       	brpl	.-8      	; 0x1f2e <_ZN6Sh110617PrintDebugMessageEh+0x8a2>
    1f36:	83 70       	andi	r24, 0x03	; 3
    1f38:	80 5d       	subi	r24, 0xD0	; 208
    1f3a:	90 e0       	ldi	r25, 0x00	; 0
    1f3c:	88 97       	sbiw	r24, 0x28	; 40
    1f3e:	6c 01       	movw	r12, r24
    1f40:	cc 0c       	add	r12, r12
    1f42:	dd 1c       	adc	r13, r13
    1f44:	cc 0c       	add	r12, r12
    1f46:	dd 1c       	adc	r13, r13
    1f48:	8c 0d       	add	r24, r12
    1f4a:	9d 1d       	adc	r25, r13
    1f4c:	fc 01       	movw	r30, r24
    1f4e:	e9 5d       	subi	r30, 0xD9	; 217
    1f50:	ff 4f       	sbci	r31, 0xFF	; 255
    1f52:	1f 01       	movw	r2, r30
    1f54:	9c 01       	movw	r18, r24
    1f56:	24 5d       	subi	r18, 0xD4	; 212
    1f58:	3f 4f       	sbci	r19, 0xFF	; 255
    1f5a:	69 01       	movw	r12, r18
    1f5c:	c1 01       	movw	r24, r2
    1f5e:	0e 94 25 1a 	call	0x344a	; 0x344a <eeprom_read_byte>
    1f62:	8f b9       	out	0x0f, r24	; 15
    1f64:	77 9b       	sbis	0x0e, 7	; 14
    1f66:	fe cf       	rjmp	.-4      	; 0x1f64 <_ZN6Sh110617PrintDebugMessageEh+0x8d8>
    1f68:	3f ef       	ldi	r19, 0xFF	; 255
    1f6a:	23 1a       	sub	r2, r19
    1f6c:	33 0a       	sbc	r3, r19
    1f6e:	2c 14       	cp	r2, r12
    1f70:	3d 04       	cpc	r3, r13
    1f72:	a1 f7       	brne	.-24     	; 0x1f5c <_ZN6Sh110617PrintDebugMessageEh+0x8d0>
    1f74:	1f b8       	out	0x0f, r1	; 15
    1f76:	77 9b       	sbis	0x0e, 7	; 14
    1f78:	fe cf       	rjmp	.-4      	; 0x1f76 <_ZN6Sh110617PrintDebugMessageEh+0x8ea>
    1f7a:	d8 01       	movw	r26, r16
    1f7c:	8d 91       	ld	r24, X+
    1f7e:	9c 91       	ld	r25, X
    1f80:	dc 01       	movw	r26, r24
    1f82:	ed 91       	ld	r30, X+
    1f84:	fc 91       	ld	r31, X
    1f86:	00 88       	ldd	r0, Z+16	; 0x10
    1f88:	f1 89       	ldd	r31, Z+17	; 0x11
    1f8a:	e0 2d       	mov	r30, r0
    1f8c:	09 95       	icall
    1f8e:	b2 e0       	ldi	r27, 0x02	; 2
    1f90:	8b 0e       	add	r8, r27
    1f92:	91 1c       	adc	r9, r1
    1f94:	e8 e0       	ldi	r30, 0x08	; 8
    1f96:	8e 16       	cp	r8, r30
    1f98:	91 04       	cpc	r9, r1
    1f9a:	09 f0       	breq	.+2      	; 0x1f9e <_ZN6Sh110617PrintDebugMessageEh+0x912>
    1f9c:	bb cf       	rjmp	.-138    	; 0x1f14 <_ZN6Sh110617PrintDebugMessageEh+0x888>
    1f9e:	d8 01       	movw	r26, r16
    1fa0:	8d 91       	ld	r24, X+
    1fa2:	9c 91       	ld	r25, X
    1fa4:	dc 01       	movw	r26, r24
    1fa6:	ed 91       	ld	r30, X+
    1fa8:	fc 91       	ld	r31, X
    1faa:	06 84       	ldd	r0, Z+14	; 0x0e
    1fac:	f7 85       	ldd	r31, Z+15	; 0x0f
    1fae:	e0 2d       	mov	r30, r0
    1fb0:	09 95       	icall
    1fb2:	7b ec       	ldi	r23, 0xCB	; 203
    1fb4:	c7 2e       	mov	r12, r23
    1fb6:	71 e0       	ldi	r23, 0x01	; 1
    1fb8:	d7 2e       	mov	r13, r23
    1fba:	c6 01       	movw	r24, r12
    1fbc:	0e 94 25 1a 	call	0x344a	; 0x344a <eeprom_read_byte>
    1fc0:	8f b9       	out	0x0f, r24	; 15
    1fc2:	77 9b       	sbis	0x0e, 7	; 14
    1fc4:	fe cf       	rjmp	.-4      	; 0x1fc2 <_ZN6Sh110617PrintDebugMessageEh+0x936>
    1fc6:	bf ef       	ldi	r27, 0xFF	; 255
    1fc8:	cb 1a       	sub	r12, r27
    1fca:	db 0a       	sbc	r13, r27
    1fcc:	ec 14       	cp	r14, r12
    1fce:	fd 04       	cpc	r15, r13
    1fd0:	a1 f7       	brne	.-24     	; 0x1fba <_ZN6Sh110617PrintDebugMessageEh+0x92e>
    1fd2:	1f b8       	out	0x0f, r1	; 15
    1fd4:	77 9b       	sbis	0x0e, 7	; 14
    1fd6:	fe cf       	rjmp	.-4      	; 0x1fd4 <_ZN6Sh110617PrintDebugMessageEh+0x948>
    1fd8:	f8 01       	movw	r30, r16
    1fda:	80 81       	ld	r24, Z
    1fdc:	91 81       	ldd	r25, Z+1	; 0x01
    1fde:	dc 01       	movw	r26, r24
    1fe0:	ed 91       	ld	r30, X+
    1fe2:	fc 91       	ld	r31, X
    1fe4:	00 88       	ldd	r0, Z+16	; 0x10
    1fe6:	f1 89       	ldd	r31, Z+17	; 0x11
    1fe8:	e0 2d       	mov	r30, r0
    1fea:	09 95       	icall
    1fec:	66 b2       	in	r6, 0x16	; 22
    1fee:	f8 01       	movw	r30, r16
    1ff0:	80 81       	ld	r24, Z
    1ff2:	91 81       	ldd	r25, Z+1	; 0x01
    1ff4:	dc 01       	movw	r26, r24
    1ff6:	ed 91       	ld	r30, X+
    1ff8:	fc 91       	ld	r31, X
    1ffa:	06 84       	ldd	r0, Z+14	; 0x0e
    1ffc:	f7 85       	ldd	r31, Z+15	; 0x0f
    1ffe:	e0 2d       	mov	r30, r0
    2000:	09 95       	icall
    2002:	6b ec       	ldi	r22, 0xCB	; 203
    2004:	c6 2e       	mov	r12, r22
    2006:	61 e0       	ldi	r22, 0x01	; 1
    2008:	d6 2e       	mov	r13, r22
    200a:	c6 01       	movw	r24, r12
    200c:	0e 94 25 1a 	call	0x344a	; 0x344a <eeprom_read_byte>
    2010:	8f b9       	out	0x0f, r24	; 15
    2012:	77 9b       	sbis	0x0e, 7	; 14
    2014:	fe cf       	rjmp	.-4      	; 0x2012 <_ZN6Sh110617PrintDebugMessageEh+0x986>
    2016:	bf ef       	ldi	r27, 0xFF	; 255
    2018:	cb 1a       	sub	r12, r27
    201a:	db 0a       	sbc	r13, r27
    201c:	ec 14       	cp	r14, r12
    201e:	fd 04       	cpc	r15, r13
    2020:	a1 f7       	brne	.-24     	; 0x200a <_ZN6Sh110617PrintDebugMessageEh+0x97e>
    2022:	1f b8       	out	0x0f, r1	; 15
    2024:	77 9b       	sbis	0x0e, 7	; 14
    2026:	fe cf       	rjmp	.-4      	; 0x2024 <_ZN6Sh110617PrintDebugMessageEh+0x998>
    2028:	f8 01       	movw	r30, r16
    202a:	80 81       	ld	r24, Z
    202c:	91 81       	ldd	r25, Z+1	; 0x01
    202e:	dc 01       	movw	r26, r24
    2030:	ed 91       	ld	r30, X+
    2032:	fc 91       	ld	r31, X
    2034:	00 88       	ldd	r0, Z+16	; 0x10
    2036:	f1 89       	ldd	r31, Z+17	; 0x11
    2038:	e0 2d       	mov	r30, r0
    203a:	09 95       	icall
    203c:	71 2c       	mov	r7, r1
    203e:	81 2c       	mov	r8, r1
    2040:	91 2c       	mov	r9, r1
    2042:	f8 01       	movw	r30, r16
    2044:	80 81       	ld	r24, Z
    2046:	91 81       	ldd	r25, Z+1	; 0x01
    2048:	dc 01       	movw	r26, r24
    204a:	ed 91       	ld	r30, X+
    204c:	fc 91       	ld	r31, X
    204e:	06 84       	ldd	r0, Z+14	; 0x0e
    2050:	f7 85       	ldd	r31, Z+15	; 0x0f
    2052:	e0 2d       	mov	r30, r0
    2054:	09 95       	icall
    2056:	c3 01       	movw	r24, r6
    2058:	08 2c       	mov	r0, r8
    205a:	02 c0       	rjmp	.+4      	; 0x2060 <_ZN6Sh110617PrintDebugMessageEh+0x9d4>
    205c:	95 95       	asr	r25
    205e:	87 95       	ror	r24
    2060:	0a 94       	dec	r0
    2062:	e2 f7       	brpl	.-8      	; 0x205c <_ZN6Sh110617PrintDebugMessageEh+0x9d0>
    2064:	83 70       	andi	r24, 0x03	; 3
    2066:	80 5d       	subi	r24, 0xD0	; 208
    2068:	90 e0       	ldi	r25, 0x00	; 0
    206a:	88 97       	sbiw	r24, 0x28	; 40
    206c:	6c 01       	movw	r12, r24
    206e:	cc 0c       	add	r12, r12
    2070:	dd 1c       	adc	r13, r13
    2072:	cc 0c       	add	r12, r12
    2074:	dd 1c       	adc	r13, r13
    2076:	8c 0d       	add	r24, r12
    2078:	9d 1d       	adc	r25, r13
    207a:	fc 01       	movw	r30, r24
    207c:	e9 5d       	subi	r30, 0xD9	; 217
    207e:	ff 4f       	sbci	r31, 0xFF	; 255
    2080:	1f 01       	movw	r2, r30
    2082:	9c 01       	movw	r18, r24
    2084:	24 5d       	subi	r18, 0xD4	; 212
    2086:	3f 4f       	sbci	r19, 0xFF	; 255
    2088:	69 01       	movw	r12, r18
    208a:	c1 01       	movw	r24, r2
    208c:	0e 94 25 1a 	call	0x344a	; 0x344a <eeprom_read_byte>
    2090:	8f b9       	out	0x0f, r24	; 15
    2092:	77 9b       	sbis	0x0e, 7	; 14
    2094:	fe cf       	rjmp	.-4      	; 0x2092 <_ZN6Sh110617PrintDebugMessageEh+0xa06>
    2096:	3f ef       	ldi	r19, 0xFF	; 255
    2098:	23 1a       	sub	r2, r19
    209a:	33 0a       	sbc	r3, r19
    209c:	2c 14       	cp	r2, r12
    209e:	3d 04       	cpc	r3, r13
    20a0:	a1 f7       	brne	.-24     	; 0x208a <_ZN6Sh110617PrintDebugMessageEh+0x9fe>
    20a2:	1f b8       	out	0x0f, r1	; 15
    20a4:	77 9b       	sbis	0x0e, 7	; 14
    20a6:	fe cf       	rjmp	.-4      	; 0x20a4 <_ZN6Sh110617PrintDebugMessageEh+0xa18>
    20a8:	d8 01       	movw	r26, r16
    20aa:	8d 91       	ld	r24, X+
    20ac:	9c 91       	ld	r25, X
    20ae:	dc 01       	movw	r26, r24
    20b0:	ed 91       	ld	r30, X+
    20b2:	fc 91       	ld	r31, X
    20b4:	00 88       	ldd	r0, Z+16	; 0x10
    20b6:	f1 89       	ldd	r31, Z+17	; 0x11
    20b8:	e0 2d       	mov	r30, r0
    20ba:	09 95       	icall
    20bc:	b2 e0       	ldi	r27, 0x02	; 2
    20be:	8b 0e       	add	r8, r27
    20c0:	91 1c       	adc	r9, r1
    20c2:	e8 e0       	ldi	r30, 0x08	; 8
    20c4:	8e 16       	cp	r8, r30
    20c6:	91 04       	cpc	r9, r1
    20c8:	09 f0       	breq	.+2      	; 0x20cc <_ZN6Sh110617PrintDebugMessageEh+0xa40>
    20ca:	bb cf       	rjmp	.-138    	; 0x2042 <_ZN6Sh110617PrintDebugMessageEh+0x9b6>
    20cc:	d8 01       	movw	r26, r16
    20ce:	8d 91       	ld	r24, X+
    20d0:	9c 91       	ld	r25, X
    20d2:	dc 01       	movw	r26, r24
    20d4:	ed 91       	ld	r30, X+
    20d6:	fc 91       	ld	r31, X
    20d8:	06 84       	ldd	r0, Z+14	; 0x0e
    20da:	f7 85       	ldd	r31, Z+15	; 0x0f
    20dc:	e0 2d       	mov	r30, r0
    20de:	09 95       	icall
    20e0:	4b ec       	ldi	r20, 0xCB	; 203
    20e2:	c4 2e       	mov	r12, r20
    20e4:	41 e0       	ldi	r20, 0x01	; 1
    20e6:	d4 2e       	mov	r13, r20
    20e8:	c6 01       	movw	r24, r12
    20ea:	0e 94 25 1a 	call	0x344a	; 0x344a <eeprom_read_byte>
    20ee:	8f b9       	out	0x0f, r24	; 15
    20f0:	77 9b       	sbis	0x0e, 7	; 14
    20f2:	fe cf       	rjmp	.-4      	; 0x20f0 <_ZN6Sh110617PrintDebugMessageEh+0xa64>
    20f4:	bf ef       	ldi	r27, 0xFF	; 255
    20f6:	cb 1a       	sub	r12, r27
    20f8:	db 0a       	sbc	r13, r27
    20fa:	ec 14       	cp	r14, r12
    20fc:	fd 04       	cpc	r15, r13
    20fe:	a1 f7       	brne	.-24     	; 0x20e8 <_ZN6Sh110617PrintDebugMessageEh+0xa5c>
    2100:	1f b8       	out	0x0f, r1	; 15
    2102:	77 9b       	sbis	0x0e, 7	; 14
    2104:	fe cf       	rjmp	.-4      	; 0x2102 <_ZN6Sh110617PrintDebugMessageEh+0xa76>
    2106:	f8 01       	movw	r30, r16
    2108:	80 81       	ld	r24, Z
    210a:	91 81       	ldd	r25, Z+1	; 0x01
    210c:	dc 01       	movw	r26, r24
    210e:	ed 91       	ld	r30, X+
    2110:	fc 91       	ld	r31, X
    2112:	00 88       	ldd	r0, Z+16	; 0x10
    2114:	f1 89       	ldd	r31, Z+17	; 0x11
    2116:	e0 2d       	mov	r30, r0
    2118:	09 95       	icall
    211a:	43 e0       	ldi	r20, 0x03	; 3
    211c:	50 e0       	ldi	r21, 0x00	; 0
    211e:	6e e1       	ldi	r22, 0x1E	; 30
    2120:	70 e0       	ldi	r23, 0x00	; 0
    2122:	ce 01       	movw	r24, r28
    2124:	01 96       	adiw	r24, 0x01	; 1
    2126:	0e 94 15 1a 	call	0x342a	; 0x342a <eeprom_read_block>
    212a:	f8 01       	movw	r30, r16
    212c:	80 81       	ld	r24, Z
    212e:	91 81       	ldd	r25, Z+1	; 0x01
    2130:	dc 01       	movw	r26, r24
    2132:	ed 91       	ld	r30, X+
    2134:	fc 91       	ld	r31, X
    2136:	00 88       	ldd	r0, Z+16	; 0x10
    2138:	f1 89       	ldd	r31, Z+17	; 0x11
    213a:	e0 2d       	mov	r30, r0
    213c:	09 95       	icall
    213e:	f8 01       	movw	r30, r16
    2140:	86 8d       	ldd	r24, Z+30	; 0x1e
    2142:	8f b9       	out	0x0f, r24	; 15
    2144:	77 9b       	sbis	0x0e, 7	; 14
    2146:	fe cf       	rjmp	.-4      	; 0x2144 <_ZN6Sh110617PrintDebugMessageEh+0xab8>
    2148:	83 eb       	ldi	r24, 0xB3	; 179
    214a:	8f b9       	out	0x0f, r24	; 15
    214c:	77 9b       	sbis	0x0e, 7	; 14
    214e:	fe cf       	rjmp	.-4      	; 0x214c <_ZN6Sh110617PrintDebugMessageEh+0xac0>
    2150:	d8 01       	movw	r26, r16
    2152:	5f 96       	adiw	r26, 0x1f	; 31
    2154:	8c 91       	ld	r24, X
    2156:	8f b9       	out	0x0f, r24	; 15
    2158:	77 9b       	sbis	0x0e, 7	; 14
    215a:	fe cf       	rjmp	.-4      	; 0x2158 <_ZN6Sh110617PrintDebugMessageEh+0xacc>
    215c:	f8 01       	movw	r30, r16
    215e:	80 81       	ld	r24, Z
    2160:	91 81       	ldd	r25, Z+1	; 0x01
    2162:	dc 01       	movw	r26, r24
    2164:	ed 91       	ld	r30, X+
    2166:	fc 91       	ld	r31, X
    2168:	06 84       	ldd	r0, Z+14	; 0x0e
    216a:	f7 85       	ldd	r31, Z+15	; 0x0f
    216c:	e0 2d       	mov	r30, r0
    216e:	09 95       	icall
    2170:	1f b8       	out	0x0f, r1	; 15
    2172:	77 9b       	sbis	0x0e, 7	; 14
    2174:	fe cf       	rjmp	.-4      	; 0x2172 <_ZN6Sh110617PrintDebugMessageEh+0xae6>
    2176:	f8 01       	movw	r30, r16
    2178:	80 81       	ld	r24, Z
    217a:	91 81       	ldd	r25, Z+1	; 0x01
    217c:	dc 01       	movw	r26, r24
    217e:	ed 91       	ld	r30, X+
    2180:	fc 91       	ld	r31, X
    2182:	06 84       	ldd	r0, Z+14	; 0x0e
    2184:	f7 85       	ldd	r31, Z+15	; 0x0f
    2186:	e0 2d       	mov	r30, r0
    2188:	09 95       	icall
    218a:	49 80       	ldd	r4, Y+1	; 0x01
    218c:	44 20       	and	r4, r4
    218e:	09 f4       	brne	.+2      	; 0x2192 <_ZN6Sh110617PrintDebugMessageEh+0xb06>
    2190:	42 c0       	rjmp	.+132    	; 0x2216 <_ZN6Sh110617PrintDebugMessageEh+0xb8a>
    2192:	4e 01       	movw	r8, r28
    2194:	b2 e0       	ldi	r27, 0x02	; 2
    2196:	8b 0e       	add	r8, r27
    2198:	91 1c       	adc	r9, r1
    219a:	f8 01       	movw	r30, r16
    219c:	80 81       	ld	r24, Z
    219e:	91 81       	ldd	r25, Z+1	; 0x01
    21a0:	dc 01       	movw	r26, r24
    21a2:	ed 91       	ld	r30, X+
    21a4:	fc 91       	ld	r31, X
    21a6:	06 84       	ldd	r0, Z+14	; 0x0e
    21a8:	f7 85       	ldd	r31, Z+15	; 0x0f
    21aa:	e0 2d       	mov	r30, r0
    21ac:	09 95       	icall
    21ae:	84 2d       	mov	r24, r4
    21b0:	90 e0       	ldi	r25, 0x00	; 0
    21b2:	88 97       	sbiw	r24, 0x28	; 40
    21b4:	6c 01       	movw	r12, r24
    21b6:	cc 0c       	add	r12, r12
    21b8:	dd 1c       	adc	r13, r13
    21ba:	cc 0c       	add	r12, r12
    21bc:	dd 1c       	adc	r13, r13
    21be:	8c 0d       	add	r24, r12
    21c0:	9d 1d       	adc	r25, r13
    21c2:	fc 01       	movw	r30, r24
    21c4:	e9 5d       	subi	r30, 0xD9	; 217
    21c6:	ff 4f       	sbci	r31, 0xFF	; 255
    21c8:	3f 01       	movw	r6, r30
    21ca:	9c 01       	movw	r18, r24
    21cc:	24 5d       	subi	r18, 0xD4	; 212
    21ce:	3f 4f       	sbci	r19, 0xFF	; 255
    21d0:	69 01       	movw	r12, r18
    21d2:	30 e2       	ldi	r19, 0x20	; 32
    21d4:	43 16       	cp	r4, r19
    21d6:	09 f4       	brne	.+2      	; 0x21da <_ZN6Sh110617PrintDebugMessageEh+0xb4e>
    21d8:	19 c5       	rjmp	.+2610   	; 0x2c0c <_ZN6Sh110617PrintDebugMessageEh+0x1580>
    21da:	c3 01       	movw	r24, r6
    21dc:	0e 94 25 1a 	call	0x344a	; 0x344a <eeprom_read_byte>
    21e0:	8f b9       	out	0x0f, r24	; 15
    21e2:	77 9b       	sbis	0x0e, 7	; 14
    21e4:	fe cf       	rjmp	.-4      	; 0x21e2 <_ZN6Sh110617PrintDebugMessageEh+0xb56>
    21e6:	8f ef       	ldi	r24, 0xFF	; 255
    21e8:	68 1a       	sub	r6, r24
    21ea:	78 0a       	sbc	r7, r24
    21ec:	6c 14       	cp	r6, r12
    21ee:	7d 04       	cpc	r7, r13
    21f0:	81 f7       	brne	.-32     	; 0x21d2 <_ZN6Sh110617PrintDebugMessageEh+0xb46>
    21f2:	1f b8       	out	0x0f, r1	; 15
    21f4:	77 9b       	sbis	0x0e, 7	; 14
    21f6:	fe cf       	rjmp	.-4      	; 0x21f4 <_ZN6Sh110617PrintDebugMessageEh+0xb68>
    21f8:	d8 01       	movw	r26, r16
    21fa:	8d 91       	ld	r24, X+
    21fc:	9c 91       	ld	r25, X
    21fe:	dc 01       	movw	r26, r24
    2200:	ed 91       	ld	r30, X+
    2202:	fc 91       	ld	r31, X
    2204:	00 88       	ldd	r0, Z+16	; 0x10
    2206:	f1 89       	ldd	r31, Z+17	; 0x11
    2208:	e0 2d       	mov	r30, r0
    220a:	09 95       	icall
    220c:	f4 01       	movw	r30, r8
    220e:	41 90       	ld	r4, Z+
    2210:	4f 01       	movw	r8, r30
    2212:	41 10       	cpse	r4, r1
    2214:	c2 cf       	rjmp	.-124    	; 0x219a <_ZN6Sh110617PrintDebugMessageEh+0xb0e>
    2216:	f8 01       	movw	r30, r16
    2218:	80 81       	ld	r24, Z
    221a:	91 81       	ldd	r25, Z+1	; 0x01
    221c:	dc 01       	movw	r26, r24
    221e:	ed 91       	ld	r30, X+
    2220:	fc 91       	ld	r31, X
    2222:	00 88       	ldd	r0, Z+16	; 0x10
    2224:	f1 89       	ldd	r31, Z+17	; 0x11
    2226:	e0 2d       	mov	r30, r0
    2228:	09 95       	icall
    222a:	65 b2       	in	r6, 0x15	; 21
    222c:	f8 01       	movw	r30, r16
    222e:	80 81       	ld	r24, Z
    2230:	91 81       	ldd	r25, Z+1	; 0x01
    2232:	dc 01       	movw	r26, r24
    2234:	ed 91       	ld	r30, X+
    2236:	fc 91       	ld	r31, X
    2238:	06 84       	ldd	r0, Z+14	; 0x0e
    223a:	f7 85       	ldd	r31, Z+15	; 0x0f
    223c:	e0 2d       	mov	r30, r0
    223e:	09 95       	icall
    2240:	3b ec       	ldi	r19, 0xCB	; 203
    2242:	c3 2e       	mov	r12, r19
    2244:	31 e0       	ldi	r19, 0x01	; 1
    2246:	d3 2e       	mov	r13, r19
    2248:	c6 01       	movw	r24, r12
    224a:	0e 94 25 1a 	call	0x344a	; 0x344a <eeprom_read_byte>
    224e:	8f b9       	out	0x0f, r24	; 15
    2250:	77 9b       	sbis	0x0e, 7	; 14
    2252:	fe cf       	rjmp	.-4      	; 0x2250 <_ZN6Sh110617PrintDebugMessageEh+0xbc4>
    2254:	ff ef       	ldi	r31, 0xFF	; 255
    2256:	cf 1a       	sub	r12, r31
    2258:	df 0a       	sbc	r13, r31
    225a:	ec 14       	cp	r14, r12
    225c:	fd 04       	cpc	r15, r13
    225e:	a1 f7       	brne	.-24     	; 0x2248 <_ZN6Sh110617PrintDebugMessageEh+0xbbc>
    2260:	1f b8       	out	0x0f, r1	; 15
    2262:	77 9b       	sbis	0x0e, 7	; 14
    2264:	fe cf       	rjmp	.-4      	; 0x2262 <_ZN6Sh110617PrintDebugMessageEh+0xbd6>
    2266:	d8 01       	movw	r26, r16
    2268:	8d 91       	ld	r24, X+
    226a:	9c 91       	ld	r25, X
    226c:	dc 01       	movw	r26, r24
    226e:	ed 91       	ld	r30, X+
    2270:	fc 91       	ld	r31, X
    2272:	00 88       	ldd	r0, Z+16	; 0x10
    2274:	f1 89       	ldd	r31, Z+17	; 0x11
    2276:	e0 2d       	mov	r30, r0
    2278:	09 95       	icall
    227a:	71 2c       	mov	r7, r1
    227c:	81 2c       	mov	r8, r1
    227e:	91 2c       	mov	r9, r1
    2280:	f8 01       	movw	r30, r16
    2282:	80 81       	ld	r24, Z
    2284:	91 81       	ldd	r25, Z+1	; 0x01
    2286:	dc 01       	movw	r26, r24
    2288:	ed 91       	ld	r30, X+
    228a:	fc 91       	ld	r31, X
    228c:	06 84       	ldd	r0, Z+14	; 0x0e
    228e:	f7 85       	ldd	r31, Z+15	; 0x0f
    2290:	e0 2d       	mov	r30, r0
    2292:	09 95       	icall
    2294:	c3 01       	movw	r24, r6
    2296:	08 2c       	mov	r0, r8
    2298:	02 c0       	rjmp	.+4      	; 0x229e <_ZN6Sh110617PrintDebugMessageEh+0xc12>
    229a:	95 95       	asr	r25
    229c:	87 95       	ror	r24
    229e:	0a 94       	dec	r0
    22a0:	e2 f7       	brpl	.-8      	; 0x229a <_ZN6Sh110617PrintDebugMessageEh+0xc0e>
    22a2:	83 70       	andi	r24, 0x03	; 3
    22a4:	80 5d       	subi	r24, 0xD0	; 208
    22a6:	90 e0       	ldi	r25, 0x00	; 0
    22a8:	88 97       	sbiw	r24, 0x28	; 40
    22aa:	6c 01       	movw	r12, r24
    22ac:	cc 0c       	add	r12, r12
    22ae:	dd 1c       	adc	r13, r13
    22b0:	cc 0c       	add	r12, r12
    22b2:	dd 1c       	adc	r13, r13
    22b4:	8c 0d       	add	r24, r12
    22b6:	9d 1d       	adc	r25, r13
    22b8:	fc 01       	movw	r30, r24
    22ba:	e9 5d       	subi	r30, 0xD9	; 217
    22bc:	ff 4f       	sbci	r31, 0xFF	; 255
    22be:	1f 01       	movw	r2, r30
    22c0:	9c 01       	movw	r18, r24
    22c2:	24 5d       	subi	r18, 0xD4	; 212
    22c4:	3f 4f       	sbci	r19, 0xFF	; 255
    22c6:	69 01       	movw	r12, r18
    22c8:	c1 01       	movw	r24, r2
    22ca:	0e 94 25 1a 	call	0x344a	; 0x344a <eeprom_read_byte>
    22ce:	8f b9       	out	0x0f, r24	; 15
    22d0:	77 9b       	sbis	0x0e, 7	; 14
    22d2:	fe cf       	rjmp	.-4      	; 0x22d0 <_ZN6Sh110617PrintDebugMessageEh+0xc44>
    22d4:	3f ef       	ldi	r19, 0xFF	; 255
    22d6:	23 1a       	sub	r2, r19
    22d8:	33 0a       	sbc	r3, r19
    22da:	2c 14       	cp	r2, r12
    22dc:	3d 04       	cpc	r3, r13
    22de:	a1 f7       	brne	.-24     	; 0x22c8 <_ZN6Sh110617PrintDebugMessageEh+0xc3c>
    22e0:	1f b8       	out	0x0f, r1	; 15
    22e2:	77 9b       	sbis	0x0e, 7	; 14
    22e4:	fe cf       	rjmp	.-4      	; 0x22e2 <_ZN6Sh110617PrintDebugMessageEh+0xc56>
    22e6:	d8 01       	movw	r26, r16
    22e8:	8d 91       	ld	r24, X+
    22ea:	9c 91       	ld	r25, X
    22ec:	dc 01       	movw	r26, r24
    22ee:	ed 91       	ld	r30, X+
    22f0:	fc 91       	ld	r31, X
    22f2:	00 88       	ldd	r0, Z+16	; 0x10
    22f4:	f1 89       	ldd	r31, Z+17	; 0x11
    22f6:	e0 2d       	mov	r30, r0
    22f8:	09 95       	icall
    22fa:	b2 e0       	ldi	r27, 0x02	; 2
    22fc:	8b 0e       	add	r8, r27
    22fe:	91 1c       	adc	r9, r1
    2300:	e8 e0       	ldi	r30, 0x08	; 8
    2302:	8e 16       	cp	r8, r30
    2304:	91 04       	cpc	r9, r1
    2306:	09 f0       	breq	.+2      	; 0x230a <_ZN6Sh110617PrintDebugMessageEh+0xc7e>
    2308:	bb cf       	rjmp	.-138    	; 0x2280 <_ZN6Sh110617PrintDebugMessageEh+0xbf4>
    230a:	d8 01       	movw	r26, r16
    230c:	8d 91       	ld	r24, X+
    230e:	9c 91       	ld	r25, X
    2310:	dc 01       	movw	r26, r24
    2312:	ed 91       	ld	r30, X+
    2314:	fc 91       	ld	r31, X
    2316:	06 84       	ldd	r0, Z+14	; 0x0e
    2318:	f7 85       	ldd	r31, Z+15	; 0x0f
    231a:	e0 2d       	mov	r30, r0
    231c:	09 95       	icall
    231e:	ab ec       	ldi	r26, 0xCB	; 203
    2320:	ca 2e       	mov	r12, r26
    2322:	a1 e0       	ldi	r26, 0x01	; 1
    2324:	da 2e       	mov	r13, r26
    2326:	c6 01       	movw	r24, r12
    2328:	0e 94 25 1a 	call	0x344a	; 0x344a <eeprom_read_byte>
    232c:	8f b9       	out	0x0f, r24	; 15
    232e:	77 9b       	sbis	0x0e, 7	; 14
    2330:	fe cf       	rjmp	.-4      	; 0x232e <_ZN6Sh110617PrintDebugMessageEh+0xca2>
    2332:	bf ef       	ldi	r27, 0xFF	; 255
    2334:	cb 1a       	sub	r12, r27
    2336:	db 0a       	sbc	r13, r27
    2338:	e0 ed       	ldi	r30, 0xD0	; 208
    233a:	ce 16       	cp	r12, r30
    233c:	e1 e0       	ldi	r30, 0x01	; 1
    233e:	de 06       	cpc	r13, r30
    2340:	91 f7       	brne	.-28     	; 0x2326 <_ZN6Sh110617PrintDebugMessageEh+0xc9a>
    2342:	1f b8       	out	0x0f, r1	; 15
    2344:	77 9b       	sbis	0x0e, 7	; 14
    2346:	fe cf       	rjmp	.-4      	; 0x2344 <_ZN6Sh110617PrintDebugMessageEh+0xcb8>
    2348:	d8 01       	movw	r26, r16
    234a:	8d 91       	ld	r24, X+
    234c:	9c 91       	ld	r25, X
    234e:	dc 01       	movw	r26, r24
    2350:	ed 91       	ld	r30, X+
    2352:	fc 91       	ld	r31, X
    2354:	00 88       	ldd	r0, Z+16	; 0x10
    2356:	f1 89       	ldd	r31, Z+17	; 0x11
    2358:	e0 2d       	mov	r30, r0
    235a:	09 95       	icall
    235c:	64 b2       	in	r6, 0x14	; 20
    235e:	f8 01       	movw	r30, r16
    2360:	80 81       	ld	r24, Z
    2362:	91 81       	ldd	r25, Z+1	; 0x01
    2364:	dc 01       	movw	r26, r24
    2366:	ed 91       	ld	r30, X+
    2368:	fc 91       	ld	r31, X
    236a:	06 84       	ldd	r0, Z+14	; 0x0e
    236c:	f7 85       	ldd	r31, Z+15	; 0x0f
    236e:	e0 2d       	mov	r30, r0
    2370:	09 95       	icall
    2372:	fb ec       	ldi	r31, 0xCB	; 203
    2374:	cf 2e       	mov	r12, r31
    2376:	f1 e0       	ldi	r31, 0x01	; 1
    2378:	df 2e       	mov	r13, r31
    237a:	c6 01       	movw	r24, r12
    237c:	0e 94 25 1a 	call	0x344a	; 0x344a <eeprom_read_byte>
    2380:	8f b9       	out	0x0f, r24	; 15
    2382:	77 9b       	sbis	0x0e, 7	; 14
    2384:	fe cf       	rjmp	.-4      	; 0x2382 <_ZN6Sh110617PrintDebugMessageEh+0xcf6>
    2386:	bf ef       	ldi	r27, 0xFF	; 255
    2388:	cb 1a       	sub	r12, r27
    238a:	db 0a       	sbc	r13, r27
    238c:	ec 14       	cp	r14, r12
    238e:	fd 04       	cpc	r15, r13
    2390:	a1 f7       	brne	.-24     	; 0x237a <_ZN6Sh110617PrintDebugMessageEh+0xcee>
    2392:	1f b8       	out	0x0f, r1	; 15
    2394:	77 9b       	sbis	0x0e, 7	; 14
    2396:	fe cf       	rjmp	.-4      	; 0x2394 <_ZN6Sh110617PrintDebugMessageEh+0xd08>
    2398:	f8 01       	movw	r30, r16
    239a:	80 81       	ld	r24, Z
    239c:	91 81       	ldd	r25, Z+1	; 0x01
    239e:	dc 01       	movw	r26, r24
    23a0:	ed 91       	ld	r30, X+
    23a2:	fc 91       	ld	r31, X
    23a4:	00 88       	ldd	r0, Z+16	; 0x10
    23a6:	f1 89       	ldd	r31, Z+17	; 0x11
    23a8:	e0 2d       	mov	r30, r0
    23aa:	09 95       	icall
    23ac:	71 2c       	mov	r7, r1
    23ae:	81 2c       	mov	r8, r1
    23b0:	91 2c       	mov	r9, r1
    23b2:	f8 01       	movw	r30, r16
    23b4:	80 81       	ld	r24, Z
    23b6:	91 81       	ldd	r25, Z+1	; 0x01
    23b8:	dc 01       	movw	r26, r24
    23ba:	ed 91       	ld	r30, X+
    23bc:	fc 91       	ld	r31, X
    23be:	06 84       	ldd	r0, Z+14	; 0x0e
    23c0:	f7 85       	ldd	r31, Z+15	; 0x0f
    23c2:	e0 2d       	mov	r30, r0
    23c4:	09 95       	icall
    23c6:	c3 01       	movw	r24, r6
    23c8:	08 2c       	mov	r0, r8
    23ca:	02 c0       	rjmp	.+4      	; 0x23d0 <_ZN6Sh110617PrintDebugMessageEh+0xd44>
    23cc:	95 95       	asr	r25
    23ce:	87 95       	ror	r24
    23d0:	0a 94       	dec	r0
    23d2:	e2 f7       	brpl	.-8      	; 0x23cc <_ZN6Sh110617PrintDebugMessageEh+0xd40>
    23d4:	83 70       	andi	r24, 0x03	; 3
    23d6:	80 5d       	subi	r24, 0xD0	; 208
    23d8:	90 e0       	ldi	r25, 0x00	; 0
    23da:	88 97       	sbiw	r24, 0x28	; 40
    23dc:	6c 01       	movw	r12, r24
    23de:	cc 0c       	add	r12, r12
    23e0:	dd 1c       	adc	r13, r13
    23e2:	cc 0c       	add	r12, r12
    23e4:	dd 1c       	adc	r13, r13
    23e6:	8c 0d       	add	r24, r12
    23e8:	9d 1d       	adc	r25, r13
    23ea:	fc 01       	movw	r30, r24
    23ec:	e9 5d       	subi	r30, 0xD9	; 217
    23ee:	ff 4f       	sbci	r31, 0xFF	; 255
    23f0:	1f 01       	movw	r2, r30
    23f2:	9c 01       	movw	r18, r24
    23f4:	24 5d       	subi	r18, 0xD4	; 212
    23f6:	3f 4f       	sbci	r19, 0xFF	; 255
    23f8:	69 01       	movw	r12, r18
    23fa:	c1 01       	movw	r24, r2
    23fc:	0e 94 25 1a 	call	0x344a	; 0x344a <eeprom_read_byte>
    2400:	8f b9       	out	0x0f, r24	; 15
    2402:	77 9b       	sbis	0x0e, 7	; 14
    2404:	fe cf       	rjmp	.-4      	; 0x2402 <_ZN6Sh110617PrintDebugMessageEh+0xd76>
    2406:	3f ef       	ldi	r19, 0xFF	; 255
    2408:	23 1a       	sub	r2, r19
    240a:	33 0a       	sbc	r3, r19
    240c:	2c 14       	cp	r2, r12
    240e:	3d 04       	cpc	r3, r13
    2410:	a1 f7       	brne	.-24     	; 0x23fa <_ZN6Sh110617PrintDebugMessageEh+0xd6e>
    2412:	1f b8       	out	0x0f, r1	; 15
    2414:	77 9b       	sbis	0x0e, 7	; 14
    2416:	fe cf       	rjmp	.-4      	; 0x2414 <_ZN6Sh110617PrintDebugMessageEh+0xd88>
    2418:	d8 01       	movw	r26, r16
    241a:	8d 91       	ld	r24, X+
    241c:	9c 91       	ld	r25, X
    241e:	dc 01       	movw	r26, r24
    2420:	ed 91       	ld	r30, X+
    2422:	fc 91       	ld	r31, X
    2424:	00 88       	ldd	r0, Z+16	; 0x10
    2426:	f1 89       	ldd	r31, Z+17	; 0x11
    2428:	e0 2d       	mov	r30, r0
    242a:	09 95       	icall
    242c:	b2 e0       	ldi	r27, 0x02	; 2
    242e:	8b 0e       	add	r8, r27
    2430:	91 1c       	adc	r9, r1
    2432:	e8 e0       	ldi	r30, 0x08	; 8
    2434:	8e 16       	cp	r8, r30
    2436:	91 04       	cpc	r9, r1
    2438:	09 f0       	breq	.+2      	; 0x243c <_ZN6Sh110617PrintDebugMessageEh+0xdb0>
    243a:	bb cf       	rjmp	.-138    	; 0x23b2 <_ZN6Sh110617PrintDebugMessageEh+0xd26>
    243c:	d8 01       	movw	r26, r16
    243e:	8d 91       	ld	r24, X+
    2440:	9c 91       	ld	r25, X
    2442:	dc 01       	movw	r26, r24
    2444:	ed 91       	ld	r30, X+
    2446:	fc 91       	ld	r31, X
    2448:	06 84       	ldd	r0, Z+14	; 0x0e
    244a:	f7 85       	ldd	r31, Z+15	; 0x0f
    244c:	e0 2d       	mov	r30, r0
    244e:	09 95       	icall
    2450:	7b ec       	ldi	r23, 0xCB	; 203
    2452:	c7 2e       	mov	r12, r23
    2454:	71 e0       	ldi	r23, 0x01	; 1
    2456:	d7 2e       	mov	r13, r23
    2458:	c6 01       	movw	r24, r12
    245a:	0e 94 25 1a 	call	0x344a	; 0x344a <eeprom_read_byte>
    245e:	8f b9       	out	0x0f, r24	; 15
    2460:	77 9b       	sbis	0x0e, 7	; 14
    2462:	fe cf       	rjmp	.-4      	; 0x2460 <_ZN6Sh110617PrintDebugMessageEh+0xdd4>
    2464:	bf ef       	ldi	r27, 0xFF	; 255
    2466:	cb 1a       	sub	r12, r27
    2468:	db 0a       	sbc	r13, r27
    246a:	ec 14       	cp	r14, r12
    246c:	fd 04       	cpc	r15, r13
    246e:	a1 f7       	brne	.-24     	; 0x2458 <_ZN6Sh110617PrintDebugMessageEh+0xdcc>
    2470:	1f b8       	out	0x0f, r1	; 15
    2472:	77 9b       	sbis	0x0e, 7	; 14
    2474:	fe cf       	rjmp	.-4      	; 0x2472 <_ZN6Sh110617PrintDebugMessageEh+0xde6>
    2476:	f8 01       	movw	r30, r16
    2478:	80 81       	ld	r24, Z
    247a:	91 81       	ldd	r25, Z+1	; 0x01
    247c:	dc 01       	movw	r26, r24
    247e:	ed 91       	ld	r30, X+
    2480:	fc 91       	ld	r31, X
    2482:	00 88       	ldd	r0, Z+16	; 0x10
    2484:	f1 89       	ldd	r31, Z+17	; 0x11
    2486:	e0 2d       	mov	r30, r0
    2488:	09 95       	icall
    248a:	63 b2       	in	r6, 0x13	; 19
    248c:	f8 01       	movw	r30, r16
    248e:	80 81       	ld	r24, Z
    2490:	91 81       	ldd	r25, Z+1	; 0x01
    2492:	dc 01       	movw	r26, r24
    2494:	ed 91       	ld	r30, X+
    2496:	fc 91       	ld	r31, X
    2498:	06 84       	ldd	r0, Z+14	; 0x0e
    249a:	f7 85       	ldd	r31, Z+15	; 0x0f
    249c:	e0 2d       	mov	r30, r0
    249e:	09 95       	icall
    24a0:	6b ec       	ldi	r22, 0xCB	; 203
    24a2:	c6 2e       	mov	r12, r22
    24a4:	61 e0       	ldi	r22, 0x01	; 1
    24a6:	d6 2e       	mov	r13, r22
    24a8:	c6 01       	movw	r24, r12
    24aa:	0e 94 25 1a 	call	0x344a	; 0x344a <eeprom_read_byte>
    24ae:	8f b9       	out	0x0f, r24	; 15
    24b0:	77 9b       	sbis	0x0e, 7	; 14
    24b2:	fe cf       	rjmp	.-4      	; 0x24b0 <_ZN6Sh110617PrintDebugMessageEh+0xe24>
    24b4:	bf ef       	ldi	r27, 0xFF	; 255
    24b6:	cb 1a       	sub	r12, r27
    24b8:	db 0a       	sbc	r13, r27
    24ba:	ec 14       	cp	r14, r12
    24bc:	fd 04       	cpc	r15, r13
    24be:	a1 f7       	brne	.-24     	; 0x24a8 <_ZN6Sh110617PrintDebugMessageEh+0xe1c>
    24c0:	1f b8       	out	0x0f, r1	; 15
    24c2:	77 9b       	sbis	0x0e, 7	; 14
    24c4:	fe cf       	rjmp	.-4      	; 0x24c2 <_ZN6Sh110617PrintDebugMessageEh+0xe36>
    24c6:	f8 01       	movw	r30, r16
    24c8:	80 81       	ld	r24, Z
    24ca:	91 81       	ldd	r25, Z+1	; 0x01
    24cc:	dc 01       	movw	r26, r24
    24ce:	ed 91       	ld	r30, X+
    24d0:	fc 91       	ld	r31, X
    24d2:	00 88       	ldd	r0, Z+16	; 0x10
    24d4:	f1 89       	ldd	r31, Z+17	; 0x11
    24d6:	e0 2d       	mov	r30, r0
    24d8:	09 95       	icall
    24da:	71 2c       	mov	r7, r1
    24dc:	81 2c       	mov	r8, r1
    24de:	91 2c       	mov	r9, r1
    24e0:	f8 01       	movw	r30, r16
    24e2:	80 81       	ld	r24, Z
    24e4:	91 81       	ldd	r25, Z+1	; 0x01
    24e6:	dc 01       	movw	r26, r24
    24e8:	ed 91       	ld	r30, X+
    24ea:	fc 91       	ld	r31, X
    24ec:	06 84       	ldd	r0, Z+14	; 0x0e
    24ee:	f7 85       	ldd	r31, Z+15	; 0x0f
    24f0:	e0 2d       	mov	r30, r0
    24f2:	09 95       	icall
    24f4:	c3 01       	movw	r24, r6
    24f6:	08 2c       	mov	r0, r8
    24f8:	02 c0       	rjmp	.+4      	; 0x24fe <_ZN6Sh110617PrintDebugMessageEh+0xe72>
    24fa:	95 95       	asr	r25
    24fc:	87 95       	ror	r24
    24fe:	0a 94       	dec	r0
    2500:	e2 f7       	brpl	.-8      	; 0x24fa <_ZN6Sh110617PrintDebugMessageEh+0xe6e>
    2502:	83 70       	andi	r24, 0x03	; 3
    2504:	80 5d       	subi	r24, 0xD0	; 208
    2506:	90 e0       	ldi	r25, 0x00	; 0
    2508:	88 97       	sbiw	r24, 0x28	; 40
    250a:	6c 01       	movw	r12, r24
    250c:	cc 0c       	add	r12, r12
    250e:	dd 1c       	adc	r13, r13
    2510:	cc 0c       	add	r12, r12
    2512:	dd 1c       	adc	r13, r13
    2514:	8c 0d       	add	r24, r12
    2516:	9d 1d       	adc	r25, r13
    2518:	fc 01       	movw	r30, r24
    251a:	e9 5d       	subi	r30, 0xD9	; 217
    251c:	ff 4f       	sbci	r31, 0xFF	; 255
    251e:	1f 01       	movw	r2, r30
    2520:	9c 01       	movw	r18, r24
    2522:	24 5d       	subi	r18, 0xD4	; 212
    2524:	3f 4f       	sbci	r19, 0xFF	; 255
    2526:	69 01       	movw	r12, r18
    2528:	c1 01       	movw	r24, r2
    252a:	0e 94 25 1a 	call	0x344a	; 0x344a <eeprom_read_byte>
    252e:	8f b9       	out	0x0f, r24	; 15
    2530:	77 9b       	sbis	0x0e, 7	; 14
    2532:	fe cf       	rjmp	.-4      	; 0x2530 <_ZN6Sh110617PrintDebugMessageEh+0xea4>
    2534:	3f ef       	ldi	r19, 0xFF	; 255
    2536:	23 1a       	sub	r2, r19
    2538:	33 0a       	sbc	r3, r19
    253a:	2c 14       	cp	r2, r12
    253c:	3d 04       	cpc	r3, r13
    253e:	a1 f7       	brne	.-24     	; 0x2528 <_ZN6Sh110617PrintDebugMessageEh+0xe9c>
    2540:	1f b8       	out	0x0f, r1	; 15
    2542:	77 9b       	sbis	0x0e, 7	; 14
    2544:	fe cf       	rjmp	.-4      	; 0x2542 <_ZN6Sh110617PrintDebugMessageEh+0xeb6>
    2546:	d8 01       	movw	r26, r16
    2548:	8d 91       	ld	r24, X+
    254a:	9c 91       	ld	r25, X
    254c:	dc 01       	movw	r26, r24
    254e:	ed 91       	ld	r30, X+
    2550:	fc 91       	ld	r31, X
    2552:	00 88       	ldd	r0, Z+16	; 0x10
    2554:	f1 89       	ldd	r31, Z+17	; 0x11
    2556:	e0 2d       	mov	r30, r0
    2558:	09 95       	icall
    255a:	b2 e0       	ldi	r27, 0x02	; 2
    255c:	8b 0e       	add	r8, r27
    255e:	91 1c       	adc	r9, r1
    2560:	e8 e0       	ldi	r30, 0x08	; 8
    2562:	8e 16       	cp	r8, r30
    2564:	91 04       	cpc	r9, r1
    2566:	09 f0       	breq	.+2      	; 0x256a <_ZN6Sh110617PrintDebugMessageEh+0xede>
    2568:	bb cf       	rjmp	.-138    	; 0x24e0 <_ZN6Sh110617PrintDebugMessageEh+0xe54>
    256a:	d8 01       	movw	r26, r16
    256c:	8d 91       	ld	r24, X+
    256e:	9c 91       	ld	r25, X
    2570:	dc 01       	movw	r26, r24
    2572:	ed 91       	ld	r30, X+
    2574:	fc 91       	ld	r31, X
    2576:	06 84       	ldd	r0, Z+14	; 0x0e
    2578:	f7 85       	ldd	r31, Z+15	; 0x0f
    257a:	e0 2d       	mov	r30, r0
    257c:	09 95       	icall
    257e:	4b ec       	ldi	r20, 0xCB	; 203
    2580:	c4 2e       	mov	r12, r20
    2582:	41 e0       	ldi	r20, 0x01	; 1
    2584:	d4 2e       	mov	r13, r20
    2586:	c6 01       	movw	r24, r12
    2588:	0e 94 25 1a 	call	0x344a	; 0x344a <eeprom_read_byte>
    258c:	8f b9       	out	0x0f, r24	; 15
    258e:	77 9b       	sbis	0x0e, 7	; 14
    2590:	fe cf       	rjmp	.-4      	; 0x258e <_ZN6Sh110617PrintDebugMessageEh+0xf02>
    2592:	bf ef       	ldi	r27, 0xFF	; 255
    2594:	cb 1a       	sub	r12, r27
    2596:	db 0a       	sbc	r13, r27
    2598:	ec 14       	cp	r14, r12
    259a:	fd 04       	cpc	r15, r13
    259c:	a1 f7       	brne	.-24     	; 0x2586 <_ZN6Sh110617PrintDebugMessageEh+0xefa>
    259e:	1f b8       	out	0x0f, r1	; 15
    25a0:	77 9b       	sbis	0x0e, 7	; 14
    25a2:	fe cf       	rjmp	.-4      	; 0x25a0 <_ZN6Sh110617PrintDebugMessageEh+0xf14>
    25a4:	f8 01       	movw	r30, r16
    25a6:	80 81       	ld	r24, Z
    25a8:	91 81       	ldd	r25, Z+1	; 0x01
    25aa:	dc 01       	movw	r26, r24
    25ac:	ed 91       	ld	r30, X+
    25ae:	fc 91       	ld	r31, X
    25b0:	00 88       	ldd	r0, Z+16	; 0x10
    25b2:	f1 89       	ldd	r31, Z+17	; 0x11
    25b4:	e0 2d       	mov	r30, r0
    25b6:	09 95       	icall
    25b8:	43 e0       	ldi	r20, 0x03	; 3
    25ba:	50 e0       	ldi	r21, 0x00	; 0
    25bc:	6b e1       	ldi	r22, 0x1B	; 27
    25be:	70 e0       	ldi	r23, 0x00	; 0
    25c0:	ce 01       	movw	r24, r28
    25c2:	01 96       	adiw	r24, 0x01	; 1
    25c4:	0e 94 15 1a 	call	0x342a	; 0x342a <eeprom_read_block>
    25c8:	f8 01       	movw	r30, r16
    25ca:	80 81       	ld	r24, Z
    25cc:	91 81       	ldd	r25, Z+1	; 0x01
    25ce:	dc 01       	movw	r26, r24
    25d0:	ed 91       	ld	r30, X+
    25d2:	fc 91       	ld	r31, X
    25d4:	00 88       	ldd	r0, Z+16	; 0x10
    25d6:	f1 89       	ldd	r31, Z+17	; 0x11
    25d8:	e0 2d       	mov	r30, r0
    25da:	09 95       	icall
    25dc:	f8 01       	movw	r30, r16
    25de:	86 8d       	ldd	r24, Z+30	; 0x1e
    25e0:	8f b9       	out	0x0f, r24	; 15
    25e2:	77 9b       	sbis	0x0e, 7	; 14
    25e4:	fe cf       	rjmp	.-4      	; 0x25e2 <_ZN6Sh110617PrintDebugMessageEh+0xf56>
    25e6:	84 eb       	ldi	r24, 0xB4	; 180
    25e8:	8f b9       	out	0x0f, r24	; 15
    25ea:	77 9b       	sbis	0x0e, 7	; 14
    25ec:	fe cf       	rjmp	.-4      	; 0x25ea <_ZN6Sh110617PrintDebugMessageEh+0xf5e>
    25ee:	d8 01       	movw	r26, r16
    25f0:	5f 96       	adiw	r26, 0x1f	; 31
    25f2:	8c 91       	ld	r24, X
    25f4:	8f b9       	out	0x0f, r24	; 15
    25f6:	77 9b       	sbis	0x0e, 7	; 14
    25f8:	fe cf       	rjmp	.-4      	; 0x25f6 <_ZN6Sh110617PrintDebugMessageEh+0xf6a>
    25fa:	f8 01       	movw	r30, r16
    25fc:	80 81       	ld	r24, Z
    25fe:	91 81       	ldd	r25, Z+1	; 0x01
    2600:	dc 01       	movw	r26, r24
    2602:	ed 91       	ld	r30, X+
    2604:	fc 91       	ld	r31, X
    2606:	06 84       	ldd	r0, Z+14	; 0x0e
    2608:	f7 85       	ldd	r31, Z+15	; 0x0f
    260a:	e0 2d       	mov	r30, r0
    260c:	09 95       	icall
    260e:	1f b8       	out	0x0f, r1	; 15
    2610:	77 9b       	sbis	0x0e, 7	; 14
    2612:	fe cf       	rjmp	.-4      	; 0x2610 <_ZN6Sh110617PrintDebugMessageEh+0xf84>
    2614:	f8 01       	movw	r30, r16
    2616:	80 81       	ld	r24, Z
    2618:	91 81       	ldd	r25, Z+1	; 0x01
    261a:	dc 01       	movw	r26, r24
    261c:	ed 91       	ld	r30, X+
    261e:	fc 91       	ld	r31, X
    2620:	06 84       	ldd	r0, Z+14	; 0x0e
    2622:	f7 85       	ldd	r31, Z+15	; 0x0f
    2624:	e0 2d       	mov	r30, r0
    2626:	09 95       	icall
    2628:	49 80       	ldd	r4, Y+1	; 0x01
    262a:	44 20       	and	r4, r4
    262c:	09 f4       	brne	.+2      	; 0x2630 <_ZN6Sh110617PrintDebugMessageEh+0xfa4>
    262e:	42 c0       	rjmp	.+132    	; 0x26b4 <_ZN6Sh110617PrintDebugMessageEh+0x1028>
    2630:	4e 01       	movw	r8, r28
    2632:	b2 e0       	ldi	r27, 0x02	; 2
    2634:	8b 0e       	add	r8, r27
    2636:	91 1c       	adc	r9, r1
    2638:	f8 01       	movw	r30, r16
    263a:	80 81       	ld	r24, Z
    263c:	91 81       	ldd	r25, Z+1	; 0x01
    263e:	dc 01       	movw	r26, r24
    2640:	ed 91       	ld	r30, X+
    2642:	fc 91       	ld	r31, X
    2644:	06 84       	ldd	r0, Z+14	; 0x0e
    2646:	f7 85       	ldd	r31, Z+15	; 0x0f
    2648:	e0 2d       	mov	r30, r0
    264a:	09 95       	icall
    264c:	84 2d       	mov	r24, r4
    264e:	90 e0       	ldi	r25, 0x00	; 0
    2650:	88 97       	sbiw	r24, 0x28	; 40
    2652:	6c 01       	movw	r12, r24
    2654:	cc 0c       	add	r12, r12
    2656:	dd 1c       	adc	r13, r13
    2658:	cc 0c       	add	r12, r12
    265a:	dd 1c       	adc	r13, r13
    265c:	8c 0d       	add	r24, r12
    265e:	9d 1d       	adc	r25, r13
    2660:	fc 01       	movw	r30, r24
    2662:	e9 5d       	subi	r30, 0xD9	; 217
    2664:	ff 4f       	sbci	r31, 0xFF	; 255
    2666:	3f 01       	movw	r6, r30
    2668:	9c 01       	movw	r18, r24
    266a:	24 5d       	subi	r18, 0xD4	; 212
    266c:	3f 4f       	sbci	r19, 0xFF	; 255
    266e:	69 01       	movw	r12, r18
    2670:	30 e2       	ldi	r19, 0x20	; 32
    2672:	43 16       	cp	r4, r19
    2674:	09 f4       	brne	.+2      	; 0x2678 <_ZN6Sh110617PrintDebugMessageEh+0xfec>
    2676:	bf c2       	rjmp	.+1406   	; 0x2bf6 <_ZN6Sh110617PrintDebugMessageEh+0x156a>
    2678:	c3 01       	movw	r24, r6
    267a:	0e 94 25 1a 	call	0x344a	; 0x344a <eeprom_read_byte>
    267e:	8f b9       	out	0x0f, r24	; 15
    2680:	77 9b       	sbis	0x0e, 7	; 14
    2682:	fe cf       	rjmp	.-4      	; 0x2680 <_ZN6Sh110617PrintDebugMessageEh+0xff4>
    2684:	8f ef       	ldi	r24, 0xFF	; 255
    2686:	68 1a       	sub	r6, r24
    2688:	78 0a       	sbc	r7, r24
    268a:	6c 14       	cp	r6, r12
    268c:	7d 04       	cpc	r7, r13
    268e:	81 f7       	brne	.-32     	; 0x2670 <_ZN6Sh110617PrintDebugMessageEh+0xfe4>
    2690:	1f b8       	out	0x0f, r1	; 15
    2692:	77 9b       	sbis	0x0e, 7	; 14
    2694:	fe cf       	rjmp	.-4      	; 0x2692 <_ZN6Sh110617PrintDebugMessageEh+0x1006>
    2696:	d8 01       	movw	r26, r16
    2698:	8d 91       	ld	r24, X+
    269a:	9c 91       	ld	r25, X
    269c:	dc 01       	movw	r26, r24
    269e:	ed 91       	ld	r30, X+
    26a0:	fc 91       	ld	r31, X
    26a2:	00 88       	ldd	r0, Z+16	; 0x10
    26a4:	f1 89       	ldd	r31, Z+17	; 0x11
    26a6:	e0 2d       	mov	r30, r0
    26a8:	09 95       	icall
    26aa:	f4 01       	movw	r30, r8
    26ac:	41 90       	ld	r4, Z+
    26ae:	4f 01       	movw	r8, r30
    26b0:	41 10       	cpse	r4, r1
    26b2:	c2 cf       	rjmp	.-124    	; 0x2638 <_ZN6Sh110617PrintDebugMessageEh+0xfac>
    26b4:	f8 01       	movw	r30, r16
    26b6:	80 81       	ld	r24, Z
    26b8:	91 81       	ldd	r25, Z+1	; 0x01
    26ba:	dc 01       	movw	r26, r24
    26bc:	ed 91       	ld	r30, X+
    26be:	fc 91       	ld	r31, X
    26c0:	00 88       	ldd	r0, Z+16	; 0x10
    26c2:	f1 89       	ldd	r31, Z+17	; 0x11
    26c4:	e0 2d       	mov	r30, r0
    26c6:	09 95       	icall
    26c8:	62 b2       	in	r6, 0x12	; 18
    26ca:	f8 01       	movw	r30, r16
    26cc:	80 81       	ld	r24, Z
    26ce:	91 81       	ldd	r25, Z+1	; 0x01
    26d0:	dc 01       	movw	r26, r24
    26d2:	ed 91       	ld	r30, X+
    26d4:	fc 91       	ld	r31, X
    26d6:	06 84       	ldd	r0, Z+14	; 0x0e
    26d8:	f7 85       	ldd	r31, Z+15	; 0x0f
    26da:	e0 2d       	mov	r30, r0
    26dc:	09 95       	icall
    26de:	3b ec       	ldi	r19, 0xCB	; 203
    26e0:	c3 2e       	mov	r12, r19
    26e2:	31 e0       	ldi	r19, 0x01	; 1
    26e4:	d3 2e       	mov	r13, r19
    26e6:	c6 01       	movw	r24, r12
    26e8:	0e 94 25 1a 	call	0x344a	; 0x344a <eeprom_read_byte>
    26ec:	8f b9       	out	0x0f, r24	; 15
    26ee:	77 9b       	sbis	0x0e, 7	; 14
    26f0:	fe cf       	rjmp	.-4      	; 0x26ee <_ZN6Sh110617PrintDebugMessageEh+0x1062>
    26f2:	ff ef       	ldi	r31, 0xFF	; 255
    26f4:	cf 1a       	sub	r12, r31
    26f6:	df 0a       	sbc	r13, r31
    26f8:	ec 14       	cp	r14, r12
    26fa:	fd 04       	cpc	r15, r13
    26fc:	a1 f7       	brne	.-24     	; 0x26e6 <_ZN6Sh110617PrintDebugMessageEh+0x105a>
    26fe:	1f b8       	out	0x0f, r1	; 15
    2700:	77 9b       	sbis	0x0e, 7	; 14
    2702:	fe cf       	rjmp	.-4      	; 0x2700 <_ZN6Sh110617PrintDebugMessageEh+0x1074>
    2704:	d8 01       	movw	r26, r16
    2706:	8d 91       	ld	r24, X+
    2708:	9c 91       	ld	r25, X
    270a:	dc 01       	movw	r26, r24
    270c:	ed 91       	ld	r30, X+
    270e:	fc 91       	ld	r31, X
    2710:	00 88       	ldd	r0, Z+16	; 0x10
    2712:	f1 89       	ldd	r31, Z+17	; 0x11
    2714:	e0 2d       	mov	r30, r0
    2716:	09 95       	icall
    2718:	71 2c       	mov	r7, r1
    271a:	81 2c       	mov	r8, r1
    271c:	91 2c       	mov	r9, r1
    271e:	f8 01       	movw	r30, r16
    2720:	80 81       	ld	r24, Z
    2722:	91 81       	ldd	r25, Z+1	; 0x01
    2724:	dc 01       	movw	r26, r24
    2726:	ed 91       	ld	r30, X+
    2728:	fc 91       	ld	r31, X
    272a:	06 84       	ldd	r0, Z+14	; 0x0e
    272c:	f7 85       	ldd	r31, Z+15	; 0x0f
    272e:	e0 2d       	mov	r30, r0
    2730:	09 95       	icall
    2732:	c3 01       	movw	r24, r6
    2734:	08 2c       	mov	r0, r8
    2736:	02 c0       	rjmp	.+4      	; 0x273c <_ZN6Sh110617PrintDebugMessageEh+0x10b0>
    2738:	95 95       	asr	r25
    273a:	87 95       	ror	r24
    273c:	0a 94       	dec	r0
    273e:	e2 f7       	brpl	.-8      	; 0x2738 <_ZN6Sh110617PrintDebugMessageEh+0x10ac>
    2740:	83 70       	andi	r24, 0x03	; 3
    2742:	80 5d       	subi	r24, 0xD0	; 208
    2744:	90 e0       	ldi	r25, 0x00	; 0
    2746:	88 97       	sbiw	r24, 0x28	; 40
    2748:	6c 01       	movw	r12, r24
    274a:	cc 0c       	add	r12, r12
    274c:	dd 1c       	adc	r13, r13
    274e:	cc 0c       	add	r12, r12
    2750:	dd 1c       	adc	r13, r13
    2752:	8c 0d       	add	r24, r12
    2754:	9d 1d       	adc	r25, r13
    2756:	fc 01       	movw	r30, r24
    2758:	e9 5d       	subi	r30, 0xD9	; 217
    275a:	ff 4f       	sbci	r31, 0xFF	; 255
    275c:	1f 01       	movw	r2, r30
    275e:	9c 01       	movw	r18, r24
    2760:	24 5d       	subi	r18, 0xD4	; 212
    2762:	3f 4f       	sbci	r19, 0xFF	; 255
    2764:	69 01       	movw	r12, r18
    2766:	c1 01       	movw	r24, r2
    2768:	0e 94 25 1a 	call	0x344a	; 0x344a <eeprom_read_byte>
    276c:	8f b9       	out	0x0f, r24	; 15
    276e:	77 9b       	sbis	0x0e, 7	; 14
    2770:	fe cf       	rjmp	.-4      	; 0x276e <_ZN6Sh110617PrintDebugMessageEh+0x10e2>
    2772:	3f ef       	ldi	r19, 0xFF	; 255
    2774:	23 1a       	sub	r2, r19
    2776:	33 0a       	sbc	r3, r19
    2778:	2c 14       	cp	r2, r12
    277a:	3d 04       	cpc	r3, r13
    277c:	a1 f7       	brne	.-24     	; 0x2766 <_ZN6Sh110617PrintDebugMessageEh+0x10da>
    277e:	1f b8       	out	0x0f, r1	; 15
    2780:	77 9b       	sbis	0x0e, 7	; 14
    2782:	fe cf       	rjmp	.-4      	; 0x2780 <_ZN6Sh110617PrintDebugMessageEh+0x10f4>
    2784:	d8 01       	movw	r26, r16
    2786:	8d 91       	ld	r24, X+
    2788:	9c 91       	ld	r25, X
    278a:	dc 01       	movw	r26, r24
    278c:	ed 91       	ld	r30, X+
    278e:	fc 91       	ld	r31, X
    2790:	00 88       	ldd	r0, Z+16	; 0x10
    2792:	f1 89       	ldd	r31, Z+17	; 0x11
    2794:	e0 2d       	mov	r30, r0
    2796:	09 95       	icall
    2798:	b2 e0       	ldi	r27, 0x02	; 2
    279a:	8b 0e       	add	r8, r27
    279c:	91 1c       	adc	r9, r1
    279e:	e8 e0       	ldi	r30, 0x08	; 8
    27a0:	8e 16       	cp	r8, r30
    27a2:	91 04       	cpc	r9, r1
    27a4:	09 f0       	breq	.+2      	; 0x27a8 <_ZN6Sh110617PrintDebugMessageEh+0x111c>
    27a6:	bb cf       	rjmp	.-138    	; 0x271e <_ZN6Sh110617PrintDebugMessageEh+0x1092>
    27a8:	d8 01       	movw	r26, r16
    27aa:	8d 91       	ld	r24, X+
    27ac:	9c 91       	ld	r25, X
    27ae:	dc 01       	movw	r26, r24
    27b0:	ed 91       	ld	r30, X+
    27b2:	fc 91       	ld	r31, X
    27b4:	06 84       	ldd	r0, Z+14	; 0x0e
    27b6:	f7 85       	ldd	r31, Z+15	; 0x0f
    27b8:	e0 2d       	mov	r30, r0
    27ba:	09 95       	icall
    27bc:	ab ec       	ldi	r26, 0xCB	; 203
    27be:	ca 2e       	mov	r12, r26
    27c0:	a1 e0       	ldi	r26, 0x01	; 1
    27c2:	da 2e       	mov	r13, r26
    27c4:	c6 01       	movw	r24, r12
    27c6:	0e 94 25 1a 	call	0x344a	; 0x344a <eeprom_read_byte>
    27ca:	8f b9       	out	0x0f, r24	; 15
    27cc:	77 9b       	sbis	0x0e, 7	; 14
    27ce:	fe cf       	rjmp	.-4      	; 0x27cc <_ZN6Sh110617PrintDebugMessageEh+0x1140>
    27d0:	bf ef       	ldi	r27, 0xFF	; 255
    27d2:	cb 1a       	sub	r12, r27
    27d4:	db 0a       	sbc	r13, r27
    27d6:	ec 14       	cp	r14, r12
    27d8:	fd 04       	cpc	r15, r13
    27da:	a1 f7       	brne	.-24     	; 0x27c4 <_ZN6Sh110617PrintDebugMessageEh+0x1138>
    27dc:	1f b8       	out	0x0f, r1	; 15
    27de:	77 9b       	sbis	0x0e, 7	; 14
    27e0:	fe cf       	rjmp	.-4      	; 0x27de <_ZN6Sh110617PrintDebugMessageEh+0x1152>
    27e2:	f8 01       	movw	r30, r16
    27e4:	80 81       	ld	r24, Z
    27e6:	91 81       	ldd	r25, Z+1	; 0x01
    27e8:	dc 01       	movw	r26, r24
    27ea:	ed 91       	ld	r30, X+
    27ec:	fc 91       	ld	r31, X
    27ee:	00 88       	ldd	r0, Z+16	; 0x10
    27f0:	f1 89       	ldd	r31, Z+17	; 0x11
    27f2:	e0 2d       	mov	r30, r0
    27f4:	09 95       	icall
    27f6:	61 b2       	in	r6, 0x11	; 17
    27f8:	f8 01       	movw	r30, r16
    27fa:	80 81       	ld	r24, Z
    27fc:	91 81       	ldd	r25, Z+1	; 0x01
    27fe:	dc 01       	movw	r26, r24
    2800:	ed 91       	ld	r30, X+
    2802:	fc 91       	ld	r31, X
    2804:	06 84       	ldd	r0, Z+14	; 0x0e
    2806:	f7 85       	ldd	r31, Z+15	; 0x0f
    2808:	e0 2d       	mov	r30, r0
    280a:	09 95       	icall
    280c:	fb ec       	ldi	r31, 0xCB	; 203
    280e:	cf 2e       	mov	r12, r31
    2810:	f1 e0       	ldi	r31, 0x01	; 1
    2812:	df 2e       	mov	r13, r31
    2814:	c6 01       	movw	r24, r12
    2816:	0e 94 25 1a 	call	0x344a	; 0x344a <eeprom_read_byte>
    281a:	8f b9       	out	0x0f, r24	; 15
    281c:	77 9b       	sbis	0x0e, 7	; 14
    281e:	fe cf       	rjmp	.-4      	; 0x281c <_ZN6Sh110617PrintDebugMessageEh+0x1190>
    2820:	bf ef       	ldi	r27, 0xFF	; 255
    2822:	cb 1a       	sub	r12, r27
    2824:	db 0a       	sbc	r13, r27
    2826:	ec 14       	cp	r14, r12
    2828:	fd 04       	cpc	r15, r13
    282a:	a1 f7       	brne	.-24     	; 0x2814 <_ZN6Sh110617PrintDebugMessageEh+0x1188>
    282c:	1f b8       	out	0x0f, r1	; 15
    282e:	77 9b       	sbis	0x0e, 7	; 14
    2830:	fe cf       	rjmp	.-4      	; 0x282e <_ZN6Sh110617PrintDebugMessageEh+0x11a2>
    2832:	f8 01       	movw	r30, r16
    2834:	80 81       	ld	r24, Z
    2836:	91 81       	ldd	r25, Z+1	; 0x01
    2838:	dc 01       	movw	r26, r24
    283a:	ed 91       	ld	r30, X+
    283c:	fc 91       	ld	r31, X
    283e:	00 88       	ldd	r0, Z+16	; 0x10
    2840:	f1 89       	ldd	r31, Z+17	; 0x11
    2842:	e0 2d       	mov	r30, r0
    2844:	09 95       	icall
    2846:	71 2c       	mov	r7, r1
    2848:	81 2c       	mov	r8, r1
    284a:	91 2c       	mov	r9, r1
    284c:	f8 01       	movw	r30, r16
    284e:	80 81       	ld	r24, Z
    2850:	91 81       	ldd	r25, Z+1	; 0x01
    2852:	dc 01       	movw	r26, r24
    2854:	ed 91       	ld	r30, X+
    2856:	fc 91       	ld	r31, X
    2858:	06 84       	ldd	r0, Z+14	; 0x0e
    285a:	f7 85       	ldd	r31, Z+15	; 0x0f
    285c:	e0 2d       	mov	r30, r0
    285e:	09 95       	icall
    2860:	c3 01       	movw	r24, r6
    2862:	08 2c       	mov	r0, r8
    2864:	02 c0       	rjmp	.+4      	; 0x286a <_ZN6Sh110617PrintDebugMessageEh+0x11de>
    2866:	95 95       	asr	r25
    2868:	87 95       	ror	r24
    286a:	0a 94       	dec	r0
    286c:	e2 f7       	brpl	.-8      	; 0x2866 <_ZN6Sh110617PrintDebugMessageEh+0x11da>
    286e:	83 70       	andi	r24, 0x03	; 3
    2870:	80 5d       	subi	r24, 0xD0	; 208
    2872:	90 e0       	ldi	r25, 0x00	; 0
    2874:	88 97       	sbiw	r24, 0x28	; 40
    2876:	6c 01       	movw	r12, r24
    2878:	cc 0c       	add	r12, r12
    287a:	dd 1c       	adc	r13, r13
    287c:	cc 0c       	add	r12, r12
    287e:	dd 1c       	adc	r13, r13
    2880:	8c 0d       	add	r24, r12
    2882:	9d 1d       	adc	r25, r13
    2884:	fc 01       	movw	r30, r24
    2886:	e9 5d       	subi	r30, 0xD9	; 217
    2888:	ff 4f       	sbci	r31, 0xFF	; 255
    288a:	1f 01       	movw	r2, r30
    288c:	9c 01       	movw	r18, r24
    288e:	24 5d       	subi	r18, 0xD4	; 212
    2890:	3f 4f       	sbci	r19, 0xFF	; 255
    2892:	69 01       	movw	r12, r18
    2894:	c1 01       	movw	r24, r2
    2896:	0e 94 25 1a 	call	0x344a	; 0x344a <eeprom_read_byte>
    289a:	8f b9       	out	0x0f, r24	; 15
    289c:	77 9b       	sbis	0x0e, 7	; 14
    289e:	fe cf       	rjmp	.-4      	; 0x289c <_ZN6Sh110617PrintDebugMessageEh+0x1210>
    28a0:	3f ef       	ldi	r19, 0xFF	; 255
    28a2:	23 1a       	sub	r2, r19
    28a4:	33 0a       	sbc	r3, r19
    28a6:	2c 14       	cp	r2, r12
    28a8:	3d 04       	cpc	r3, r13
    28aa:	a1 f7       	brne	.-24     	; 0x2894 <_ZN6Sh110617PrintDebugMessageEh+0x1208>
    28ac:	1f b8       	out	0x0f, r1	; 15
    28ae:	77 9b       	sbis	0x0e, 7	; 14
    28b0:	fe cf       	rjmp	.-4      	; 0x28ae <_ZN6Sh110617PrintDebugMessageEh+0x1222>
    28b2:	d8 01       	movw	r26, r16
    28b4:	8d 91       	ld	r24, X+
    28b6:	9c 91       	ld	r25, X
    28b8:	dc 01       	movw	r26, r24
    28ba:	ed 91       	ld	r30, X+
    28bc:	fc 91       	ld	r31, X
    28be:	00 88       	ldd	r0, Z+16	; 0x10
    28c0:	f1 89       	ldd	r31, Z+17	; 0x11
    28c2:	e0 2d       	mov	r30, r0
    28c4:	09 95       	icall
    28c6:	b2 e0       	ldi	r27, 0x02	; 2
    28c8:	8b 0e       	add	r8, r27
    28ca:	91 1c       	adc	r9, r1
    28cc:	e8 e0       	ldi	r30, 0x08	; 8
    28ce:	8e 16       	cp	r8, r30
    28d0:	91 04       	cpc	r9, r1
    28d2:	09 f0       	breq	.+2      	; 0x28d6 <_ZN6Sh110617PrintDebugMessageEh+0x124a>
    28d4:	bb cf       	rjmp	.-138    	; 0x284c <_ZN6Sh110617PrintDebugMessageEh+0x11c0>
    28d6:	d8 01       	movw	r26, r16
    28d8:	8d 91       	ld	r24, X+
    28da:	9c 91       	ld	r25, X
    28dc:	dc 01       	movw	r26, r24
    28de:	ed 91       	ld	r30, X+
    28e0:	fc 91       	ld	r31, X
    28e2:	06 84       	ldd	r0, Z+14	; 0x0e
    28e4:	f7 85       	ldd	r31, Z+15	; 0x0f
    28e6:	e0 2d       	mov	r30, r0
    28e8:	09 95       	icall
    28ea:	7b ec       	ldi	r23, 0xCB	; 203
    28ec:	c7 2e       	mov	r12, r23
    28ee:	71 e0       	ldi	r23, 0x01	; 1
    28f0:	d7 2e       	mov	r13, r23
    28f2:	c6 01       	movw	r24, r12
    28f4:	0e 94 25 1a 	call	0x344a	; 0x344a <eeprom_read_byte>
    28f8:	8f b9       	out	0x0f, r24	; 15
    28fa:	77 9b       	sbis	0x0e, 7	; 14
    28fc:	fe cf       	rjmp	.-4      	; 0x28fa <_ZN6Sh110617PrintDebugMessageEh+0x126e>
    28fe:	bf ef       	ldi	r27, 0xFF	; 255
    2900:	cb 1a       	sub	r12, r27
    2902:	db 0a       	sbc	r13, r27
    2904:	ec 14       	cp	r14, r12
    2906:	fd 04       	cpc	r15, r13
    2908:	a1 f7       	brne	.-24     	; 0x28f2 <_ZN6Sh110617PrintDebugMessageEh+0x1266>
    290a:	1f b8       	out	0x0f, r1	; 15
    290c:	77 9b       	sbis	0x0e, 7	; 14
    290e:	fe cf       	rjmp	.-4      	; 0x290c <_ZN6Sh110617PrintDebugMessageEh+0x1280>
    2910:	f8 01       	movw	r30, r16
    2912:	80 81       	ld	r24, Z
    2914:	91 81       	ldd	r25, Z+1	; 0x01
    2916:	dc 01       	movw	r26, r24
    2918:	ed 91       	ld	r30, X+
    291a:	fc 91       	ld	r31, X
    291c:	00 88       	ldd	r0, Z+16	; 0x10
    291e:	f1 89       	ldd	r31, Z+17	; 0x11
    2920:	e0 2d       	mov	r30, r0
    2922:	09 95       	icall
    2924:	60 b2       	in	r6, 0x10	; 16
    2926:	f8 01       	movw	r30, r16
    2928:	80 81       	ld	r24, Z
    292a:	91 81       	ldd	r25, Z+1	; 0x01
    292c:	dc 01       	movw	r26, r24
    292e:	ed 91       	ld	r30, X+
    2930:	fc 91       	ld	r31, X
    2932:	06 84       	ldd	r0, Z+14	; 0x0e
    2934:	f7 85       	ldd	r31, Z+15	; 0x0f
    2936:	e0 2d       	mov	r30, r0
    2938:	09 95       	icall
    293a:	6b ec       	ldi	r22, 0xCB	; 203
    293c:	c6 2e       	mov	r12, r22
    293e:	61 e0       	ldi	r22, 0x01	; 1
    2940:	d6 2e       	mov	r13, r22
    2942:	c6 01       	movw	r24, r12
    2944:	0e 94 25 1a 	call	0x344a	; 0x344a <eeprom_read_byte>
    2948:	8f b9       	out	0x0f, r24	; 15
    294a:	77 9b       	sbis	0x0e, 7	; 14
    294c:	fe cf       	rjmp	.-4      	; 0x294a <_ZN6Sh110617PrintDebugMessageEh+0x12be>
    294e:	bf ef       	ldi	r27, 0xFF	; 255
    2950:	cb 1a       	sub	r12, r27
    2952:	db 0a       	sbc	r13, r27
    2954:	ec 14       	cp	r14, r12
    2956:	fd 04       	cpc	r15, r13
    2958:	a1 f7       	brne	.-24     	; 0x2942 <_ZN6Sh110617PrintDebugMessageEh+0x12b6>
    295a:	1f b8       	out	0x0f, r1	; 15
    295c:	77 9b       	sbis	0x0e, 7	; 14
    295e:	fe cf       	rjmp	.-4      	; 0x295c <_ZN6Sh110617PrintDebugMessageEh+0x12d0>
    2960:	f8 01       	movw	r30, r16
    2962:	80 81       	ld	r24, Z
    2964:	91 81       	ldd	r25, Z+1	; 0x01
    2966:	dc 01       	movw	r26, r24
    2968:	ed 91       	ld	r30, X+
    296a:	fc 91       	ld	r31, X
    296c:	00 88       	ldd	r0, Z+16	; 0x10
    296e:	f1 89       	ldd	r31, Z+17	; 0x11
    2970:	e0 2d       	mov	r30, r0
    2972:	09 95       	icall
    2974:	71 2c       	mov	r7, r1
    2976:	81 2c       	mov	r8, r1
    2978:	91 2c       	mov	r9, r1
    297a:	f8 01       	movw	r30, r16
    297c:	80 81       	ld	r24, Z
    297e:	91 81       	ldd	r25, Z+1	; 0x01
    2980:	dc 01       	movw	r26, r24
    2982:	ed 91       	ld	r30, X+
    2984:	fc 91       	ld	r31, X
    2986:	06 84       	ldd	r0, Z+14	; 0x0e
    2988:	f7 85       	ldd	r31, Z+15	; 0x0f
    298a:	e0 2d       	mov	r30, r0
    298c:	09 95       	icall
    298e:	c3 01       	movw	r24, r6
    2990:	08 2c       	mov	r0, r8
    2992:	02 c0       	rjmp	.+4      	; 0x2998 <_ZN6Sh110617PrintDebugMessageEh+0x130c>
    2994:	95 95       	asr	r25
    2996:	87 95       	ror	r24
    2998:	0a 94       	dec	r0
    299a:	e2 f7       	brpl	.-8      	; 0x2994 <_ZN6Sh110617PrintDebugMessageEh+0x1308>
    299c:	83 70       	andi	r24, 0x03	; 3
    299e:	80 5d       	subi	r24, 0xD0	; 208
    29a0:	90 e0       	ldi	r25, 0x00	; 0
    29a2:	88 97       	sbiw	r24, 0x28	; 40
    29a4:	6c 01       	movw	r12, r24
    29a6:	cc 0c       	add	r12, r12
    29a8:	dd 1c       	adc	r13, r13
    29aa:	cc 0c       	add	r12, r12
    29ac:	dd 1c       	adc	r13, r13
    29ae:	8c 0d       	add	r24, r12
    29b0:	9d 1d       	adc	r25, r13
    29b2:	fc 01       	movw	r30, r24
    29b4:	e9 5d       	subi	r30, 0xD9	; 217
    29b6:	ff 4f       	sbci	r31, 0xFF	; 255
    29b8:	1f 01       	movw	r2, r30
    29ba:	9c 01       	movw	r18, r24
    29bc:	24 5d       	subi	r18, 0xD4	; 212
    29be:	3f 4f       	sbci	r19, 0xFF	; 255
    29c0:	69 01       	movw	r12, r18
    29c2:	c1 01       	movw	r24, r2
    29c4:	0e 94 25 1a 	call	0x344a	; 0x344a <eeprom_read_byte>
    29c8:	8f b9       	out	0x0f, r24	; 15
    29ca:	77 9b       	sbis	0x0e, 7	; 14
    29cc:	fe cf       	rjmp	.-4      	; 0x29ca <_ZN6Sh110617PrintDebugMessageEh+0x133e>
    29ce:	3f ef       	ldi	r19, 0xFF	; 255
    29d0:	23 1a       	sub	r2, r19
    29d2:	33 0a       	sbc	r3, r19
    29d4:	2c 14       	cp	r2, r12
    29d6:	3d 04       	cpc	r3, r13
    29d8:	a1 f7       	brne	.-24     	; 0x29c2 <_ZN6Sh110617PrintDebugMessageEh+0x1336>
    29da:	1f b8       	out	0x0f, r1	; 15
    29dc:	77 9b       	sbis	0x0e, 7	; 14
    29de:	fe cf       	rjmp	.-4      	; 0x29dc <_ZN6Sh110617PrintDebugMessageEh+0x1350>
    29e0:	d8 01       	movw	r26, r16
    29e2:	8d 91       	ld	r24, X+
    29e4:	9c 91       	ld	r25, X
    29e6:	dc 01       	movw	r26, r24
    29e8:	ed 91       	ld	r30, X+
    29ea:	fc 91       	ld	r31, X
    29ec:	00 88       	ldd	r0, Z+16	; 0x10
    29ee:	f1 89       	ldd	r31, Z+17	; 0x11
    29f0:	e0 2d       	mov	r30, r0
    29f2:	09 95       	icall
    29f4:	b2 e0       	ldi	r27, 0x02	; 2
    29f6:	8b 0e       	add	r8, r27
    29f8:	91 1c       	adc	r9, r1
    29fa:	e8 e0       	ldi	r30, 0x08	; 8
    29fc:	8e 16       	cp	r8, r30
    29fe:	91 04       	cpc	r9, r1
    2a00:	09 f0       	breq	.+2      	; 0x2a04 <_ZN6Sh110617PrintDebugMessageEh+0x1378>
    2a02:	bb cf       	rjmp	.-138    	; 0x297a <_ZN6Sh110617PrintDebugMessageEh+0x12ee>
    2a04:	d8 01       	movw	r26, r16
    2a06:	8d 91       	ld	r24, X+
    2a08:	9c 91       	ld	r25, X
    2a0a:	dc 01       	movw	r26, r24
    2a0c:	ed 91       	ld	r30, X+
    2a0e:	fc 91       	ld	r31, X
    2a10:	06 84       	ldd	r0, Z+14	; 0x0e
    2a12:	f7 85       	ldd	r31, Z+15	; 0x0f
    2a14:	e0 2d       	mov	r30, r0
    2a16:	09 95       	icall
    2a18:	4b ec       	ldi	r20, 0xCB	; 203
    2a1a:	c4 2e       	mov	r12, r20
    2a1c:	41 e0       	ldi	r20, 0x01	; 1
    2a1e:	d4 2e       	mov	r13, r20
    2a20:	c6 01       	movw	r24, r12
    2a22:	0e 94 25 1a 	call	0x344a	; 0x344a <eeprom_read_byte>
    2a26:	8f b9       	out	0x0f, r24	; 15
    2a28:	77 9b       	sbis	0x0e, 7	; 14
    2a2a:	fe cf       	rjmp	.-4      	; 0x2a28 <_ZN6Sh110617PrintDebugMessageEh+0x139c>
    2a2c:	bf ef       	ldi	r27, 0xFF	; 255
    2a2e:	cb 1a       	sub	r12, r27
    2a30:	db 0a       	sbc	r13, r27
    2a32:	ec 14       	cp	r14, r12
    2a34:	fd 04       	cpc	r15, r13
    2a36:	a1 f7       	brne	.-24     	; 0x2a20 <_ZN6Sh110617PrintDebugMessageEh+0x1394>
    2a38:	1f b8       	out	0x0f, r1	; 15
    2a3a:	77 9b       	sbis	0x0e, 7	; 14
    2a3c:	fe cf       	rjmp	.-4      	; 0x2a3a <_ZN6Sh110617PrintDebugMessageEh+0x13ae>
    2a3e:	f8 01       	movw	r30, r16
    2a40:	80 81       	ld	r24, Z
    2a42:	91 81       	ldd	r25, Z+1	; 0x01
    2a44:	dc 01       	movw	r26, r24
    2a46:	ed 91       	ld	r30, X+
    2a48:	fc 91       	ld	r31, X
    2a4a:	00 88       	ldd	r0, Z+16	; 0x10
    2a4c:	f1 89       	ldd	r31, Z+17	; 0x11
    2a4e:	e0 2d       	mov	r30, r0
    2a50:	09 95       	icall
    2a52:	f8 01       	movw	r30, r16
    2a54:	80 81       	ld	r24, Z
    2a56:	91 81       	ldd	r25, Z+1	; 0x01
    2a58:	dc 01       	movw	r26, r24
    2a5a:	ed 91       	ld	r30, X+
    2a5c:	fc 91       	ld	r31, X
    2a5e:	00 88       	ldd	r0, Z+16	; 0x10
    2a60:	f1 89       	ldd	r31, Z+17	; 0x11
    2a62:	e0 2d       	mov	r30, r0
    2a64:	09 95       	icall
    2a66:	f8 01       	movw	r30, r16
    2a68:	86 8d       	ldd	r24, Z+30	; 0x1e
    2a6a:	8f b9       	out	0x0f, r24	; 15
    2a6c:	77 9b       	sbis	0x0e, 7	; 14
    2a6e:	fe cf       	rjmp	.-4      	; 0x2a6c <_ZN6Sh110617PrintDebugMessageEh+0x13e0>
    2a70:	85 eb       	ldi	r24, 0xB5	; 181
    2a72:	8f b9       	out	0x0f, r24	; 15
    2a74:	77 9b       	sbis	0x0e, 7	; 14
    2a76:	fe cf       	rjmp	.-4      	; 0x2a74 <_ZN6Sh110617PrintDebugMessageEh+0x13e8>
    2a78:	d8 01       	movw	r26, r16
    2a7a:	5f 96       	adiw	r26, 0x1f	; 31
    2a7c:	8c 91       	ld	r24, X
    2a7e:	8f b9       	out	0x0f, r24	; 15
    2a80:	77 9b       	sbis	0x0e, 7	; 14
    2a82:	fe cf       	rjmp	.-4      	; 0x2a80 <_ZN6Sh110617PrintDebugMessageEh+0x13f4>
    2a84:	f8 01       	movw	r30, r16
    2a86:	80 81       	ld	r24, Z
    2a88:	91 81       	ldd	r25, Z+1	; 0x01
    2a8a:	dc 01       	movw	r26, r24
    2a8c:	ed 91       	ld	r30, X+
    2a8e:	fc 91       	ld	r31, X
    2a90:	06 84       	ldd	r0, Z+14	; 0x0e
    2a92:	f7 85       	ldd	r31, Z+15	; 0x0f
    2a94:	e0 2d       	mov	r30, r0
    2a96:	09 95       	icall
    2a98:	1f b8       	out	0x0f, r1	; 15
    2a9a:	77 9b       	sbis	0x0e, 7	; 14
    2a9c:	fe cf       	rjmp	.-4      	; 0x2a9a <_ZN6Sh110617PrintDebugMessageEh+0x140e>
    2a9e:	f8 01       	movw	r30, r16
    2aa0:	80 81       	ld	r24, Z
    2aa2:	91 81       	ldd	r25, Z+1	; 0x01
    2aa4:	dc 01       	movw	r26, r24
    2aa6:	ed 91       	ld	r30, X+
    2aa8:	fc 91       	ld	r31, X
    2aaa:	06 84       	ldd	r0, Z+14	; 0x0e
    2aac:	f7 85       	ldd	r31, Z+15	; 0x0f
    2aae:	e0 2d       	mov	r30, r0
    2ab0:	09 95       	icall
    2ab2:	3b ec       	ldi	r19, 0xCB	; 203
    2ab4:	c3 2e       	mov	r12, r19
    2ab6:	31 e0       	ldi	r19, 0x01	; 1
    2ab8:	d3 2e       	mov	r13, r19
    2aba:	c6 01       	movw	r24, r12
    2abc:	0e 94 25 1a 	call	0x344a	; 0x344a <eeprom_read_byte>
    2ac0:	8f b9       	out	0x0f, r24	; 15
    2ac2:	77 9b       	sbis	0x0e, 7	; 14
    2ac4:	fe cf       	rjmp	.-4      	; 0x2ac2 <_ZN6Sh110617PrintDebugMessageEh+0x1436>
    2ac6:	bf ef       	ldi	r27, 0xFF	; 255
    2ac8:	cb 1a       	sub	r12, r27
    2aca:	db 0a       	sbc	r13, r27
    2acc:	ec 14       	cp	r14, r12
    2ace:	fd 04       	cpc	r15, r13
    2ad0:	a1 f7       	brne	.-24     	; 0x2aba <_ZN6Sh110617PrintDebugMessageEh+0x142e>
    2ad2:	1f b8       	out	0x0f, r1	; 15
    2ad4:	77 9b       	sbis	0x0e, 7	; 14
    2ad6:	fe cf       	rjmp	.-4      	; 0x2ad4 <_ZN6Sh110617PrintDebugMessageEh+0x1448>
    2ad8:	f8 01       	movw	r30, r16
    2ada:	80 81       	ld	r24, Z
    2adc:	91 81       	ldd	r25, Z+1	; 0x01
    2ade:	dc 01       	movw	r26, r24
    2ae0:	ed 91       	ld	r30, X+
    2ae2:	fc 91       	ld	r31, X
    2ae4:	00 88       	ldd	r0, Z+16	; 0x10
    2ae6:	f1 89       	ldd	r31, Z+17	; 0x11
    2ae8:	e0 2d       	mov	r30, r0
    2aea:	09 95       	icall
    2aec:	65 2c       	mov	r6, r5
    2aee:	71 2c       	mov	r7, r1
    2af0:	81 2c       	mov	r8, r1
    2af2:	91 2c       	mov	r9, r1
    2af4:	f8 01       	movw	r30, r16
    2af6:	80 81       	ld	r24, Z
    2af8:	91 81       	ldd	r25, Z+1	; 0x01
    2afa:	dc 01       	movw	r26, r24
    2afc:	ed 91       	ld	r30, X+
    2afe:	fc 91       	ld	r31, X
    2b00:	06 84       	ldd	r0, Z+14	; 0x0e
    2b02:	f7 85       	ldd	r31, Z+15	; 0x0f
    2b04:	e0 2d       	mov	r30, r0
    2b06:	09 95       	icall
    2b08:	c3 01       	movw	r24, r6
    2b0a:	08 2c       	mov	r0, r8
    2b0c:	02 c0       	rjmp	.+4      	; 0x2b12 <_ZN6Sh110617PrintDebugMessageEh+0x1486>
    2b0e:	95 95       	asr	r25
    2b10:	87 95       	ror	r24
    2b12:	0a 94       	dec	r0
    2b14:	e2 f7       	brpl	.-8      	; 0x2b0e <_ZN6Sh110617PrintDebugMessageEh+0x1482>
    2b16:	83 70       	andi	r24, 0x03	; 3
    2b18:	80 5d       	subi	r24, 0xD0	; 208
    2b1a:	90 e0       	ldi	r25, 0x00	; 0
    2b1c:	88 97       	sbiw	r24, 0x28	; 40
    2b1e:	6c 01       	movw	r12, r24
    2b20:	cc 0c       	add	r12, r12
    2b22:	dd 1c       	adc	r13, r13
    2b24:	cc 0c       	add	r12, r12
    2b26:	dd 1c       	adc	r13, r13
    2b28:	8c 0d       	add	r24, r12
    2b2a:	9d 1d       	adc	r25, r13
    2b2c:	fc 01       	movw	r30, r24
    2b2e:	e9 5d       	subi	r30, 0xD9	; 217
    2b30:	ff 4f       	sbci	r31, 0xFF	; 255
    2b32:	2f 01       	movw	r4, r30
    2b34:	9c 01       	movw	r18, r24
    2b36:	24 5d       	subi	r18, 0xD4	; 212
    2b38:	3f 4f       	sbci	r19, 0xFF	; 255
    2b3a:	69 01       	movw	r12, r18
    2b3c:	c2 01       	movw	r24, r4
    2b3e:	0e 94 25 1a 	call	0x344a	; 0x344a <eeprom_read_byte>
    2b42:	8f b9       	out	0x0f, r24	; 15
    2b44:	77 9b       	sbis	0x0e, 7	; 14
    2b46:	fe cf       	rjmp	.-4      	; 0x2b44 <_ZN6Sh110617PrintDebugMessageEh+0x14b8>
    2b48:	3f ef       	ldi	r19, 0xFF	; 255
    2b4a:	43 1a       	sub	r4, r19
    2b4c:	53 0a       	sbc	r5, r19
    2b4e:	4c 14       	cp	r4, r12
    2b50:	5d 04       	cpc	r5, r13
    2b52:	a1 f7       	brne	.-24     	; 0x2b3c <_ZN6Sh110617PrintDebugMessageEh+0x14b0>
    2b54:	1f b8       	out	0x0f, r1	; 15
    2b56:	77 9b       	sbis	0x0e, 7	; 14
    2b58:	fe cf       	rjmp	.-4      	; 0x2b56 <_ZN6Sh110617PrintDebugMessageEh+0x14ca>
    2b5a:	d8 01       	movw	r26, r16
    2b5c:	8d 91       	ld	r24, X+
    2b5e:	9c 91       	ld	r25, X
    2b60:	dc 01       	movw	r26, r24
    2b62:	ed 91       	ld	r30, X+
    2b64:	fc 91       	ld	r31, X
    2b66:	00 88       	ldd	r0, Z+16	; 0x10
    2b68:	f1 89       	ldd	r31, Z+17	; 0x11
    2b6a:	e0 2d       	mov	r30, r0
    2b6c:	09 95       	icall
    2b6e:	b2 e0       	ldi	r27, 0x02	; 2
    2b70:	8b 0e       	add	r8, r27
    2b72:	91 1c       	adc	r9, r1
    2b74:	e8 e0       	ldi	r30, 0x08	; 8
    2b76:	8e 16       	cp	r8, r30
    2b78:	91 04       	cpc	r9, r1
    2b7a:	09 f0       	breq	.+2      	; 0x2b7e <_ZN6Sh110617PrintDebugMessageEh+0x14f2>
    2b7c:	bb cf       	rjmp	.-138    	; 0x2af4 <_ZN6Sh110617PrintDebugMessageEh+0x1468>
    2b7e:	d8 01       	movw	r26, r16
    2b80:	8d 91       	ld	r24, X+
    2b82:	9c 91       	ld	r25, X
    2b84:	dc 01       	movw	r26, r24
    2b86:	ed 91       	ld	r30, X+
    2b88:	fc 91       	ld	r31, X
    2b8a:	06 84       	ldd	r0, Z+14	; 0x0e
    2b8c:	f7 85       	ldd	r31, Z+15	; 0x0f
    2b8e:	e0 2d       	mov	r30, r0
    2b90:	09 95       	icall
    2b92:	c5 01       	movw	r24, r10
    2b94:	0e 94 25 1a 	call	0x344a	; 0x344a <eeprom_read_byte>
    2b98:	8f b9       	out	0x0f, r24	; 15
    2b9a:	77 9b       	sbis	0x0e, 7	; 14
    2b9c:	fe cf       	rjmp	.-4      	; 0x2b9a <_ZN6Sh110617PrintDebugMessageEh+0x150e>
    2b9e:	bf ef       	ldi	r27, 0xFF	; 255
    2ba0:	ab 1a       	sub	r10, r27
    2ba2:	bb 0a       	sbc	r11, r27
    2ba4:	ea 14       	cp	r14, r10
    2ba6:	fb 04       	cpc	r15, r11
    2ba8:	a1 f7       	brne	.-24     	; 0x2b92 <_ZN6Sh110617PrintDebugMessageEh+0x1506>
    2baa:	1f b8       	out	0x0f, r1	; 15
    2bac:	77 9b       	sbis	0x0e, 7	; 14
    2bae:	fe cf       	rjmp	.-4      	; 0x2bac <_ZN6Sh110617PrintDebugMessageEh+0x1520>
    2bb0:	f8 01       	movw	r30, r16
    2bb2:	80 81       	ld	r24, Z
    2bb4:	91 81       	ldd	r25, Z+1	; 0x01
    2bb6:	dc 01       	movw	r26, r24
    2bb8:	ed 91       	ld	r30, X+
    2bba:	fc 91       	ld	r31, X
    2bbc:	00 88       	ldd	r0, Z+16	; 0x10
    2bbe:	f1 89       	ldd	r31, Z+17	; 0x11
    2bc0:	e0 2d       	mov	r30, r0
    2bc2:	09 95       	icall
    2bc4:	6c 96       	adiw	r28, 0x1c	; 28
    2bc6:	0f b6       	in	r0, 0x3f	; 63
    2bc8:	f8 94       	cli
    2bca:	de bf       	out	0x3e, r29	; 62
    2bcc:	0f be       	out	0x3f, r0	; 63
    2bce:	cd bf       	out	0x3d, r28	; 61
    2bd0:	df 91       	pop	r29
    2bd2:	cf 91       	pop	r28
    2bd4:	1f 91       	pop	r17
    2bd6:	0f 91       	pop	r16
    2bd8:	ff 90       	pop	r15
    2bda:	ef 90       	pop	r14
    2bdc:	df 90       	pop	r13
    2bde:	cf 90       	pop	r12
    2be0:	bf 90       	pop	r11
    2be2:	af 90       	pop	r10
    2be4:	9f 90       	pop	r9
    2be6:	8f 90       	pop	r8
    2be8:	7f 90       	pop	r7
    2bea:	6f 90       	pop	r6
    2bec:	5f 90       	pop	r5
    2bee:	4f 90       	pop	r4
    2bf0:	3f 90       	pop	r3
    2bf2:	2f 90       	pop	r2
    2bf4:	08 95       	ret
    2bf6:	1f b8       	out	0x0f, r1	; 15
    2bf8:	77 9b       	sbis	0x0e, 7	; 14
    2bfa:	fe cf       	rjmp	.-4      	; 0x2bf8 <_ZN6Sh110617PrintDebugMessageEh+0x156c>
    2bfc:	8f ef       	ldi	r24, 0xFF	; 255
    2bfe:	68 1a       	sub	r6, r24
    2c00:	78 0a       	sbc	r7, r24
    2c02:	6c 14       	cp	r6, r12
    2c04:	7d 04       	cpc	r7, r13
    2c06:	09 f0       	breq	.+2      	; 0x2c0a <_ZN6Sh110617PrintDebugMessageEh+0x157e>
    2c08:	33 cd       	rjmp	.-1434   	; 0x2670 <_ZN6Sh110617PrintDebugMessageEh+0xfe4>
    2c0a:	42 cd       	rjmp	.-1404   	; 0x2690 <_ZN6Sh110617PrintDebugMessageEh+0x1004>
    2c0c:	1f b8       	out	0x0f, r1	; 15
    2c0e:	77 9b       	sbis	0x0e, 7	; 14
    2c10:	fe cf       	rjmp	.-4      	; 0x2c0e <_ZN6Sh110617PrintDebugMessageEh+0x1582>
    2c12:	8f ef       	ldi	r24, 0xFF	; 255
    2c14:	68 1a       	sub	r6, r24
    2c16:	78 0a       	sbc	r7, r24
    2c18:	6c 14       	cp	r6, r12
    2c1a:	7d 04       	cpc	r7, r13
    2c1c:	09 f0       	breq	.+2      	; 0x2c20 <_ZN6Sh110617PrintDebugMessageEh+0x1594>
    2c1e:	d9 ca       	rjmp	.-2638   	; 0x21d2 <_ZN6Sh110617PrintDebugMessageEh+0xb46>
    2c20:	e8 ca       	rjmp	.-2608   	; 0x21f2 <_ZN6Sh110617PrintDebugMessageEh+0xb66>
    2c22:	1f b8       	out	0x0f, r1	; 15
    2c24:	77 9b       	sbis	0x0e, 7	; 14
    2c26:	fe cf       	rjmp	.-4      	; 0x2c24 <_ZN6Sh110617PrintDebugMessageEh+0x1598>
    2c28:	8f ef       	ldi	r24, 0xFF	; 255
    2c2a:	68 1a       	sub	r6, r24
    2c2c:	78 0a       	sbc	r7, r24
    2c2e:	6c 14       	cp	r6, r12
    2c30:	7d 04       	cpc	r7, r13
    2c32:	09 f0       	breq	.+2      	; 0x2c36 <_ZN6Sh110617PrintDebugMessageEh+0x15aa>
    2c34:	81 c8       	rjmp	.-3838   	; 0x1d38 <_ZN6Sh110617PrintDebugMessageEh+0x6ac>
    2c36:	90 c8       	rjmp	.-3808   	; 0x1d58 <_ZN6Sh110617PrintDebugMessageEh+0x6cc>
    2c38:	1f b8       	out	0x0f, r1	; 15
    2c3a:	77 9b       	sbis	0x0e, 7	; 14
    2c3c:	fe cf       	rjmp	.-4      	; 0x2c3a <_ZN6Sh110617PrintDebugMessageEh+0x15ae>
    2c3e:	8f ef       	ldi	r24, 0xFF	; 255
    2c40:	e8 1a       	sub	r14, r24
    2c42:	f8 0a       	sbc	r15, r24
    2c44:	ec 14       	cp	r14, r12
    2c46:	fd 04       	cpc	r15, r13
    2c48:	11 f0       	breq	.+4      	; 0x2c4e <_ZN6Sh110617PrintDebugMessageEh+0x15c2>
    2c4a:	0c 94 be 0b 	jmp	0x177c	; 0x177c <_ZN6Sh110617PrintDebugMessageEh+0xf0>
    2c4e:	0c 94 cf 0b 	jmp	0x179e	; 0x179e <_ZN6Sh110617PrintDebugMessageEh+0x112>
    2c52:	1f b8       	out	0x0f, r1	; 15
    2c54:	77 9b       	sbis	0x0e, 7	; 14
    2c56:	fe cf       	rjmp	.-4      	; 0x2c54 <_ZN6Sh110617PrintDebugMessageEh+0x15c8>
    2c58:	8f ef       	ldi	r24, 0xFF	; 255
    2c5a:	e8 1a       	sub	r14, r24
    2c5c:	f8 0a       	sbc	r15, r24
    2c5e:	ec 14       	cp	r14, r12
    2c60:	fd 04       	cpc	r15, r13
    2c62:	11 f0       	breq	.+4      	; 0x2c68 <_ZN6Sh110617PrintDebugMessageEh+0x15dc>
    2c64:	0c 94 47 0c 	jmp	0x188e	; 0x188e <_ZN6Sh110617PrintDebugMessageEh+0x202>
    2c68:	0c 94 58 0c 	jmp	0x18b0	; 0x18b0 <_ZN6Sh110617PrintDebugMessageEh+0x224>

00002c6c <main>:
    2c6c:	0e 94 b3 03 	call	0x766	; 0x766 <_Z17InitializeProgramv>
    2c70:	cf ef       	ldi	r28, 0xFF	; 255
    2c72:	80 91 8b 02 	lds	r24, 0x028B	; 0x80028b <AS5048AChip+0x8>
    2c76:	90 91 8c 02 	lds	r25, 0x028C	; 0x80028c <AS5048AChip+0x9>
    2c7a:	dc 01       	movw	r26, r24
    2c7c:	ed 91       	ld	r30, X+
    2c7e:	fc 91       	ld	r31, X
    2c80:	00 88       	ldd	r0, Z+16	; 0x10
    2c82:	f1 89       	ldd	r31, Z+17	; 0x11
    2c84:	e0 2d       	mov	r30, r0
    2c86:	09 95       	icall
    2c88:	80 91 85 02 	lds	r24, 0x0285	; 0x800285 <AS5048AChip+0x2>
    2c8c:	80 93 86 02 	sts	0x0286, r24	; 0x800286 <AS5048AChip+0x3>
    2c90:	cf b9       	out	0x0f, r28	; 15
    2c92:	77 9b       	sbis	0x0e, 7	; 14
    2c94:	fe cf       	rjmp	.-4      	; 0x2c92 <main+0x26>
    2c96:	8f b1       	in	r24, 0x0f	; 15
    2c98:	90 e0       	ldi	r25, 0x00	; 0
    2c9a:	88 0f       	add	r24, r24
    2c9c:	99 1f       	adc	r25, r25
    2c9e:	88 0f       	add	r24, r24
    2ca0:	99 1f       	adc	r25, r25
    2ca2:	88 0f       	add	r24, r24
    2ca4:	99 1f       	adc	r25, r25
    2ca6:	80 93 85 02 	sts	0x0285, r24	; 0x800285 <AS5048AChip+0x2>
    2caa:	cf b9       	out	0x0f, r28	; 15
    2cac:	77 9b       	sbis	0x0e, 7	; 14
    2cae:	fe cf       	rjmp	.-4      	; 0x2cac <main+0x40>
    2cb0:	8f b1       	in	r24, 0x0f	; 15
    2cb2:	90 e0       	ldi	r25, 0x00	; 0
    2cb4:	95 95       	asr	r25
    2cb6:	87 95       	ror	r24
    2cb8:	95 95       	asr	r25
    2cba:	87 95       	ror	r24
    2cbc:	95 95       	asr	r25
    2cbe:	87 95       	ror	r24
    2cc0:	95 95       	asr	r25
    2cc2:	87 95       	ror	r24
    2cc4:	95 95       	asr	r25
    2cc6:	87 95       	ror	r24
    2cc8:	20 91 85 02 	lds	r18, 0x0285	; 0x800285 <AS5048AChip+0x2>
    2ccc:	82 2b       	or	r24, r18
    2cce:	80 93 85 02 	sts	0x0285, r24	; 0x800285 <AS5048AChip+0x2>
    2cd2:	80 91 8b 02 	lds	r24, 0x028B	; 0x80028b <AS5048AChip+0x8>
    2cd6:	90 91 8c 02 	lds	r25, 0x028C	; 0x80028c <AS5048AChip+0x9>
    2cda:	dc 01       	movw	r26, r24
    2cdc:	ed 91       	ld	r30, X+
    2cde:	fc 91       	ld	r31, X
    2ce0:	06 84       	ldd	r0, Z+14	; 0x0e
    2ce2:	f7 85       	ldd	r31, Z+15	; 0x0f
    2ce4:	e0 2d       	mov	r30, r0
    2ce6:	09 95       	icall
    2ce8:	90 91 86 02 	lds	r25, 0x0286	; 0x800286 <AS5048AChip+0x3>
    2cec:	80 91 85 02 	lds	r24, 0x0285	; 0x800285 <AS5048AChip+0x2>
    2cf0:	20 91 87 02 	lds	r18, 0x0287	; 0x800287 <AS5048AChip+0x4>
    2cf4:	91 3c       	cpi	r25, 0xC1	; 193
    2cf6:	40 f1       	brcs	.+80     	; 0x2d48 <main+0xdc>
    2cf8:	8f 33       	cpi	r24, 0x3F	; 63
    2cfa:	30 f5       	brcc	.+76     	; 0x2d48 <main+0xdc>
    2cfc:	2f 5f       	subi	r18, 0xFF	; 255
    2cfe:	20 93 87 02 	sts	0x0287, r18	; 0x800287 <AS5048AChip+0x4>
    2d02:	90 e0       	ldi	r25, 0x00	; 0
    2d04:	92 2b       	or	r25, r18
    2d06:	20 91 88 02 	lds	r18, 0x0288	; 0x800288 <AS5048AChip+0x5>
    2d0a:	82 1b       	sub	r24, r18
    2d0c:	91 09       	sbc	r25, r1
    2d0e:	90 93 84 02 	sts	0x0284, r25	; 0x800284 <AS5048AChip+0x1>
    2d12:	80 93 83 02 	sts	0x0283, r24	; 0x800283 <AS5048AChip>
    2d16:	80 91 99 02 	lds	r24, 0x0299	; 0x800299 <debugDisplay+0x6>
    2d1a:	90 91 9a 02 	lds	r25, 0x029A	; 0x80029a <debugDisplay+0x7>
    2d1e:	dc 01       	movw	r26, r24
    2d20:	ed 91       	ld	r30, X+
    2d22:	fc 91       	ld	r31, X
    2d24:	00 88       	ldd	r0, Z+16	; 0x10
    2d26:	f1 89       	ldd	r31, Z+17	; 0x11
    2d28:	e0 2d       	mov	r30, r0
    2d2a:	09 95       	icall
    2d2c:	0e 94 00 07 	call	0xe00	; 0xe00 <_Z5Debugv>
    2d30:	80 91 99 02 	lds	r24, 0x0299	; 0x800299 <debugDisplay+0x6>
    2d34:	90 91 9a 02 	lds	r25, 0x029A	; 0x80029a <debugDisplay+0x7>
    2d38:	dc 01       	movw	r26, r24
    2d3a:	ed 91       	ld	r30, X+
    2d3c:	fc 91       	ld	r31, X
    2d3e:	06 84       	ldd	r0, Z+14	; 0x0e
    2d40:	f7 85       	ldd	r31, Z+15	; 0x0f
    2d42:	e0 2d       	mov	r30, r0
    2d44:	09 95       	icall
    2d46:	95 cf       	rjmp	.-214    	; 0x2c72 <main+0x6>
    2d48:	81 3c       	cpi	r24, 0xC1	; 193
    2d4a:	d8 f2       	brcs	.-74     	; 0x2d02 <main+0x96>
    2d4c:	9f 33       	cpi	r25, 0x3F	; 63
    2d4e:	c8 f6       	brcc	.-78     	; 0x2d02 <main+0x96>
    2d50:	21 50       	subi	r18, 0x01	; 1
    2d52:	20 93 87 02 	sts	0x0287, r18	; 0x800287 <AS5048AChip+0x4>
    2d56:	d5 cf       	rjmp	.-86     	; 0x2d02 <main+0x96>

00002d58 <_GLOBAL__sub_I__Znwj>:
    2d58:	e6 ec       	ldi	r30, 0xC6	; 198
    2d5a:	f2 e0       	ldi	r31, 0x02	; 2
    2d5c:	10 8a       	std	Z+16, r1	; 0x10
    2d5e:	20 e1       	ldi	r18, 0x10	; 16
    2d60:	df 01       	movw	r26, r30
    2d62:	82 2f       	mov	r24, r18
    2d64:	1d 92       	st	X+, r1
    2d66:	8a 95       	dec	r24
    2d68:	e9 f7       	brne	.-6      	; 0x2d64 <_GLOBAL__sub_I__Znwj+0xc>
    2d6a:	e3 e9       	ldi	r30, 0x93	; 147
    2d6c:	f2 e0       	ldi	r31, 0x02	; 2
    2d6e:	80 e8       	ldi	r24, 0x80	; 128
    2d70:	86 87       	std	Z+14, r24	; 0x0e
    2d72:	90 eb       	ldi	r25, 0xB0	; 176
    2d74:	97 87       	std	Z+15, r25	; 0x0f
    2d76:	80 ef       	ldi	r24, 0xF0	; 240
    2d78:	80 8b       	std	Z+16, r24	; 0x10
    2d7a:	81 e8       	ldi	r24, 0x81	; 129
    2d7c:	81 8b       	std	Z+17, r24	; 0x11
    2d7e:	84 ea       	ldi	r24, 0xA4	; 164
    2d80:	82 8b       	std	Z+18, r24	; 0x12
    2d82:	85 ea       	ldi	r24, 0xA5	; 165
    2d84:	83 8b       	std	Z+19, r24	; 0x13
    2d86:	86 ea       	ldi	r24, 0xA6	; 166
    2d88:	84 8b       	std	Z+20, r24	; 0x14
    2d8a:	87 ea       	ldi	r24, 0xA7	; 167
    2d8c:	85 8b       	std	Z+21, r24	; 0x15
    2d8e:	8e ea       	ldi	r24, 0xAE	; 174
    2d90:	86 8b       	std	Z+22, r24	; 0x16
    2d92:	8f ea       	ldi	r24, 0xAF	; 175
    2d94:	87 8b       	std	Z+23, r24	; 0x17
    2d96:	83 ed       	ldi	r24, 0xD3	; 211
    2d98:	80 8f       	std	Z+24, r24	; 0x18
    2d9a:	8a ed       	ldi	r24, 0xDA	; 218
    2d9c:	81 8f       	std	Z+25, r24	; 0x19
    2d9e:	8b ed       	ldi	r24, 0xDB	; 219
    2da0:	82 8f       	std	Z+26, r24	; 0x1a
    2da2:	85 ed       	ldi	r24, 0xD5	; 213
    2da4:	83 8f       	std	Z+27, r24	; 0x1b
    2da6:	89 ed       	ldi	r24, 0xD9	; 217
    2da8:	84 8f       	std	Z+28, r24	; 0x1c
    2daa:	88 ea       	ldi	r24, 0xA8	; 168
    2dac:	85 8f       	std	Z+29, r24	; 0x1d
    2dae:	82 e0       	ldi	r24, 0x02	; 2
    2db0:	86 8f       	std	Z+30, r24	; 0x1e
    2db2:	27 8f       	std	Z+31, r18	; 0x1f
    2db4:	20 e4       	ldi	r18, 0x40	; 64
    2db6:	20 a3       	std	Z+32, r18	; 0x20
    2db8:	20 e2       	ldi	r18, 0x20	; 32
    2dba:	21 a3       	std	Z+33, r18	; 0x21
    2dbc:	21 e2       	ldi	r18, 0x21	; 33
    2dbe:	22 a3       	std	Z+34, r18	; 0x22
    2dc0:	93 a3       	std	Z+35, r25	; 0x23
    2dc2:	90 ec       	ldi	r25, 0xC0	; 192
    2dc4:	94 a3       	std	Z+36, r25	; 0x24
    2dc6:	98 ec       	ldi	r25, 0xC8	; 200
    2dc8:	95 a3       	std	Z+37, r25	; 0x25
    2dca:	90 ea       	ldi	r25, 0xA0	; 160
    2dcc:	96 a3       	std	Z+38, r25	; 0x26
    2dce:	9d ea       	ldi	r25, 0xAD	; 173
    2dd0:	97 a3       	std	Z+39, r25	; 0x27
    2dd2:	9b e8       	ldi	r25, 0x8B	; 139
    2dd4:	90 a7       	std	Z+40, r25	; 0x28
    2dd6:	81 a7       	std	Z+41, r24	; 0x29
    2dd8:	8f e2       	ldi	r24, 0x2F	; 47
    2dda:	82 a7       	std	Z+42, r24	; 0x2a
    2ddc:	8e e2       	ldi	r24, 0x2E	; 46
    2dde:	83 a7       	std	Z+43, r24	; 0x2b
    2de0:	83 ea       	ldi	r24, 0xA3	; 163
    2de2:	84 a7       	std	Z+44, r24	; 0x2c
    2de4:	86 e2       	ldi	r24, 0x26	; 38
    2de6:	85 a7       	std	Z+45, r24	; 0x2d
    2de8:	87 e2       	ldi	r24, 0x27	; 39
    2dea:	86 a7       	std	Z+46, r24	; 0x2e
    2dec:	89 e2       	ldi	r24, 0x29	; 41
    2dee:	87 a7       	std	Z+47, r24	; 0x2f
    2df0:	8a e2       	ldi	r24, 0x2A	; 42
    2df2:	80 ab       	std	Z+48, r24	; 0x30
    2df4:	84 e7       	ldi	r24, 0x74	; 116
    2df6:	90 e0       	ldi	r25, 0x00	; 0
    2df8:	91 83       	std	Z+1, r25	; 0x01
    2dfa:	80 83       	st	Z, r24
    2dfc:	86 e7       	ldi	r24, 0x76	; 118
    2dfe:	90 e0       	ldi	r25, 0x00	; 0
    2e00:	93 83       	std	Z+3, r25	; 0x03
    2e02:	82 83       	std	Z+2, r24	; 0x02
    2e04:	6a e6       	ldi	r22, 0x6A	; 106
    2e06:	70 e0       	ldi	r23, 0x00	; 0
    2e08:	73 87       	std	Z+11, r23	; 0x0b
    2e0a:	62 87       	std	Z+10, r22	; 0x0a
    2e0c:	4c e6       	ldi	r20, 0x6C	; 108
    2e0e:	50 e0       	ldi	r21, 0x00	; 0
    2e10:	55 83       	std	Z+5, r21	; 0x05
    2e12:	44 83       	std	Z+4, r20	; 0x04
    2e14:	82 e7       	ldi	r24, 0x72	; 114
    2e16:	90 e0       	ldi	r25, 0x00	; 0
    2e18:	97 83       	std	Z+7, r25	; 0x07
    2e1a:	86 83       	std	Z+6, r24	; 0x06
    2e1c:	2e e6       	ldi	r18, 0x6E	; 110
    2e1e:	30 e0       	ldi	r19, 0x00	; 0
    2e20:	35 87       	std	Z+13, r19	; 0x0d
    2e22:	24 87       	std	Z+12, r18	; 0x0c
    2e24:	88 e6       	ldi	r24, 0x68	; 104
    2e26:	90 e0       	ldi	r25, 0x00	; 0
    2e28:	91 87       	std	Z+9, r25	; 0x09
    2e2a:	80 87       	std	Z+8, r24	; 0x08
    2e2c:	e3 e8       	ldi	r30, 0x83	; 131
    2e2e:	f2 e0       	ldi	r31, 0x02	; 2
    2e30:	11 82       	std	Z+1, r1	; 0x01
    2e32:	10 82       	st	Z, r1
    2e34:	12 82       	std	Z+2, r1	; 0x02
    2e36:	13 82       	std	Z+3, r1	; 0x03
    2e38:	14 82       	std	Z+4, r1	; 0x04
    2e3a:	15 82       	std	Z+5, r1	; 0x05
    2e3c:	75 87       	std	Z+13, r23	; 0x0d
    2e3e:	64 87       	std	Z+12, r22	; 0x0c
    2e40:	57 83       	std	Z+7, r21	; 0x07
    2e42:	46 83       	std	Z+6, r20	; 0x06
    2e44:	40 e7       	ldi	r20, 0x70	; 112
    2e46:	50 e0       	ldi	r21, 0x00	; 0
    2e48:	51 87       	std	Z+9, r21	; 0x09
    2e4a:	40 87       	std	Z+8, r20	; 0x08
    2e4c:	37 87       	std	Z+15, r19	; 0x0f
    2e4e:	26 87       	std	Z+14, r18	; 0x0e
    2e50:	93 87       	std	Z+11, r25	; 0x0b
    2e52:	82 87       	std	Z+10, r24	; 0x0a
    2e54:	eb e7       	ldi	r30, 0x7B	; 123
    2e56:	f2 e0       	ldi	r31, 0x02	; 2
    2e58:	88 e7       	ldi	r24, 0x78	; 120
    2e5a:	90 e0       	ldi	r25, 0x00	; 0
    2e5c:	91 83       	std	Z+1, r25	; 0x01
    2e5e:	80 83       	st	Z, r24
    2e60:	8a e7       	ldi	r24, 0x7A	; 122
    2e62:	90 e0       	ldi	r25, 0x00	; 0
    2e64:	93 83       	std	Z+3, r25	; 0x03
    2e66:	82 83       	std	Z+2, r24	; 0x02
    2e68:	8c e7       	ldi	r24, 0x7C	; 124
    2e6a:	90 e0       	ldi	r25, 0x00	; 0
    2e6c:	95 83       	std	Z+5, r25	; 0x05
    2e6e:	84 83       	std	Z+4, r24	; 0x04
    2e70:	10 92 7a 02 	sts	0x027A, r1	; 0x80027a <getFirstKeyboardByte+0x3>
    2e74:	10 92 79 02 	sts	0x0279, r1	; 0x800279 <getFirstKeyboardByte+0x2>
    2e78:	10 92 76 02 	sts	0x0276, r1	; 0x800276 <getSecondKeyboardByte+0x3>
    2e7c:	10 92 75 02 	sts	0x0275, r1	; 0x800275 <getSecondKeyboardByte+0x2>
    2e80:	10 92 72 02 	sts	0x0272, r1	; 0x800272 <setDataTask+0x3>
    2e84:	10 92 71 02 	sts	0x0271, r1	; 0x800271 <setDataTask+0x2>
    2e88:	08 95       	ret

00002e8a <_GLOBAL__sub_D__Znwj>:
    2e8a:	08 95       	ret

00002e8c <__divsf3>:
    2e8c:	0e 94 5a 17 	call	0x2eb4	; 0x2eb4 <__divsf3x>
    2e90:	0c 94 3b 18 	jmp	0x3076	; 0x3076 <__fp_round>
    2e94:	0e 94 34 18 	call	0x3068	; 0x3068 <__fp_pscB>
    2e98:	58 f0       	brcs	.+22     	; 0x2eb0 <__divsf3+0x24>
    2e9a:	0e 94 2d 18 	call	0x305a	; 0x305a <__fp_pscA>
    2e9e:	40 f0       	brcs	.+16     	; 0x2eb0 <__divsf3+0x24>
    2ea0:	29 f4       	brne	.+10     	; 0x2eac <__divsf3+0x20>
    2ea2:	5f 3f       	cpi	r21, 0xFF	; 255
    2ea4:	29 f0       	breq	.+10     	; 0x2eb0 <__divsf3+0x24>
    2ea6:	0c 94 24 18 	jmp	0x3048	; 0x3048 <__fp_inf>
    2eaa:	51 11       	cpse	r21, r1
    2eac:	0c 94 6f 18 	jmp	0x30de	; 0x30de <__fp_szero>
    2eb0:	0c 94 2a 18 	jmp	0x3054	; 0x3054 <__fp_nan>

00002eb4 <__divsf3x>:
    2eb4:	0e 94 4c 18 	call	0x3098	; 0x3098 <__fp_split3>
    2eb8:	68 f3       	brcs	.-38     	; 0x2e94 <__divsf3+0x8>

00002eba <__divsf3_pse>:
    2eba:	99 23       	and	r25, r25
    2ebc:	b1 f3       	breq	.-20     	; 0x2eaa <__divsf3+0x1e>
    2ebe:	55 23       	and	r21, r21
    2ec0:	91 f3       	breq	.-28     	; 0x2ea6 <__divsf3+0x1a>
    2ec2:	95 1b       	sub	r25, r21
    2ec4:	55 0b       	sbc	r21, r21
    2ec6:	bb 27       	eor	r27, r27
    2ec8:	aa 27       	eor	r26, r26
    2eca:	62 17       	cp	r22, r18
    2ecc:	73 07       	cpc	r23, r19
    2ece:	84 07       	cpc	r24, r20
    2ed0:	38 f0       	brcs	.+14     	; 0x2ee0 <__divsf3_pse+0x26>
    2ed2:	9f 5f       	subi	r25, 0xFF	; 255
    2ed4:	5f 4f       	sbci	r21, 0xFF	; 255
    2ed6:	22 0f       	add	r18, r18
    2ed8:	33 1f       	adc	r19, r19
    2eda:	44 1f       	adc	r20, r20
    2edc:	aa 1f       	adc	r26, r26
    2ede:	a9 f3       	breq	.-22     	; 0x2eca <__divsf3_pse+0x10>
    2ee0:	35 d0       	rcall	.+106    	; 0x2f4c <__divsf3_pse+0x92>
    2ee2:	0e 2e       	mov	r0, r30
    2ee4:	3a f0       	brmi	.+14     	; 0x2ef4 <__divsf3_pse+0x3a>
    2ee6:	e0 e8       	ldi	r30, 0x80	; 128
    2ee8:	32 d0       	rcall	.+100    	; 0x2f4e <__divsf3_pse+0x94>
    2eea:	91 50       	subi	r25, 0x01	; 1
    2eec:	50 40       	sbci	r21, 0x00	; 0
    2eee:	e6 95       	lsr	r30
    2ef0:	00 1c       	adc	r0, r0
    2ef2:	ca f7       	brpl	.-14     	; 0x2ee6 <__divsf3_pse+0x2c>
    2ef4:	2b d0       	rcall	.+86     	; 0x2f4c <__divsf3_pse+0x92>
    2ef6:	fe 2f       	mov	r31, r30
    2ef8:	29 d0       	rcall	.+82     	; 0x2f4c <__divsf3_pse+0x92>
    2efa:	66 0f       	add	r22, r22
    2efc:	77 1f       	adc	r23, r23
    2efe:	88 1f       	adc	r24, r24
    2f00:	bb 1f       	adc	r27, r27
    2f02:	26 17       	cp	r18, r22
    2f04:	37 07       	cpc	r19, r23
    2f06:	48 07       	cpc	r20, r24
    2f08:	ab 07       	cpc	r26, r27
    2f0a:	b0 e8       	ldi	r27, 0x80	; 128
    2f0c:	09 f0       	breq	.+2      	; 0x2f10 <__divsf3_pse+0x56>
    2f0e:	bb 0b       	sbc	r27, r27
    2f10:	80 2d       	mov	r24, r0
    2f12:	bf 01       	movw	r22, r30
    2f14:	ff 27       	eor	r31, r31
    2f16:	93 58       	subi	r25, 0x83	; 131
    2f18:	5f 4f       	sbci	r21, 0xFF	; 255
    2f1a:	3a f0       	brmi	.+14     	; 0x2f2a <__divsf3_pse+0x70>
    2f1c:	9e 3f       	cpi	r25, 0xFE	; 254
    2f1e:	51 05       	cpc	r21, r1
    2f20:	78 f0       	brcs	.+30     	; 0x2f40 <__divsf3_pse+0x86>
    2f22:	0c 94 24 18 	jmp	0x3048	; 0x3048 <__fp_inf>
    2f26:	0c 94 6f 18 	jmp	0x30de	; 0x30de <__fp_szero>
    2f2a:	5f 3f       	cpi	r21, 0xFF	; 255
    2f2c:	e4 f3       	brlt	.-8      	; 0x2f26 <__divsf3_pse+0x6c>
    2f2e:	98 3e       	cpi	r25, 0xE8	; 232
    2f30:	d4 f3       	brlt	.-12     	; 0x2f26 <__divsf3_pse+0x6c>
    2f32:	86 95       	lsr	r24
    2f34:	77 95       	ror	r23
    2f36:	67 95       	ror	r22
    2f38:	b7 95       	ror	r27
    2f3a:	f7 95       	ror	r31
    2f3c:	9f 5f       	subi	r25, 0xFF	; 255
    2f3e:	c9 f7       	brne	.-14     	; 0x2f32 <__divsf3_pse+0x78>
    2f40:	88 0f       	add	r24, r24
    2f42:	91 1d       	adc	r25, r1
    2f44:	96 95       	lsr	r25
    2f46:	87 95       	ror	r24
    2f48:	97 f9       	bld	r25, 7
    2f4a:	08 95       	ret
    2f4c:	e1 e0       	ldi	r30, 0x01	; 1
    2f4e:	66 0f       	add	r22, r22
    2f50:	77 1f       	adc	r23, r23
    2f52:	88 1f       	adc	r24, r24
    2f54:	bb 1f       	adc	r27, r27
    2f56:	62 17       	cp	r22, r18
    2f58:	73 07       	cpc	r23, r19
    2f5a:	84 07       	cpc	r24, r20
    2f5c:	ba 07       	cpc	r27, r26
    2f5e:	20 f0       	brcs	.+8      	; 0x2f68 <__divsf3_pse+0xae>
    2f60:	62 1b       	sub	r22, r18
    2f62:	73 0b       	sbc	r23, r19
    2f64:	84 0b       	sbc	r24, r20
    2f66:	ba 0b       	sbc	r27, r26
    2f68:	ee 1f       	adc	r30, r30
    2f6a:	88 f7       	brcc	.-30     	; 0x2f4e <__divsf3_pse+0x94>
    2f6c:	e0 95       	com	r30
    2f6e:	08 95       	ret

00002f70 <__fixunssfsi>:
    2f70:	0e 94 54 18 	call	0x30a8	; 0x30a8 <__fp_splitA>
    2f74:	88 f0       	brcs	.+34     	; 0x2f98 <__fixunssfsi+0x28>
    2f76:	9f 57       	subi	r25, 0x7F	; 127
    2f78:	98 f0       	brcs	.+38     	; 0x2fa0 <__fixunssfsi+0x30>
    2f7a:	b9 2f       	mov	r27, r25
    2f7c:	99 27       	eor	r25, r25
    2f7e:	b7 51       	subi	r27, 0x17	; 23
    2f80:	b0 f0       	brcs	.+44     	; 0x2fae <__fixunssfsi+0x3e>
    2f82:	e1 f0       	breq	.+56     	; 0x2fbc <__fixunssfsi+0x4c>
    2f84:	66 0f       	add	r22, r22
    2f86:	77 1f       	adc	r23, r23
    2f88:	88 1f       	adc	r24, r24
    2f8a:	99 1f       	adc	r25, r25
    2f8c:	1a f0       	brmi	.+6      	; 0x2f94 <__fixunssfsi+0x24>
    2f8e:	ba 95       	dec	r27
    2f90:	c9 f7       	brne	.-14     	; 0x2f84 <__fixunssfsi+0x14>
    2f92:	14 c0       	rjmp	.+40     	; 0x2fbc <__fixunssfsi+0x4c>
    2f94:	b1 30       	cpi	r27, 0x01	; 1
    2f96:	91 f0       	breq	.+36     	; 0x2fbc <__fixunssfsi+0x4c>
    2f98:	0e 94 6e 18 	call	0x30dc	; 0x30dc <__fp_zero>
    2f9c:	b1 e0       	ldi	r27, 0x01	; 1
    2f9e:	08 95       	ret
    2fa0:	0c 94 6e 18 	jmp	0x30dc	; 0x30dc <__fp_zero>
    2fa4:	67 2f       	mov	r22, r23
    2fa6:	78 2f       	mov	r23, r24
    2fa8:	88 27       	eor	r24, r24
    2faa:	b8 5f       	subi	r27, 0xF8	; 248
    2fac:	39 f0       	breq	.+14     	; 0x2fbc <__fixunssfsi+0x4c>
    2fae:	b9 3f       	cpi	r27, 0xF9	; 249
    2fb0:	cc f3       	brlt	.-14     	; 0x2fa4 <__fixunssfsi+0x34>
    2fb2:	86 95       	lsr	r24
    2fb4:	77 95       	ror	r23
    2fb6:	67 95       	ror	r22
    2fb8:	b3 95       	inc	r27
    2fba:	d9 f7       	brne	.-10     	; 0x2fb2 <__fixunssfsi+0x42>
    2fbc:	3e f4       	brtc	.+14     	; 0x2fcc <__fixunssfsi+0x5c>
    2fbe:	90 95       	com	r25
    2fc0:	80 95       	com	r24
    2fc2:	70 95       	com	r23
    2fc4:	61 95       	neg	r22
    2fc6:	7f 4f       	sbci	r23, 0xFF	; 255
    2fc8:	8f 4f       	sbci	r24, 0xFF	; 255
    2fca:	9f 4f       	sbci	r25, 0xFF	; 255
    2fcc:	08 95       	ret

00002fce <__floatunsisf>:
    2fce:	e8 94       	clt
    2fd0:	09 c0       	rjmp	.+18     	; 0x2fe4 <__floatsisf+0x12>

00002fd2 <__floatsisf>:
    2fd2:	97 fb       	bst	r25, 7
    2fd4:	3e f4       	brtc	.+14     	; 0x2fe4 <__floatsisf+0x12>
    2fd6:	90 95       	com	r25
    2fd8:	80 95       	com	r24
    2fda:	70 95       	com	r23
    2fdc:	61 95       	neg	r22
    2fde:	7f 4f       	sbci	r23, 0xFF	; 255
    2fe0:	8f 4f       	sbci	r24, 0xFF	; 255
    2fe2:	9f 4f       	sbci	r25, 0xFF	; 255
    2fe4:	99 23       	and	r25, r25
    2fe6:	a9 f0       	breq	.+42     	; 0x3012 <__floatsisf+0x40>
    2fe8:	f9 2f       	mov	r31, r25
    2fea:	96 e9       	ldi	r25, 0x96	; 150
    2fec:	bb 27       	eor	r27, r27
    2fee:	93 95       	inc	r25
    2ff0:	f6 95       	lsr	r31
    2ff2:	87 95       	ror	r24
    2ff4:	77 95       	ror	r23
    2ff6:	67 95       	ror	r22
    2ff8:	b7 95       	ror	r27
    2ffa:	f1 11       	cpse	r31, r1
    2ffc:	f8 cf       	rjmp	.-16     	; 0x2fee <__floatsisf+0x1c>
    2ffe:	fa f4       	brpl	.+62     	; 0x303e <__floatsisf+0x6c>
    3000:	bb 0f       	add	r27, r27
    3002:	11 f4       	brne	.+4      	; 0x3008 <__floatsisf+0x36>
    3004:	60 ff       	sbrs	r22, 0
    3006:	1b c0       	rjmp	.+54     	; 0x303e <__floatsisf+0x6c>
    3008:	6f 5f       	subi	r22, 0xFF	; 255
    300a:	7f 4f       	sbci	r23, 0xFF	; 255
    300c:	8f 4f       	sbci	r24, 0xFF	; 255
    300e:	9f 4f       	sbci	r25, 0xFF	; 255
    3010:	16 c0       	rjmp	.+44     	; 0x303e <__floatsisf+0x6c>
    3012:	88 23       	and	r24, r24
    3014:	11 f0       	breq	.+4      	; 0x301a <__floatsisf+0x48>
    3016:	96 e9       	ldi	r25, 0x96	; 150
    3018:	11 c0       	rjmp	.+34     	; 0x303c <__floatsisf+0x6a>
    301a:	77 23       	and	r23, r23
    301c:	21 f0       	breq	.+8      	; 0x3026 <__floatsisf+0x54>
    301e:	9e e8       	ldi	r25, 0x8E	; 142
    3020:	87 2f       	mov	r24, r23
    3022:	76 2f       	mov	r23, r22
    3024:	05 c0       	rjmp	.+10     	; 0x3030 <__floatsisf+0x5e>
    3026:	66 23       	and	r22, r22
    3028:	71 f0       	breq	.+28     	; 0x3046 <__floatsisf+0x74>
    302a:	96 e8       	ldi	r25, 0x86	; 134
    302c:	86 2f       	mov	r24, r22
    302e:	70 e0       	ldi	r23, 0x00	; 0
    3030:	60 e0       	ldi	r22, 0x00	; 0
    3032:	2a f0       	brmi	.+10     	; 0x303e <__floatsisf+0x6c>
    3034:	9a 95       	dec	r25
    3036:	66 0f       	add	r22, r22
    3038:	77 1f       	adc	r23, r23
    303a:	88 1f       	adc	r24, r24
    303c:	da f7       	brpl	.-10     	; 0x3034 <__floatsisf+0x62>
    303e:	88 0f       	add	r24, r24
    3040:	96 95       	lsr	r25
    3042:	87 95       	ror	r24
    3044:	97 f9       	bld	r25, 7
    3046:	08 95       	ret

00003048 <__fp_inf>:
    3048:	97 f9       	bld	r25, 7
    304a:	9f 67       	ori	r25, 0x7F	; 127
    304c:	80 e8       	ldi	r24, 0x80	; 128
    304e:	70 e0       	ldi	r23, 0x00	; 0
    3050:	60 e0       	ldi	r22, 0x00	; 0
    3052:	08 95       	ret

00003054 <__fp_nan>:
    3054:	9f ef       	ldi	r25, 0xFF	; 255
    3056:	80 ec       	ldi	r24, 0xC0	; 192
    3058:	08 95       	ret

0000305a <__fp_pscA>:
    305a:	00 24       	eor	r0, r0
    305c:	0a 94       	dec	r0
    305e:	16 16       	cp	r1, r22
    3060:	17 06       	cpc	r1, r23
    3062:	18 06       	cpc	r1, r24
    3064:	09 06       	cpc	r0, r25
    3066:	08 95       	ret

00003068 <__fp_pscB>:
    3068:	00 24       	eor	r0, r0
    306a:	0a 94       	dec	r0
    306c:	12 16       	cp	r1, r18
    306e:	13 06       	cpc	r1, r19
    3070:	14 06       	cpc	r1, r20
    3072:	05 06       	cpc	r0, r21
    3074:	08 95       	ret

00003076 <__fp_round>:
    3076:	09 2e       	mov	r0, r25
    3078:	03 94       	inc	r0
    307a:	00 0c       	add	r0, r0
    307c:	11 f4       	brne	.+4      	; 0x3082 <__fp_round+0xc>
    307e:	88 23       	and	r24, r24
    3080:	52 f0       	brmi	.+20     	; 0x3096 <__fp_round+0x20>
    3082:	bb 0f       	add	r27, r27
    3084:	40 f4       	brcc	.+16     	; 0x3096 <__fp_round+0x20>
    3086:	bf 2b       	or	r27, r31
    3088:	11 f4       	brne	.+4      	; 0x308e <__fp_round+0x18>
    308a:	60 ff       	sbrs	r22, 0
    308c:	04 c0       	rjmp	.+8      	; 0x3096 <__fp_round+0x20>
    308e:	6f 5f       	subi	r22, 0xFF	; 255
    3090:	7f 4f       	sbci	r23, 0xFF	; 255
    3092:	8f 4f       	sbci	r24, 0xFF	; 255
    3094:	9f 4f       	sbci	r25, 0xFF	; 255
    3096:	08 95       	ret

00003098 <__fp_split3>:
    3098:	57 fd       	sbrc	r21, 7
    309a:	90 58       	subi	r25, 0x80	; 128
    309c:	44 0f       	add	r20, r20
    309e:	55 1f       	adc	r21, r21
    30a0:	59 f0       	breq	.+22     	; 0x30b8 <__fp_splitA+0x10>
    30a2:	5f 3f       	cpi	r21, 0xFF	; 255
    30a4:	71 f0       	breq	.+28     	; 0x30c2 <__fp_splitA+0x1a>
    30a6:	47 95       	ror	r20

000030a8 <__fp_splitA>:
    30a8:	88 0f       	add	r24, r24
    30aa:	97 fb       	bst	r25, 7
    30ac:	99 1f       	adc	r25, r25
    30ae:	61 f0       	breq	.+24     	; 0x30c8 <__fp_splitA+0x20>
    30b0:	9f 3f       	cpi	r25, 0xFF	; 255
    30b2:	79 f0       	breq	.+30     	; 0x30d2 <__fp_splitA+0x2a>
    30b4:	87 95       	ror	r24
    30b6:	08 95       	ret
    30b8:	12 16       	cp	r1, r18
    30ba:	13 06       	cpc	r1, r19
    30bc:	14 06       	cpc	r1, r20
    30be:	55 1f       	adc	r21, r21
    30c0:	f2 cf       	rjmp	.-28     	; 0x30a6 <__fp_split3+0xe>
    30c2:	46 95       	lsr	r20
    30c4:	f1 df       	rcall	.-30     	; 0x30a8 <__fp_splitA>
    30c6:	08 c0       	rjmp	.+16     	; 0x30d8 <__fp_splitA+0x30>
    30c8:	16 16       	cp	r1, r22
    30ca:	17 06       	cpc	r1, r23
    30cc:	18 06       	cpc	r1, r24
    30ce:	99 1f       	adc	r25, r25
    30d0:	f1 cf       	rjmp	.-30     	; 0x30b4 <__fp_splitA+0xc>
    30d2:	86 95       	lsr	r24
    30d4:	71 05       	cpc	r23, r1
    30d6:	61 05       	cpc	r22, r1
    30d8:	08 94       	sec
    30da:	08 95       	ret

000030dc <__fp_zero>:
    30dc:	e8 94       	clt

000030de <__fp_szero>:
    30de:	bb 27       	eor	r27, r27
    30e0:	66 27       	eor	r22, r22
    30e2:	77 27       	eor	r23, r23
    30e4:	cb 01       	movw	r24, r22
    30e6:	97 f9       	bld	r25, 7
    30e8:	08 95       	ret

000030ea <__mulsf3>:
    30ea:	0e 94 88 18 	call	0x3110	; 0x3110 <__mulsf3x>
    30ee:	0c 94 3b 18 	jmp	0x3076	; 0x3076 <__fp_round>
    30f2:	0e 94 2d 18 	call	0x305a	; 0x305a <__fp_pscA>
    30f6:	38 f0       	brcs	.+14     	; 0x3106 <__mulsf3+0x1c>
    30f8:	0e 94 34 18 	call	0x3068	; 0x3068 <__fp_pscB>
    30fc:	20 f0       	brcs	.+8      	; 0x3106 <__mulsf3+0x1c>
    30fe:	95 23       	and	r25, r21
    3100:	11 f0       	breq	.+4      	; 0x3106 <__mulsf3+0x1c>
    3102:	0c 94 24 18 	jmp	0x3048	; 0x3048 <__fp_inf>
    3106:	0c 94 2a 18 	jmp	0x3054	; 0x3054 <__fp_nan>
    310a:	11 24       	eor	r1, r1
    310c:	0c 94 6f 18 	jmp	0x30de	; 0x30de <__fp_szero>

00003110 <__mulsf3x>:
    3110:	0e 94 4c 18 	call	0x3098	; 0x3098 <__fp_split3>
    3114:	70 f3       	brcs	.-36     	; 0x30f2 <__mulsf3+0x8>

00003116 <__mulsf3_pse>:
    3116:	95 9f       	mul	r25, r21
    3118:	c1 f3       	breq	.-16     	; 0x310a <__mulsf3+0x20>
    311a:	95 0f       	add	r25, r21
    311c:	50 e0       	ldi	r21, 0x00	; 0
    311e:	55 1f       	adc	r21, r21
    3120:	62 9f       	mul	r22, r18
    3122:	f0 01       	movw	r30, r0
    3124:	72 9f       	mul	r23, r18
    3126:	bb 27       	eor	r27, r27
    3128:	f0 0d       	add	r31, r0
    312a:	b1 1d       	adc	r27, r1
    312c:	63 9f       	mul	r22, r19
    312e:	aa 27       	eor	r26, r26
    3130:	f0 0d       	add	r31, r0
    3132:	b1 1d       	adc	r27, r1
    3134:	aa 1f       	adc	r26, r26
    3136:	64 9f       	mul	r22, r20
    3138:	66 27       	eor	r22, r22
    313a:	b0 0d       	add	r27, r0
    313c:	a1 1d       	adc	r26, r1
    313e:	66 1f       	adc	r22, r22
    3140:	82 9f       	mul	r24, r18
    3142:	22 27       	eor	r18, r18
    3144:	b0 0d       	add	r27, r0
    3146:	a1 1d       	adc	r26, r1
    3148:	62 1f       	adc	r22, r18
    314a:	73 9f       	mul	r23, r19
    314c:	b0 0d       	add	r27, r0
    314e:	a1 1d       	adc	r26, r1
    3150:	62 1f       	adc	r22, r18
    3152:	83 9f       	mul	r24, r19
    3154:	a0 0d       	add	r26, r0
    3156:	61 1d       	adc	r22, r1
    3158:	22 1f       	adc	r18, r18
    315a:	74 9f       	mul	r23, r20
    315c:	33 27       	eor	r19, r19
    315e:	a0 0d       	add	r26, r0
    3160:	61 1d       	adc	r22, r1
    3162:	23 1f       	adc	r18, r19
    3164:	84 9f       	mul	r24, r20
    3166:	60 0d       	add	r22, r0
    3168:	21 1d       	adc	r18, r1
    316a:	82 2f       	mov	r24, r18
    316c:	76 2f       	mov	r23, r22
    316e:	6a 2f       	mov	r22, r26
    3170:	11 24       	eor	r1, r1
    3172:	9f 57       	subi	r25, 0x7F	; 127
    3174:	50 40       	sbci	r21, 0x00	; 0
    3176:	9a f0       	brmi	.+38     	; 0x319e <__mulsf3_pse+0x88>
    3178:	f1 f0       	breq	.+60     	; 0x31b6 <__mulsf3_pse+0xa0>
    317a:	88 23       	and	r24, r24
    317c:	4a f0       	brmi	.+18     	; 0x3190 <__mulsf3_pse+0x7a>
    317e:	ee 0f       	add	r30, r30
    3180:	ff 1f       	adc	r31, r31
    3182:	bb 1f       	adc	r27, r27
    3184:	66 1f       	adc	r22, r22
    3186:	77 1f       	adc	r23, r23
    3188:	88 1f       	adc	r24, r24
    318a:	91 50       	subi	r25, 0x01	; 1
    318c:	50 40       	sbci	r21, 0x00	; 0
    318e:	a9 f7       	brne	.-22     	; 0x317a <__mulsf3_pse+0x64>
    3190:	9e 3f       	cpi	r25, 0xFE	; 254
    3192:	51 05       	cpc	r21, r1
    3194:	80 f0       	brcs	.+32     	; 0x31b6 <__mulsf3_pse+0xa0>
    3196:	0c 94 24 18 	jmp	0x3048	; 0x3048 <__fp_inf>
    319a:	0c 94 6f 18 	jmp	0x30de	; 0x30de <__fp_szero>
    319e:	5f 3f       	cpi	r21, 0xFF	; 255
    31a0:	e4 f3       	brlt	.-8      	; 0x319a <__mulsf3_pse+0x84>
    31a2:	98 3e       	cpi	r25, 0xE8	; 232
    31a4:	d4 f3       	brlt	.-12     	; 0x319a <__mulsf3_pse+0x84>
    31a6:	86 95       	lsr	r24
    31a8:	77 95       	ror	r23
    31aa:	67 95       	ror	r22
    31ac:	b7 95       	ror	r27
    31ae:	f7 95       	ror	r31
    31b0:	e7 95       	ror	r30
    31b2:	9f 5f       	subi	r25, 0xFF	; 255
    31b4:	c1 f7       	brne	.-16     	; 0x31a6 <__mulsf3_pse+0x90>
    31b6:	fe 2b       	or	r31, r30
    31b8:	88 0f       	add	r24, r24
    31ba:	91 1d       	adc	r25, r1
    31bc:	96 95       	lsr	r25
    31be:	87 95       	ror	r24
    31c0:	97 f9       	bld	r25, 7
    31c2:	08 95       	ret

000031c4 <__tablejump2__>:
    31c4:	ee 0f       	add	r30, r30
    31c6:	ff 1f       	adc	r31, r31
    31c8:	05 90       	lpm	r0, Z+
    31ca:	f4 91       	lpm	r31, Z
    31cc:	e0 2d       	mov	r30, r0
    31ce:	09 94       	ijmp

000031d0 <malloc>:
    31d0:	cf 93       	push	r28
    31d2:	df 93       	push	r29
    31d4:	82 30       	cpi	r24, 0x02	; 2
    31d6:	91 05       	cpc	r25, r1
    31d8:	10 f4       	brcc	.+4      	; 0x31de <malloc+0xe>
    31da:	82 e0       	ldi	r24, 0x02	; 2
    31dc:	90 e0       	ldi	r25, 0x00	; 0
    31de:	e0 91 d9 02 	lds	r30, 0x02D9	; 0x8002d9 <__flp>
    31e2:	f0 91 da 02 	lds	r31, 0x02DA	; 0x8002da <__flp+0x1>
    31e6:	20 e0       	ldi	r18, 0x00	; 0
    31e8:	30 e0       	ldi	r19, 0x00	; 0
    31ea:	c0 e0       	ldi	r28, 0x00	; 0
    31ec:	d0 e0       	ldi	r29, 0x00	; 0
    31ee:	30 97       	sbiw	r30, 0x00	; 0
    31f0:	11 f1       	breq	.+68     	; 0x3236 <malloc+0x66>
    31f2:	40 81       	ld	r20, Z
    31f4:	51 81       	ldd	r21, Z+1	; 0x01
    31f6:	48 17       	cp	r20, r24
    31f8:	59 07       	cpc	r21, r25
    31fa:	c0 f0       	brcs	.+48     	; 0x322c <malloc+0x5c>
    31fc:	48 17       	cp	r20, r24
    31fe:	59 07       	cpc	r21, r25
    3200:	61 f4       	brne	.+24     	; 0x321a <malloc+0x4a>
    3202:	82 81       	ldd	r24, Z+2	; 0x02
    3204:	93 81       	ldd	r25, Z+3	; 0x03
    3206:	20 97       	sbiw	r28, 0x00	; 0
    3208:	19 f0       	breq	.+6      	; 0x3210 <malloc+0x40>
    320a:	9b 83       	std	Y+3, r25	; 0x03
    320c:	8a 83       	std	Y+2, r24	; 0x02
    320e:	2b c0       	rjmp	.+86     	; 0x3266 <malloc+0x96>
    3210:	90 93 da 02 	sts	0x02DA, r25	; 0x8002da <__flp+0x1>
    3214:	80 93 d9 02 	sts	0x02D9, r24	; 0x8002d9 <__flp>
    3218:	26 c0       	rjmp	.+76     	; 0x3266 <malloc+0x96>
    321a:	21 15       	cp	r18, r1
    321c:	31 05       	cpc	r19, r1
    321e:	19 f0       	breq	.+6      	; 0x3226 <malloc+0x56>
    3220:	42 17       	cp	r20, r18
    3222:	53 07       	cpc	r21, r19
    3224:	18 f4       	brcc	.+6      	; 0x322c <malloc+0x5c>
    3226:	9a 01       	movw	r18, r20
    3228:	be 01       	movw	r22, r28
    322a:	df 01       	movw	r26, r30
    322c:	ef 01       	movw	r28, r30
    322e:	02 80       	ldd	r0, Z+2	; 0x02
    3230:	f3 81       	ldd	r31, Z+3	; 0x03
    3232:	e0 2d       	mov	r30, r0
    3234:	dc cf       	rjmp	.-72     	; 0x31ee <malloc+0x1e>
    3236:	21 15       	cp	r18, r1
    3238:	31 05       	cpc	r19, r1
    323a:	09 f1       	breq	.+66     	; 0x327e <malloc+0xae>
    323c:	28 1b       	sub	r18, r24
    323e:	39 0b       	sbc	r19, r25
    3240:	24 30       	cpi	r18, 0x04	; 4
    3242:	31 05       	cpc	r19, r1
    3244:	90 f4       	brcc	.+36     	; 0x326a <malloc+0x9a>
    3246:	12 96       	adiw	r26, 0x02	; 2
    3248:	8d 91       	ld	r24, X+
    324a:	9c 91       	ld	r25, X
    324c:	13 97       	sbiw	r26, 0x03	; 3
    324e:	61 15       	cp	r22, r1
    3250:	71 05       	cpc	r23, r1
    3252:	21 f0       	breq	.+8      	; 0x325c <malloc+0x8c>
    3254:	fb 01       	movw	r30, r22
    3256:	93 83       	std	Z+3, r25	; 0x03
    3258:	82 83       	std	Z+2, r24	; 0x02
    325a:	04 c0       	rjmp	.+8      	; 0x3264 <malloc+0x94>
    325c:	90 93 da 02 	sts	0x02DA, r25	; 0x8002da <__flp+0x1>
    3260:	80 93 d9 02 	sts	0x02D9, r24	; 0x8002d9 <__flp>
    3264:	fd 01       	movw	r30, r26
    3266:	32 96       	adiw	r30, 0x02	; 2
    3268:	44 c0       	rjmp	.+136    	; 0x32f2 <malloc+0x122>
    326a:	fd 01       	movw	r30, r26
    326c:	e2 0f       	add	r30, r18
    326e:	f3 1f       	adc	r31, r19
    3270:	81 93       	st	Z+, r24
    3272:	91 93       	st	Z+, r25
    3274:	22 50       	subi	r18, 0x02	; 2
    3276:	31 09       	sbc	r19, r1
    3278:	2d 93       	st	X+, r18
    327a:	3c 93       	st	X, r19
    327c:	3a c0       	rjmp	.+116    	; 0x32f2 <malloc+0x122>
    327e:	20 91 d7 02 	lds	r18, 0x02D7	; 0x8002d7 <__brkval>
    3282:	30 91 d8 02 	lds	r19, 0x02D8	; 0x8002d8 <__brkval+0x1>
    3286:	23 2b       	or	r18, r19
    3288:	41 f4       	brne	.+16     	; 0x329a <malloc+0xca>
    328a:	20 91 80 00 	lds	r18, 0x0080	; 0x800080 <__malloc_heap_start>
    328e:	30 91 81 00 	lds	r19, 0x0081	; 0x800081 <__malloc_heap_start+0x1>
    3292:	30 93 d8 02 	sts	0x02D8, r19	; 0x8002d8 <__brkval+0x1>
    3296:	20 93 d7 02 	sts	0x02D7, r18	; 0x8002d7 <__brkval>
    329a:	20 91 7e 00 	lds	r18, 0x007E	; 0x80007e <__malloc_heap_end>
    329e:	30 91 7f 00 	lds	r19, 0x007F	; 0x80007f <__malloc_heap_end+0x1>
    32a2:	21 15       	cp	r18, r1
    32a4:	31 05       	cpc	r19, r1
    32a6:	41 f4       	brne	.+16     	; 0x32b8 <malloc+0xe8>
    32a8:	2d b7       	in	r18, 0x3d	; 61
    32aa:	3e b7       	in	r19, 0x3e	; 62
    32ac:	40 91 82 00 	lds	r20, 0x0082	; 0x800082 <__malloc_margin>
    32b0:	50 91 83 00 	lds	r21, 0x0083	; 0x800083 <__malloc_margin+0x1>
    32b4:	24 1b       	sub	r18, r20
    32b6:	35 0b       	sbc	r19, r21
    32b8:	e0 91 d7 02 	lds	r30, 0x02D7	; 0x8002d7 <__brkval>
    32bc:	f0 91 d8 02 	lds	r31, 0x02D8	; 0x8002d8 <__brkval+0x1>
    32c0:	e2 17       	cp	r30, r18
    32c2:	f3 07       	cpc	r31, r19
    32c4:	a0 f4       	brcc	.+40     	; 0x32ee <malloc+0x11e>
    32c6:	2e 1b       	sub	r18, r30
    32c8:	3f 0b       	sbc	r19, r31
    32ca:	28 17       	cp	r18, r24
    32cc:	39 07       	cpc	r19, r25
    32ce:	78 f0       	brcs	.+30     	; 0x32ee <malloc+0x11e>
    32d0:	ac 01       	movw	r20, r24
    32d2:	4e 5f       	subi	r20, 0xFE	; 254
    32d4:	5f 4f       	sbci	r21, 0xFF	; 255
    32d6:	24 17       	cp	r18, r20
    32d8:	35 07       	cpc	r19, r21
    32da:	48 f0       	brcs	.+18     	; 0x32ee <malloc+0x11e>
    32dc:	4e 0f       	add	r20, r30
    32de:	5f 1f       	adc	r21, r31
    32e0:	50 93 d8 02 	sts	0x02D8, r21	; 0x8002d8 <__brkval+0x1>
    32e4:	40 93 d7 02 	sts	0x02D7, r20	; 0x8002d7 <__brkval>
    32e8:	81 93       	st	Z+, r24
    32ea:	91 93       	st	Z+, r25
    32ec:	02 c0       	rjmp	.+4      	; 0x32f2 <malloc+0x122>
    32ee:	e0 e0       	ldi	r30, 0x00	; 0
    32f0:	f0 e0       	ldi	r31, 0x00	; 0
    32f2:	cf 01       	movw	r24, r30
    32f4:	df 91       	pop	r29
    32f6:	cf 91       	pop	r28
    32f8:	08 95       	ret

000032fa <free>:
    32fa:	0f 93       	push	r16
    32fc:	1f 93       	push	r17
    32fe:	cf 93       	push	r28
    3300:	df 93       	push	r29
    3302:	00 97       	sbiw	r24, 0x00	; 0
    3304:	09 f4       	brne	.+2      	; 0x3308 <free+0xe>
    3306:	8c c0       	rjmp	.+280    	; 0x3420 <free+0x126>
    3308:	fc 01       	movw	r30, r24
    330a:	32 97       	sbiw	r30, 0x02	; 2
    330c:	13 82       	std	Z+3, r1	; 0x03
    330e:	12 82       	std	Z+2, r1	; 0x02
    3310:	00 91 d9 02 	lds	r16, 0x02D9	; 0x8002d9 <__flp>
    3314:	10 91 da 02 	lds	r17, 0x02DA	; 0x8002da <__flp+0x1>
    3318:	01 15       	cp	r16, r1
    331a:	11 05       	cpc	r17, r1
    331c:	81 f4       	brne	.+32     	; 0x333e <free+0x44>
    331e:	20 81       	ld	r18, Z
    3320:	31 81       	ldd	r19, Z+1	; 0x01
    3322:	82 0f       	add	r24, r18
    3324:	93 1f       	adc	r25, r19
    3326:	20 91 d7 02 	lds	r18, 0x02D7	; 0x8002d7 <__brkval>
    332a:	30 91 d8 02 	lds	r19, 0x02D8	; 0x8002d8 <__brkval+0x1>
    332e:	28 17       	cp	r18, r24
    3330:	39 07       	cpc	r19, r25
    3332:	79 f5       	brne	.+94     	; 0x3392 <free+0x98>
    3334:	f0 93 d8 02 	sts	0x02D8, r31	; 0x8002d8 <__brkval+0x1>
    3338:	e0 93 d7 02 	sts	0x02D7, r30	; 0x8002d7 <__brkval>
    333c:	71 c0       	rjmp	.+226    	; 0x3420 <free+0x126>
    333e:	d8 01       	movw	r26, r16
    3340:	40 e0       	ldi	r20, 0x00	; 0
    3342:	50 e0       	ldi	r21, 0x00	; 0
    3344:	ae 17       	cp	r26, r30
    3346:	bf 07       	cpc	r27, r31
    3348:	50 f4       	brcc	.+20     	; 0x335e <free+0x64>
    334a:	12 96       	adiw	r26, 0x02	; 2
    334c:	2d 91       	ld	r18, X+
    334e:	3c 91       	ld	r19, X
    3350:	13 97       	sbiw	r26, 0x03	; 3
    3352:	ad 01       	movw	r20, r26
    3354:	21 15       	cp	r18, r1
    3356:	31 05       	cpc	r19, r1
    3358:	09 f1       	breq	.+66     	; 0x339c <free+0xa2>
    335a:	d9 01       	movw	r26, r18
    335c:	f3 cf       	rjmp	.-26     	; 0x3344 <free+0x4a>
    335e:	9d 01       	movw	r18, r26
    3360:	da 01       	movw	r26, r20
    3362:	33 83       	std	Z+3, r19	; 0x03
    3364:	22 83       	std	Z+2, r18	; 0x02
    3366:	60 81       	ld	r22, Z
    3368:	71 81       	ldd	r23, Z+1	; 0x01
    336a:	86 0f       	add	r24, r22
    336c:	97 1f       	adc	r25, r23
    336e:	82 17       	cp	r24, r18
    3370:	93 07       	cpc	r25, r19
    3372:	69 f4       	brne	.+26     	; 0x338e <free+0x94>
    3374:	ec 01       	movw	r28, r24
    3376:	28 81       	ld	r18, Y
    3378:	39 81       	ldd	r19, Y+1	; 0x01
    337a:	26 0f       	add	r18, r22
    337c:	37 1f       	adc	r19, r23
    337e:	2e 5f       	subi	r18, 0xFE	; 254
    3380:	3f 4f       	sbci	r19, 0xFF	; 255
    3382:	31 83       	std	Z+1, r19	; 0x01
    3384:	20 83       	st	Z, r18
    3386:	8a 81       	ldd	r24, Y+2	; 0x02
    3388:	9b 81       	ldd	r25, Y+3	; 0x03
    338a:	93 83       	std	Z+3, r25	; 0x03
    338c:	82 83       	std	Z+2, r24	; 0x02
    338e:	45 2b       	or	r20, r21
    3390:	29 f4       	brne	.+10     	; 0x339c <free+0xa2>
    3392:	f0 93 da 02 	sts	0x02DA, r31	; 0x8002da <__flp+0x1>
    3396:	e0 93 d9 02 	sts	0x02D9, r30	; 0x8002d9 <__flp>
    339a:	42 c0       	rjmp	.+132    	; 0x3420 <free+0x126>
    339c:	13 96       	adiw	r26, 0x03	; 3
    339e:	fc 93       	st	X, r31
    33a0:	ee 93       	st	-X, r30
    33a2:	12 97       	sbiw	r26, 0x02	; 2
    33a4:	ed 01       	movw	r28, r26
    33a6:	49 91       	ld	r20, Y+
    33a8:	59 91       	ld	r21, Y+
    33aa:	9e 01       	movw	r18, r28
    33ac:	24 0f       	add	r18, r20
    33ae:	35 1f       	adc	r19, r21
    33b0:	e2 17       	cp	r30, r18
    33b2:	f3 07       	cpc	r31, r19
    33b4:	71 f4       	brne	.+28     	; 0x33d2 <free+0xd8>
    33b6:	80 81       	ld	r24, Z
    33b8:	91 81       	ldd	r25, Z+1	; 0x01
    33ba:	84 0f       	add	r24, r20
    33bc:	95 1f       	adc	r25, r21
    33be:	02 96       	adiw	r24, 0x02	; 2
    33c0:	11 96       	adiw	r26, 0x01	; 1
    33c2:	9c 93       	st	X, r25
    33c4:	8e 93       	st	-X, r24
    33c6:	82 81       	ldd	r24, Z+2	; 0x02
    33c8:	93 81       	ldd	r25, Z+3	; 0x03
    33ca:	13 96       	adiw	r26, 0x03	; 3
    33cc:	9c 93       	st	X, r25
    33ce:	8e 93       	st	-X, r24
    33d0:	12 97       	sbiw	r26, 0x02	; 2
    33d2:	e0 e0       	ldi	r30, 0x00	; 0
    33d4:	f0 e0       	ldi	r31, 0x00	; 0
    33d6:	d8 01       	movw	r26, r16
    33d8:	12 96       	adiw	r26, 0x02	; 2
    33da:	8d 91       	ld	r24, X+
    33dc:	9c 91       	ld	r25, X
    33de:	13 97       	sbiw	r26, 0x03	; 3
    33e0:	00 97       	sbiw	r24, 0x00	; 0
    33e2:	19 f0       	breq	.+6      	; 0x33ea <free+0xf0>
    33e4:	f8 01       	movw	r30, r16
    33e6:	8c 01       	movw	r16, r24
    33e8:	f6 cf       	rjmp	.-20     	; 0x33d6 <free+0xdc>
    33ea:	8d 91       	ld	r24, X+
    33ec:	9c 91       	ld	r25, X
    33ee:	98 01       	movw	r18, r16
    33f0:	2e 5f       	subi	r18, 0xFE	; 254
    33f2:	3f 4f       	sbci	r19, 0xFF	; 255
    33f4:	82 0f       	add	r24, r18
    33f6:	93 1f       	adc	r25, r19
    33f8:	20 91 d7 02 	lds	r18, 0x02D7	; 0x8002d7 <__brkval>
    33fc:	30 91 d8 02 	lds	r19, 0x02D8	; 0x8002d8 <__brkval+0x1>
    3400:	28 17       	cp	r18, r24
    3402:	39 07       	cpc	r19, r25
    3404:	69 f4       	brne	.+26     	; 0x3420 <free+0x126>
    3406:	30 97       	sbiw	r30, 0x00	; 0
    3408:	29 f4       	brne	.+10     	; 0x3414 <free+0x11a>
    340a:	10 92 da 02 	sts	0x02DA, r1	; 0x8002da <__flp+0x1>
    340e:	10 92 d9 02 	sts	0x02D9, r1	; 0x8002d9 <__flp>
    3412:	02 c0       	rjmp	.+4      	; 0x3418 <free+0x11e>
    3414:	13 82       	std	Z+3, r1	; 0x03
    3416:	12 82       	std	Z+2, r1	; 0x02
    3418:	10 93 d8 02 	sts	0x02D8, r17	; 0x8002d8 <__brkval+0x1>
    341c:	00 93 d7 02 	sts	0x02D7, r16	; 0x8002d7 <__brkval>
    3420:	df 91       	pop	r29
    3422:	cf 91       	pop	r28
    3424:	1f 91       	pop	r17
    3426:	0f 91       	pop	r16
    3428:	08 95       	ret

0000342a <eeprom_read_block>:
    342a:	dc 01       	movw	r26, r24
    342c:	cb 01       	movw	r24, r22

0000342e <eeprom_read_blraw>:
    342e:	fc 01       	movw	r30, r24
    3430:	e1 99       	sbic	0x1c, 1	; 28
    3432:	fe cf       	rjmp	.-4      	; 0x3430 <eeprom_read_blraw+0x2>
    3434:	06 c0       	rjmp	.+12     	; 0x3442 <eeprom_read_blraw+0x14>
    3436:	ff bb       	out	0x1f, r31	; 31
    3438:	ee bb       	out	0x1e, r30	; 30
    343a:	e0 9a       	sbi	0x1c, 0	; 28
    343c:	31 96       	adiw	r30, 0x01	; 1
    343e:	0d b2       	in	r0, 0x1d	; 29
    3440:	0d 92       	st	X+, r0
    3442:	41 50       	subi	r20, 0x01	; 1
    3444:	50 40       	sbci	r21, 0x00	; 0
    3446:	b8 f7       	brcc	.-18     	; 0x3436 <eeprom_read_blraw+0x8>
    3448:	08 95       	ret

0000344a <eeprom_read_byte>:
    344a:	e1 99       	sbic	0x1c, 1	; 28
    344c:	fe cf       	rjmp	.-4      	; 0x344a <eeprom_read_byte>
    344e:	9f bb       	out	0x1f, r25	; 31
    3450:	8e bb       	out	0x1e, r24	; 30
    3452:	e0 9a       	sbi	0x1c, 0	; 28
    3454:	99 27       	eor	r25, r25
    3456:	8d b3       	in	r24, 0x1d	; 29
    3458:	08 95       	ret

0000345a <__do_global_dtors>:
    345a:	10 e0       	ldi	r17, 0x00	; 0
    345c:	c9 e3       	ldi	r28, 0x39	; 57
    345e:	d0 e0       	ldi	r29, 0x00	; 0
    3460:	04 c0       	rjmp	.+8      	; 0x346a <__do_global_dtors+0x10>
    3462:	fe 01       	movw	r30, r28
    3464:	0e 94 e2 18 	call	0x31c4	; 0x31c4 <__tablejump2__>
    3468:	21 96       	adiw	r28, 0x01	; 1
    346a:	ca 33       	cpi	r28, 0x3A	; 58
    346c:	d1 07       	cpc	r29, r17
    346e:	c9 f7       	brne	.-14     	; 0x3462 <__do_global_dtors+0x8>
    3470:	f8 94       	cli

00003472 <__stop_program>:
    3472:	ff cf       	rjmp	.-2      	; 0x3472 <__stop_program>
